 SpaceShooter

 Timestamp is 661c6603 (Mon Apr 15 00:25:55 2024)

 Preferred load address is 00400000

 Start         Length     Name                   Class
 0001:00000000 00005930H .text$di                CODE
 0001:00005930 0003feb0H .text$mn                CODE
 0001:000457e0 00003d00H .text$x                 CODE
 0001:000494e0 00001012H .text$yd                CODE
 0002:00000000 00000104H .CRT$XCA                DATA
 0002:00000104 00000104H .CRT$XCAA               DATA
 0002:00000208 00000104H .CRT$XCL                DATA
 0002:0000030c 00000104H .CRT$XCZ                DATA
 0002:00000410 00000104H .CRT$XIA                DATA
 0002:00000514 00000104H .CRT$XIAA               DATA
 0002:00000618 00000104H .CRT$XIAC               DATA
 0002:0000071c 00000104H .CRT$XIZ                DATA
 0002:00000820 00000104H .CRT$XPA                DATA
 0002:00000924 00000104H .CRT$XPZ                DATA
 0002:00000a28 00000104H .CRT$XTA                DATA
 0002:00000b2c 00000114H .CRT$XTZ                DATA
 0002:00000c40 0000a680H .rdata                  DATA
 0002:0000b2c0 00000180H .rdata$CastGuardVftablesA DATA
 0002:0000b440 0000014cH .rdata$CastGuardVftablesC DATA
 0002:0000b58c 00001740H .rdata$r                DATA
 0002:0000cccc 0000041cH .rdata$sxdata           DATA
 0002:0000d0e8 00000194H .rdata$zzzdbg           DATA
 0002:0000d27c 00000104H .rtc$IAA                DATA
 0002:0000d380 00000104H .rtc$IZZ                DATA
 0002:0000d484 00000104H .rtc$TAA                DATA
 0002:0000d588 00000108H .rtc$TZZ                DATA
 0002:0000d690 000029e7H .xdata$x                DATA
 0002:00010077 00000000H .edata                  DATA
 0003:00000000 000001c0H .data                   DATA
 0003:000001c0 000001acH .data$r                 DATA
 0003:0000036c 000009c4H .data$rs                DATA
 0003:00000d30 0000045cH .bss                    DATA
 0004:00000000 000004b8H .idata$5                DATA
 0004:000004b8 0000008cH .idata$2                DATA
 0004:00000544 00000014H .idata$3                DATA
 0004:00000558 000004b8H .idata$4                DATA
 0004:00000a10 00001b94H .idata$6                DATA
 0005:00000000 0000010eH .00cfg                  DATA
 0006:00000000 00000170H .rsrc$01                DATA
 0006:00000170 000002ccH .rsrc$02                DATA

  Address         Publics by Value              Rva+Base       Lib:Object

 0000:00000000       ___AbsoluteZero            00000000     <absolute>
 0000:00000000       ___arm64x_extra_rfe_table  00000000     <absolute>
 0000:00000000       ___arm64x_extra_rfe_table_size 00000000     <absolute>
 0000:00000000       ___arm64x_native_entrypoint 00000000     <absolute>
 0000:00000000       ___arm64x_redirection_metadata 00000000     <absolute>
 0000:00000000       ___arm64x_redirection_metadata_count 00000000     <absolute>
 0000:00000000       ___dynamic_value_reloc_table 00000000     <absolute>
 0000:00000000       ___enclave_config          00000000     <absolute>
 0000:00000000       ___guard_check_icall_a64n_fptr 00000000     <absolute>
 0000:00000000       ___guard_eh_cont_count     00000000     <absolute>
 0000:00000000       ___guard_eh_cont_table     00000000     <absolute>
 0000:00000000       ___guard_fids_count        00000000     <absolute>
 0000:00000000       ___guard_fids_table        00000000     <absolute>
 0000:00000000       ___guard_iat_count         00000000     <absolute>
 0000:00000000       ___guard_iat_table         00000000     <absolute>
 0000:00000000       ___guard_longjmp_count     00000000     <absolute>
 0000:00000000       ___guard_longjmp_table     00000000     <absolute>
 0000:00000000       ___hybrid_auxiliary_delayload_iat 00000000     <absolute>
 0000:00000000       ___hybrid_auxiliary_delayload_iat_copy 00000000     <absolute>
 0000:00000000       ___hybrid_auxiliary_iat    00000000     <absolute>
 0000:00000000       ___hybrid_auxiliary_iat_copy 00000000     <absolute>
 0000:00000000       ___hybrid_code_map         00000000     <absolute>
 0000:00000000       ___hybrid_code_map_count   00000000     <absolute>
 0000:00000000       ___hybrid_image_info_bitfield 00000000     <absolute>
 0000:00000000       ___volatile_metadata       00000000     <absolute>
 0000:00000000       ___x64_code_ranges_to_entry_points 00000000     <absolute>
 0000:00000000       ___x64_code_ranges_to_entry_points_count 00000000     <absolute>
 0000:000000a6       ___safe_se_handler_count   000000a6     <absolute>
 0000:00000100       ___guard_flags             00000100     <absolute>
 0000:00000000       ___ImageBase               00400000     <linker-defined>
 0001:00005930       ??0Button@@QAE@HHPAVBaseEngine@@HHPBD@Z 00406930 f   Button.obj
 0001:00005a30       ?virtDraw@Button@@UAEXXZ   00406a30 f   Button.obj
 0001:00005af0       ?isValidPosition@Button@@QAE_NHH@Z 00406af0 f   Button.obj
 0001:00005c50       ??$?0$$V@?$_Compressed_pair@V?$allocator@D@std@@V?$_String_val@U?$_Simple_types@D@std@@@2@$00@std@@QAE@U_Zero_then_variadic_args_t@1@@Z 00406c50 f i Button.obj
 0001:00005c80       ??$?0$$V@?$_Compressed_pair@V?$allocator@U?$_Tree_node@U?$pair@$$CBV?$basic_string@DU?$char_traits@D@std@@V?$allocator@D@2@@std@@V?$shared_ptr@VRawImageData@@@2@@std@@PAX@std@@@std@@V?$_Tree_val@U?$_Tree_simple_types@U?$pair@$$CBV?$basic_string@DU?$char_traits@D@std@@V?$allocator@D@2@@std@@V?$shared_ptr@VRawImageData@@@2@@std@@@std@@@2@$00@std@@QAE@U_Zero_then_variadic_args_t@1@@Z 00406c80 f i Button.obj
 0001:00005cb0       ??$?0$$V@?$_Compressed_pair@V?$allocator@U?$_Tree_node@U?$pair@$$CBV?$basic_string@DU?$char_traits@D@std@@V?$allocator@D@2@@std@@V?$weak_ptr@VRawImageData@@@2@@std@@PAX@std@@@std@@V?$_Tree_val@U?$_Tree_simple_types@U?$pair@$$CBV?$basic_string@DU?$char_traits@D@std@@V?$allocator@D@2@@std@@V?$weak_ptr@VRawImageData@@@2@@std@@@std@@@2@$00@std@@QAE@U_Zero_then_variadic_args_t@1@@Z 00406cb0 f i Button.obj
 0001:00005ce0       ??$?0AAPAU?$_Tree_node@U?$pair@$$CBV?$basic_string@DU?$char_traits@D@std@@V?$allocator@D@2@@std@@V?$shared_ptr@VRawImageData@@@2@@std@@PAX@std@@_N$0A@@?$pair@PAU?$_Tree_node@U?$pair@$$CBV?$basic_string@DU?$char_traits@D@std@@V?$allocator@D@2@@std@@V?$shared_ptr@VRawImageData@@@2@@std@@PAX@std@@_N@std@@QAE@AAPAU?$_Tree_node@U?$pair@$$CBV?$basic_string@DU?$char_traits@D@std@@V?$allocator@D@2@@std@@V?$shared_ptr@VRawImageData@@@2@@std@@PAX@1@$$QA_N@Z 00406ce0 f i Button.obj
 0001:00005d30       ??$?0AAPAU?$_Tree_node@U?$pair@$$CBV?$basic_string@DU?$char_traits@D@std@@V?$allocator@D@2@@std@@V?$weak_ptr@VRawImageData@@@2@@std@@PAX@std@@_N$0A@@?$pair@PAU?$_Tree_node@U?$pair@$$CBV?$basic_string@DU?$char_traits@D@std@@V?$allocator@D@2@@std@@V?$weak_ptr@VRawImageData@@@2@@std@@PAX@std@@_N@std@@QAE@AAPAU?$_Tree_node@U?$pair@$$CBV?$basic_string@DU?$char_traits@D@std@@V?$allocator@D@2@@std@@V?$weak_ptr@VRawImageData@@@2@@std@@PAX@1@$$QA_N@Z 00406d30 f i Button.obj
 0001:00005d80       ??$?0AAV?$basic_string@DU?$char_traits@D@std@@V?$allocator@D@2@@std@@AAV?$shared_ptr@VRawImageData@@@1@$0A@@?$pair@V?$basic_string@DU?$char_traits@D@std@@V?$allocator@D@2@@std@@V?$shared_ptr@VRawImageData@@@2@@std@@QAE@AAV?$basic_string@DU?$char_traits@D@std@@V?$allocator@D@2@@1@AAV?$shared_ptr@VRawImageData@@@1@@Z 00406d80 f i Button.obj
 0001:00005dd0       ??$?0AAV?$basic_string@DU?$char_traits@D@std@@V?$allocator@D@2@@std@@AAV?$weak_ptr@VRawImageData@@@1@$0A@@?$pair@V?$basic_string@DU?$char_traits@D@std@@V?$allocator@D@2@@std@@V?$weak_ptr@VRawImageData@@@2@@std@@QAE@AAV?$basic_string@DU?$char_traits@D@std@@V?$allocator@D@2@@1@AAV?$weak_ptr@VRawImageData@@@1@@Z 00406dd0 f i Button.obj
 0001:00005e20       ??$?0ABU?$less@V?$basic_string@DU?$char_traits@D@std@@V?$allocator@D@2@@std@@@std@@U_Zero_then_variadic_args_t@1@@?$_Compressed_pair@U?$less@V?$basic_string@DU?$char_traits@D@std@@V?$allocator@D@2@@std@@@std@@V?$_Compressed_pair@V?$allocator@U?$_Tree_node@U?$pair@$$CBV?$basic_string@DU?$char_traits@D@std@@V?$allocator@D@2@@std@@V?$shared_ptr@VRawImageData@@@2@@std@@PAX@std@@@std@@V?$_Tree_val@U?$_Tree_simple_types@U?$pair@$$CBV?$basic_string@DU?$char_traits@D@std@@V?$allocator@D@2@@std@@V?$shared_ptr@VRawImageData@@@2@@std@@@std@@@2@$00@2@$00@std@@QAE@U_One_then_variadic_args_t@1@ABU?$less@V?$basic_string@DU?$char_traits@D@std@@V?$allocator@D@2@@std@@@1@$$QAU_Zero_then_variadic_args_t@1@@Z 00406e20 f i Button.obj
 0001:00005e70       ??$?0ABU?$less@V?$basic_string@DU?$char_traits@D@std@@V?$allocator@D@2@@std@@@std@@U_Zero_then_variadic_args_t@1@@?$_Compressed_pair@U?$less@V?$basic_string@DU?$char_traits@D@std@@V?$allocator@D@2@@std@@@std@@V?$_Compressed_pair@V?$allocator@U?$_Tree_node@U?$pair@$$CBV?$basic_string@DU?$char_traits@D@std@@V?$allocator@D@2@@std@@V?$weak_ptr@VRawImageData@@@2@@std@@PAX@std@@@std@@V?$_Tree_val@U?$_Tree_simple_types@U?$pair@$$CBV?$basic_string@DU?$char_traits@D@std@@V?$allocator@D@2@@std@@V?$weak_ptr@VRawImageData@@@2@@std@@@std@@@2@$00@2@$00@std@@QAE@U_One_then_variadic_args_t@1@ABU?$less@V?$basic_string@DU?$char_traits@D@std@@V?$allocator@D@2@@std@@@1@$$QAU_Zero_then_variadic_args_t@1@@Z 00406e70 f i Button.obj
 0001:00005ec0       ??$?0D@?$allocator@U_Container_proxy@std@@@std@@QAE@ABV?$allocator@D@1@@Z 00406ec0 f i Button.obj
 0001:00005ee0       ??$?0PAU?$_Tree_node@U?$pair@$$CBV?$basic_string@DU?$char_traits@D@std@@V?$allocator@D@2@@std@@V?$shared_ptr@VRawImageData@@@2@@std@@PAX@std@@_N$0A@@?$pair@PAU?$_Tree_node@U?$pair@$$CBV?$basic_string@DU?$char_traits@D@std@@V?$allocator@D@2@@std@@V?$shared_ptr@VRawImageData@@@2@@std@@PAX@std@@_N@std@@QAE@$$QAPAU?$_Tree_node@U?$pair@$$CBV?$basic_string@DU?$char_traits@D@std@@V?$allocator@D@2@@std@@V?$shared_ptr@VRawImageData@@@2@@std@@PAX@1@$$QA_N@Z 00406ee0 f i Button.obj
 0001:00005f30       ??$?0PAU?$_Tree_node@U?$pair@$$CBV?$basic_string@DU?$char_traits@D@std@@V?$allocator@D@2@@std@@V?$weak_ptr@VRawImageData@@@2@@std@@PAX@std@@_N$0A@@?$pair@PAU?$_Tree_node@U?$pair@$$CBV?$basic_string@DU?$char_traits@D@std@@V?$allocator@D@2@@std@@V?$weak_ptr@VRawImageData@@@2@@std@@PAX@std@@_N@std@@QAE@$$QAPAU?$_Tree_node@U?$pair@$$CBV?$basic_string@DU?$char_traits@D@std@@V?$allocator@D@2@@std@@V?$weak_ptr@VRawImageData@@@2@@std@@PAX@1@$$QA_N@Z 00406f30 f i Button.obj
 0001:00005f80       ??$?0U?$_Tree_node@U?$pair@$$CBV?$basic_string@DU?$char_traits@D@std@@V?$allocator@D@2@@std@@V?$shared_ptr@VRawImageData@@@2@@std@@PAX@std@@@?$allocator@U_Container_proxy@std@@@std@@QAE@ABV?$allocator@U?$_Tree_node@U?$pair@$$CBV?$basic_string@DU?$char_traits@D@std@@V?$allocator@D@2@@std@@V?$shared_ptr@VRawImageData@@@2@@std@@PAX@std@@@1@@Z 00406f80 f i Button.obj
 0001:00005fa0       ??$?0U?$_Tree_node@U?$pair@$$CBV?$basic_string@DU?$char_traits@D@std@@V?$allocator@D@2@@std@@V?$weak_ptr@VRawImageData@@@2@@std@@PAX@std@@@?$allocator@U_Container_proxy@std@@@std@@QAE@ABV?$allocator@U?$_Tree_node@U?$pair@$$CBV?$basic_string@DU?$char_traits@D@std@@V?$allocator@D@2@@std@@V?$weak_ptr@VRawImageData@@@2@@std@@PAX@std@@@1@@Z 00406fa0 f i Button.obj
 0001:00005fc0       ??$?0U?$pair@V?$basic_string@DU?$char_traits@D@std@@V?$allocator@D@2@@std@@V?$shared_ptr@VRawImageData@@@2@@std@@@?$_Tree_temp_node@V?$allocator@U?$_Tree_node@U?$pair@$$CBV?$basic_string@DU?$char_traits@D@std@@V?$allocator@D@2@@std@@V?$shared_ptr@VRawImageData@@@2@@std@@PAX@std@@@std@@@std@@QAE@AAV?$allocator@U?$_Tree_node@U?$pair@$$CBV?$basic_string@DU?$char_traits@D@std@@V?$allocator@D@2@@std@@V?$shared_ptr@VRawImageData@@@2@@std@@PAX@std@@@1@PAU?$_Tree_node@U?$pair@$$CBV?$basic_string@DU?$char_traits@D@std@@V?$allocator@D@2@@std@@V?$shared_ptr@VRawImageData@@@2@@std@@PAX@1@$$QAU?$pair@V?$basic_string@DU?$char_traits@D@std@@V?$allocator@D@2@@std@@V?$shared_ptr@VRawImageData@@@2@@1@@Z 00406fc0 f i Button.obj
 0001:000060d0       ??$?0U?$pair@V?$basic_string@DU?$char_traits@D@std@@V?$allocator@D@2@@std@@V?$weak_ptr@VRawImageData@@@2@@std@@@?$_Tree_temp_node@V?$allocator@U?$_Tree_node@U?$pair@$$CBV?$basic_string@DU?$char_traits@D@std@@V?$allocator@D@2@@std@@V?$weak_ptr@VRawImageData@@@2@@std@@PAX@std@@@std@@@std@@QAE@AAV?$allocator@U?$_Tree_node@U?$pair@$$CBV?$basic_string@DU?$char_traits@D@std@@V?$allocator@D@2@@std@@V?$weak_ptr@VRawImageData@@@2@@std@@PAX@std@@@1@PAU?$_Tree_node@U?$pair@$$CBV?$basic_string@DU?$char_traits@D@std@@V?$allocator@D@2@@std@@V?$weak_ptr@VRawImageData@@@2@@std@@PAX@1@$$QAU?$pair@V?$basic_string@DU?$char_traits@D@std@@V?$allocator@D@2@@std@@V?$weak_ptr@VRawImageData@@@2@@1@@Z 004070d0 f i Button.obj
 0001:000061e0       ??$?0V?$_Tree_iterator@V?$_Tree_val@U?$_Tree_simple_types@U?$pair@$$CBV?$basic_string@DU?$char_traits@D@std@@V?$allocator@D@2@@std@@V?$shared_ptr@VRawImageData@@@2@@std@@@std@@@std@@@std@@AB_N$0A@@?$pair@V?$_Tree_iterator@V?$_Tree_val@U?$_Tree_simple_types@U?$pair@$$CBV?$basic_string@DU?$char_traits@D@std@@V?$allocator@D@2@@std@@V?$shared_ptr@VRawImageData@@@2@@std@@@std@@@std@@@std@@_N@std@@QAE@$$QAV?$_Tree_iterator@V?$_Tree_val@U?$_Tree_simple_types@U?$pair@$$CBV?$basic_string@DU?$char_traits@D@std@@V?$allocator@D@2@@std@@V?$shared_ptr@VRawImageData@@@2@@std@@@std@@@std@@@1@AB_N@Z 004071e0 f i Button.obj
 0001:00006230       ??$?0V?$_Tree_iterator@V?$_Tree_val@U?$_Tree_simple_types@U?$pair@$$CBV?$basic_string@DU?$char_traits@D@std@@V?$allocator@D@2@@std@@V?$weak_ptr@VRawImageData@@@2@@std@@@std@@@std@@@std@@AB_N$0A@@?$pair@V?$_Tree_iterator@V?$_Tree_val@U?$_Tree_simple_types@U?$pair@$$CBV?$basic_string@DU?$char_traits@D@std@@V?$allocator@D@2@@std@@V?$weak_ptr@VRawImageData@@@2@@std@@@std@@@std@@@std@@_N@std@@QAE@$$QAV?$_Tree_iterator@V?$_Tree_val@U?$_Tree_simple_types@U?$pair@$$CBV?$basic_string@DU?$char_traits@D@std@@V?$allocator@D@2@@std@@V?$weak_ptr@VRawImageData@@@2@@std@@@std@@@std@@@1@AB_N@Z 00407230 f i Button.obj
 0001:00006280       ??$?0V?$allocator@D@std@@$$V@?$_Compressed_pair@V?$allocator@D@std@@V?$_String_val@U?$_Simple_types@D@std@@@2@$00@std@@QAE@U_One_then_variadic_args_t@1@$$QAV?$allocator@D@1@@Z 00407280 f i Button.obj
 0001:000062b0       ??$?0V?$basic_string@DU?$char_traits@D@std@@V?$allocator@D@2@@std@@V?$shared_ptr@VRawImageData@@@1@$0A@@?$pair@$$CBV?$basic_string@DU?$char_traits@D@std@@V?$allocator@D@2@@std@@V?$shared_ptr@VRawImageData@@@2@@std@@QAE@$$QAU?$pair@V?$basic_string@DU?$char_traits@D@std@@V?$allocator@D@2@@std@@V?$shared_ptr@VRawImageData@@@2@@1@@Z 004072b0 f i Button.obj
 0001:00006300       ??$?0V?$basic_string@DU?$char_traits@D@std@@V?$allocator@D@2@@std@@V?$weak_ptr@VRawImageData@@@1@$0A@@?$pair@$$CBV?$basic_string@DU?$char_traits@D@std@@V?$allocator@D@2@@std@@V?$weak_ptr@VRawImageData@@@2@@std@@QAE@$$QAU?$pair@V?$basic_string@DU?$char_traits@D@std@@V?$allocator@D@2@@std@@V?$weak_ptr@VRawImageData@@@2@@1@@Z 00407300 f i Button.obj
 0001:00006350       ??$?0VRawImageData@@$0A@@?$shared_ptr@VRawImageData@@@std@@QAE@PAVRawImageData@@@Z 00407350 f i Button.obj
 0001:00006440       ??$?0VRawImageData@@$0A@@?$weak_ptr@VRawImageData@@@std@@QAE@ABV?$shared_ptr@VRawImageData@@@1@@Z 00407440 f i Button.obj
 0001:00006470       ??$?6DU?$char_traits@D@std@@V?$allocator@D@1@@std@@YAAAV?$basic_ostream@DU?$char_traits@D@std@@@0@AAV10@ABV?$basic_string@DU?$char_traits@D@std@@V?$allocator@D@2@@0@@Z 00407470 f i Button.obj
 0001:000064a0       ??$?6U?$char_traits@D@std@@@std@@YAAAV?$basic_ostream@DU?$char_traits@D@std@@@0@AAV10@PBD@Z 004074a0 f i Button.obj
 0001:00006840       ??$?9VRawImageData@@@std@@YA_NABV?$shared_ptr@VRawImageData@@@0@$$T@Z 00407840 f i Button.obj
 0001:00006880       ??$?CVRawImageData@@$0A@@?$shared_ptr@VRawImageData@@@std@@QBEPAVRawImageData@@XZ 00407880 f i Button.obj
 0001:000068a0       ??$?MDU?$char_traits@D@std@@V?$allocator@D@1@@std@@YA_NABV?$basic_string@DU?$char_traits@D@std@@V?$allocator@D@2@@0@0@Z 004078a0 f i Button.obj
 0001:000068e0       ??$_Alloc_proxy@V?$allocator@U_Container_proxy@std@@@std@@@_Container_base12@std@@QAEX$$QAV?$allocator@U_Container_proxy@std@@@1@@Z 004078e0 f i Button.obj
 0001:00006940       ??$_Allocate@$07U_Default_allocate_traits@std@@$0A@@std@@YAPAXI@Z 00407940 f i Button.obj
 0001:00006980       ??$_Allocate_at_least_helper@V?$allocator@D@std@@@std@@YAPADAAV?$allocator@D@0@AAI@Z 00407980 f i Button.obj
 0001:000069a0       ??$_Allocate_for_capacity@$0A@@?$basic_string@DU?$char_traits@D@std@@V?$allocator@D@2@@std@@CAPADAAV?$allocator@D@1@AAI@Z 004079a0 f i Button.obj
 0001:000069f0       ??$_Allocate_manually_vector_aligned@U_Default_allocate_traits@std@@@std@@YAPAXI@Z 004079f0 f i Button.obj
 0001:00006ae0       ??$_Buyheadnode@V?$allocator@U?$_Tree_node@U?$pair@$$CBV?$basic_string@DU?$char_traits@D@std@@V?$allocator@D@2@@std@@V?$shared_ptr@VRawImageData@@@2@@std@@PAX@std@@@std@@@?$_Tree_node@U?$pair@$$CBV?$basic_string@DU?$char_traits@D@std@@V?$allocator@D@2@@std@@V?$shared_ptr@VRawImageData@@@2@@std@@PAX@std@@SAPAU01@AAV?$allocator@U?$_Tree_node@U?$pair@$$CBV?$basic_string@DU?$char_traits@D@std@@V?$allocator@D@2@@std@@V?$shared_ptr@VRawImageData@@@2@@std@@PAX@std@@@1@@Z 00407ae0 f i Button.obj
 0001:00006b60       ??$_Buyheadnode@V?$allocator@U?$_Tree_node@U?$pair@$$CBV?$basic_string@DU?$char_traits@D@std@@V?$allocator@D@2@@std@@V?$weak_ptr@VRawImageData@@@2@@std@@PAX@std@@@std@@@?$_Tree_node@U?$pair@$$CBV?$basic_string@DU?$char_traits@D@std@@V?$allocator@D@2@@std@@V?$weak_ptr@VRawImageData@@@2@@std@@PAX@std@@SAPAU01@AAV?$allocator@U?$_Tree_node@U?$pair@$$CBV?$basic_string@DU?$char_traits@D@std@@V?$allocator@D@2@@std@@V?$weak_ptr@VRawImageData@@@2@@std@@PAX@std@@@1@@Z 00407b60 f i Button.obj
 0001:00006be0       ??$_Construct@$00PBD@?$basic_string@DU?$char_traits@D@std@@V?$allocator@D@2@@std@@AAEXQBDI@Z 00407be0 f i Button.obj
 0001:00006de0       ??$_Construct@$01PBD@?$basic_string@DU?$char_traits@D@std@@V?$allocator@D@2@@std@@AAEXQBDI@Z 00407de0 f i Button.obj
 0001:00006f90       ??$_Construct_from_weak@VRawImageData@@@?$_Ptr_base@VRawImageData@@@std@@IAE_NABV?$weak_ptr@VRawImageData@@@1@@Z 00407f90 f i Button.obj
 0001:00006ff0       ??$_Construct_in_place@PADAAPAD@std@@YAXAAPAD0@Z 00407ff0 f i Button.obj
 0001:00007040       ??$_Construct_in_place@PADABQAD@std@@YAXAAPADABQAD@Z 00408040 f i Button.obj
 0001:00007090       ??$_Construct_in_place@PAU?$_Tree_node@U?$pair@$$CBV?$basic_string@DU?$char_traits@D@std@@V?$allocator@D@2@@std@@V?$shared_ptr@VRawImageData@@@2@@std@@PAX@std@@AAPAU12@@std@@YAXAAPAU?$_Tree_node@U?$pair@$$CBV?$basic_string@DU?$char_traits@D@std@@V?$allocator@D@2@@std@@V?$shared_ptr@VRawImageData@@@2@@std@@PAX@0@0@Z 00408090 f i Button.obj
 0001:000070e0       ??$_Construct_in_place@PAU?$_Tree_node@U?$pair@$$CBV?$basic_string@DU?$char_traits@D@std@@V?$allocator@D@2@@std@@V?$shared_ptr@VRawImageData@@@2@@std@@PAX@std@@ABQAU12@@std@@YAXAAPAU?$_Tree_node@U?$pair@$$CBV?$basic_string@DU?$char_traits@D@std@@V?$allocator@D@2@@std@@V?$shared_ptr@VRawImageData@@@2@@std@@PAX@0@ABQAU10@@Z 004080e0 f i Button.obj
 0001:00007130       ??$_Construct_in_place@PAU?$_Tree_node@U?$pair@$$CBV?$basic_string@DU?$char_traits@D@std@@V?$allocator@D@2@@std@@V?$weak_ptr@VRawImageData@@@2@@std@@PAX@std@@AAPAU12@@std@@YAXAAPAU?$_Tree_node@U?$pair@$$CBV?$basic_string@DU?$char_traits@D@std@@V?$allocator@D@2@@std@@V?$weak_ptr@VRawImageData@@@2@@std@@PAX@0@0@Z 00408130 f i Button.obj
 0001:00007180       ??$_Construct_in_place@PAU?$_Tree_node@U?$pair@$$CBV?$basic_string@DU?$char_traits@D@std@@V?$allocator@D@2@@std@@V?$weak_ptr@VRawImageData@@@2@@std@@PAX@std@@ABQAU12@@std@@YAXAAPAU?$_Tree_node@U?$pair@$$CBV?$basic_string@DU?$char_traits@D@std@@V?$allocator@D@2@@std@@V?$weak_ptr@VRawImageData@@@2@@std@@PAX@0@ABQAU10@@Z 00408180 f i Button.obj
 0001:000071d0       ??$_Construct_in_place@U_Container_proxy@std@@PAU_Container_base12@2@@std@@YAXAAU_Container_proxy@0@$$QAPAU_Container_base12@0@@Z 004081d0 f i Button.obj
 0001:00007220       ??$_Convert_size@II@std@@YAII@Z 00408220 f i Button.obj
 0001:00007230       ??$_Copy_construct_from@VRawImageData@@@?$_Ptr_base@VRawImageData@@@std@@IAEXABV?$shared_ptr@VRawImageData@@@1@@Z 00408230 f i Button.obj
 0001:00007270       ??$_Deallocate@$07$0A@@std@@YAXPAXI@Z 00408270 f i Button.obj
 0001:000072f0       ??$_Deallocate_plain@V?$allocator@U_Container_proxy@std@@@std@@@std@@YAXAAV?$allocator@U_Container_proxy@std@@@0@QAU_Container_proxy@0@@Z 004082f0 f i Button.obj
 0001:00007350       ??$_Debug_lt_pred@ABU?$less@V?$basic_string@DU?$char_traits@D@std@@V?$allocator@D@2@@std@@@std@@ABV?$basic_string@DU?$char_traits@D@std@@V?$allocator@D@2@@2@ABV32@$0A@@std@@YA_NABU?$less@V?$basic_string@DU?$char_traits@D@std@@V?$allocator@D@2@@std@@@0@ABV?$basic_string@DU?$char_traits@D@std@@V?$allocator@D@2@@0@1@Z 00408350 f i Button.obj
 0001:00007410       ??$_Delete_plain_internal@V?$allocator@U_Container_proxy@std@@@std@@@std@@YAXAAV?$allocator@U_Container_proxy@std@@@0@QAU_Container_proxy@0@@Z 00408410 f i Button.obj
 0001:00007430       ??$_Destroy_in_place@PAD@std@@YAXAAPAD@Z 00408430 f i Button.obj
 0001:00007440       ??$_Destroy_in_place@PAU?$_Tree_node@U?$pair@$$CBV?$basic_string@DU?$char_traits@D@std@@V?$allocator@D@2@@std@@V?$shared_ptr@VRawImageData@@@2@@std@@PAX@std@@@std@@YAXAAPAU?$_Tree_node@U?$pair@$$CBV?$basic_string@DU?$char_traits@D@std@@V?$allocator@D@2@@std@@V?$shared_ptr@VRawImageData@@@2@@std@@PAX@0@@Z 00408440 f i Button.obj
 0001:00007450       ??$_Destroy_in_place@PAU?$_Tree_node@U?$pair@$$CBV?$basic_string@DU?$char_traits@D@std@@V?$allocator@D@2@@std@@V?$weak_ptr@VRawImageData@@@2@@std@@PAX@std@@@std@@YAXAAPAU?$_Tree_node@U?$pair@$$CBV?$basic_string@DU?$char_traits@D@std@@V?$allocator@D@2@@std@@V?$weak_ptr@VRawImageData@@@2@@std@@PAX@0@@Z 00408450 f i Button.obj
 0001:00007460       ??$_Emplace@U?$pair@V?$basic_string@DU?$char_traits@D@std@@V?$allocator@D@2@@std@@V?$shared_ptr@VRawImageData@@@2@@std@@@?$_Tree@V?$_Tmap_traits@V?$basic_string@DU?$char_traits@D@std@@V?$allocator@D@2@@std@@V?$shared_ptr@VRawImageData@@@2@U?$less@V?$basic_string@DU?$char_traits@D@std@@V?$allocator@D@2@@std@@@2@V?$allocator@U?$pair@$$CBV?$basic_string@DU?$char_traits@D@std@@V?$allocator@D@2@@std@@V?$shared_ptr@VRawImageData@@@2@@std@@@2@$0A@@std@@@std@@IAE?AU?$pair@PAU?$_Tree_node@U?$pair@$$CBV?$basic_string@DU?$char_traits@D@std@@V?$allocator@D@2@@std@@V?$shared_ptr@VRawImageData@@@2@@std@@PAX@std@@_N@1@$$QAU?$pair@V?$basic_string@DU?$char_traits@D@std@@V?$allocator@D@2@@std@@V?$shared_ptr@VRawImageData@@@2@@1@@Z 00408460 f i Button.obj
 0001:00007590       ??$_Emplace@U?$pair@V?$basic_string@DU?$char_traits@D@std@@V?$allocator@D@2@@std@@V?$weak_ptr@VRawImageData@@@2@@std@@@?$_Tree@V?$_Tmap_traits@V?$basic_string@DU?$char_traits@D@std@@V?$allocator@D@2@@std@@V?$weak_ptr@VRawImageData@@@2@U?$less@V?$basic_string@DU?$char_traits@D@std@@V?$allocator@D@2@@std@@@2@V?$allocator@U?$pair@$$CBV?$basic_string@DU?$char_traits@D@std@@V?$allocator@D@2@@std@@V?$weak_ptr@VRawImageData@@@2@@std@@@2@$0A@@std@@@std@@IAE?AU?$pair@PAU?$_Tree_node@U?$pair@$$CBV?$basic_string@DU?$char_traits@D@std@@V?$allocator@D@2@@std@@V?$weak_ptr@VRawImageData@@@2@@std@@PAX@std@@_N@1@$$QAU?$pair@V?$basic_string@DU?$char_traits@D@std@@V?$allocator@D@2@@std@@V?$weak_ptr@VRawImageData@@@2@@1@@Z 00408590 f i Button.obj
 0001:000076c0       ??$_Erase_head@V?$allocator@U?$_Tree_node@U?$pair@$$CBV?$basic_string@DU?$char_traits@D@std@@V?$allocator@D@2@@std@@V?$weak_ptr@VRawImageData@@@2@@std@@PAX@std@@@std@@@?$_Tree_val@U?$_Tree_simple_types@U?$pair@$$CBV?$basic_string@DU?$char_traits@D@std@@V?$allocator@D@2@@std@@V?$weak_ptr@VRawImageData@@@2@@std@@@std@@@std@@QAEXAAV?$allocator@U?$_Tree_node@U?$pair@$$CBV?$basic_string@DU?$char_traits@D@std@@V?$allocator@D@2@@std@@V?$weak_ptr@VRawImageData@@@2@@std@@PAX@std@@@1@@Z 004086c0 f i Button.obj
 0001:00007710       ??$_Erase_tree@V?$allocator@U?$_Tree_node@U?$pair@$$CBV?$basic_string@DU?$char_traits@D@std@@V?$allocator@D@2@@std@@V?$weak_ptr@VRawImageData@@@2@@std@@PAX@std@@@std@@@?$_Tree_val@U?$_Tree_simple_types@U?$pair@$$CBV?$basic_string@DU?$char_traits@D@std@@V?$allocator@D@2@@std@@V?$weak_ptr@VRawImageData@@@2@@std@@@std@@@std@@QAEXAAV?$allocator@U?$_Tree_node@U?$pair@$$CBV?$basic_string@DU?$char_traits@D@std@@V?$allocator@D@2@@std@@V?$weak_ptr@VRawImageData@@@2@@std@@PAX@std@@@1@PAU?$_Tree_node@U?$pair@$$CBV?$basic_string@DU?$char_traits@D@std@@V?$allocator@D@2@@std@@V?$weak_ptr@VRawImageData@@@2@@std@@PAX@1@@Z 00408710 f i Button.obj
 0001:00007770       ??$_Find@V?$basic_string@DU?$char_traits@D@std@@V?$allocator@D@2@@std@@@?$_Tree@V?$_Tmap_traits@V?$basic_string@DU?$char_traits@D@std@@V?$allocator@D@2@@std@@V?$weak_ptr@VRawImageData@@@2@U?$less@V?$basic_string@DU?$char_traits@D@std@@V?$allocator@D@2@@std@@@2@V?$allocator@U?$pair@$$CBV?$basic_string@DU?$char_traits@D@std@@V?$allocator@D@2@@std@@V?$weak_ptr@VRawImageData@@@2@@std@@@2@$0A@@std@@@std@@ABEPAU?$_Tree_node@U?$pair@$$CBV?$basic_string@DU?$char_traits@D@std@@V?$allocator@D@2@@std@@V?$weak_ptr@VRawImageData@@@2@@std@@PAX@1@ABV?$basic_string@DU?$char_traits@D@std@@V?$allocator@D@2@@1@@Z 00408770 f i Button.obj
 0001:000077d0       ??$_Find_lower_bound@V?$basic_string@DU?$char_traits@D@std@@V?$allocator@D@2@@std@@@?$_Tree@V?$_Tmap_traits@V?$basic_string@DU?$char_traits@D@std@@V?$allocator@D@2@@std@@V?$shared_ptr@VRawImageData@@@2@U?$less@V?$basic_string@DU?$char_traits@D@std@@V?$allocator@D@2@@std@@@2@V?$allocator@U?$pair@$$CBV?$basic_string@DU?$char_traits@D@std@@V?$allocator@D@2@@std@@V?$shared_ptr@VRawImageData@@@2@@std@@@2@$0A@@std@@@std@@IBE?AU?$_Tree_find_result@PAU?$_Tree_node@U?$pair@$$CBV?$basic_string@DU?$char_traits@D@std@@V?$allocator@D@2@@std@@V?$shared_ptr@VRawImageData@@@2@@std@@PAX@std@@@1@ABV?$basic_string@DU?$char_traits@D@std@@V?$allocator@D@2@@1@@Z 004087d0 f i Button.obj
 0001:000078c0       ??$_Find_lower_bound@V?$basic_string@DU?$char_traits@D@std@@V?$allocator@D@2@@std@@@?$_Tree@V?$_Tmap_traits@V?$basic_string@DU?$char_traits@D@std@@V?$allocator@D@2@@std@@V?$weak_ptr@VRawImageData@@@2@U?$less@V?$basic_string@DU?$char_traits@D@std@@V?$allocator@D@2@@std@@@2@V?$allocator@U?$pair@$$CBV?$basic_string@DU?$char_traits@D@std@@V?$allocator@D@2@@std@@V?$weak_ptr@VRawImageData@@@2@@std@@@2@$0A@@std@@@std@@IBE?AU?$_Tree_find_result@PAU?$_Tree_node@U?$pair@$$CBV?$basic_string@DU?$char_traits@D@std@@V?$allocator@D@2@@std@@V?$weak_ptr@VRawImageData@@@2@@std@@PAX@std@@@1@ABV?$basic_string@DU?$char_traits@D@std@@V?$allocator@D@2@@1@@Z 004088c0 f i Button.obj
 0001:000079b0       ??$_Freenode0@V?$allocator@U?$_Tree_node@U?$pair@$$CBV?$basic_string@DU?$char_traits@D@std@@V?$allocator@D@2@@std@@V?$weak_ptr@VRawImageData@@@2@@std@@PAX@std@@@std@@@?$_Tree_node@U?$pair@$$CBV?$basic_string@DU?$char_traits@D@std@@V?$allocator@D@2@@std@@V?$weak_ptr@VRawImageData@@@2@@std@@PAX@std@@SAXAAV?$allocator@U?$_Tree_node@U?$pair@$$CBV?$basic_string@DU?$char_traits@D@std@@V?$allocator@D@2@@std@@V?$weak_ptr@VRawImageData@@@2@@std@@PAX@std@@@1@PAU01@@Z 004089b0 f i Button.obj
 0001:00007a40       ??$_Freenode@V?$allocator@U?$_Tree_node@U?$pair@$$CBV?$basic_string@DU?$char_traits@D@std@@V?$allocator@D@2@@std@@V?$weak_ptr@VRawImageData@@@2@@std@@PAX@std@@@std@@@?$_Tree_node@U?$pair@$$CBV?$basic_string@DU?$char_traits@D@std@@V?$allocator@D@2@@std@@V?$weak_ptr@VRawImageData@@@2@@std@@PAX@std@@SAXAAV?$allocator@U?$_Tree_node@U?$pair@$$CBV?$basic_string@DU?$char_traits@D@std@@V?$allocator@D@2@@std@@V?$weak_ptr@VRawImageData@@@2@@std@@PAX@std@@@1@PAU01@@Z 00408a40 f i Button.obj
 0001:00007ac0       ??$_Get_size_of_n@$00@std@@YAII@Z 00408ac0 f i Button.obj
 0001:00007ae0       ??$_Get_size_of_n@$07@std@@YAII@Z 00408ae0 f i Button.obj
 0001:00007b20       ??$_Get_size_of_n@$0DE@@std@@YAII@Z 00408b20 f i Button.obj
 0001:00007b50       ??$_Insert_string@DU?$char_traits@D@std@@I@std@@YAAAV?$basic_ostream@DU?$char_traits@D@std@@@0@AAV10@QBDI@Z 00408b50 f i Button.obj
 0001:00007e90       ??$_Kfn@$$CBV?$basic_string@DU?$char_traits@D@std@@V?$allocator@D@2@@std@@V?$shared_ptr@VRawImageData@@@2@@?$_Tmap_traits@V?$basic_string@DU?$char_traits@D@std@@V?$allocator@D@2@@std@@V?$shared_ptr@VRawImageData@@@2@U?$less@V?$basic_string@DU?$char_traits@D@std@@V?$allocator@D@2@@std@@@2@V?$allocator@U?$pair@$$CBV?$basic_string@DU?$char_traits@D@std@@V?$allocator@D@2@@std@@V?$shared_ptr@VRawImageData@@@2@@std@@@2@$0A@@std@@SAABV?$basic_string@DU?$char_traits@D@std@@V?$allocator@D@2@@1@ABU?$pair@$$CBV?$basic_string@DU?$char_traits@D@std@@V?$allocator@D@2@@std@@V?$shared_ptr@VRawImageData@@@2@@1@@Z 00408e90 f i Button.obj
 0001:00007ea0       ??$_Kfn@$$CBV?$basic_string@DU?$char_traits@D@std@@V?$allocator@D@2@@std@@V?$weak_ptr@VRawImageData@@@2@@?$_Tmap_traits@V?$basic_string@DU?$char_traits@D@std@@V?$allocator@D@2@@std@@V?$weak_ptr@VRawImageData@@@2@U?$less@V?$basic_string@DU?$char_traits@D@std@@V?$allocator@D@2@@std@@@2@V?$allocator@U?$pair@$$CBV?$basic_string@DU?$char_traits@D@std@@V?$allocator@D@2@@std@@V?$weak_ptr@VRawImageData@@@2@@std@@@2@$0A@@std@@SAABV?$basic_string@DU?$char_traits@D@std@@V?$allocator@D@2@@1@ABU?$pair@$$CBV?$basic_string@DU?$char_traits@D@std@@V?$allocator@D@2@@std@@V?$weak_ptr@VRawImageData@@@2@@1@@Z 00408ea0 f i Button.obj
 0001:00007eb0       ??$_Lower_bound_duplicate@V?$basic_string@DU?$char_traits@D@std@@V?$allocator@D@2@@std@@@?$_Tree@V?$_Tmap_traits@V?$basic_string@DU?$char_traits@D@std@@V?$allocator@D@2@@std@@V?$shared_ptr@VRawImageData@@@2@U?$less@V?$basic_string@DU?$char_traits@D@std@@V?$allocator@D@2@@std@@@2@V?$allocator@U?$pair@$$CBV?$basic_string@DU?$char_traits@D@std@@V?$allocator@D@2@@std@@V?$shared_ptr@VRawImageData@@@2@@std@@@2@$0A@@std@@@std@@IBE_NQAU?$_Tree_node@U?$pair@$$CBV?$basic_string@DU?$char_traits@D@std@@V?$allocator@D@2@@std@@V?$shared_ptr@VRawImageData@@@2@@std@@PAX@1@ABV?$basic_string@DU?$char_traits@D@std@@V?$allocator@D@2@@1@@Z 00408eb0 f i Button.obj
 0001:00007f20       ??$_Lower_bound_duplicate@V?$basic_string@DU?$char_traits@D@std@@V?$allocator@D@2@@std@@@?$_Tree@V?$_Tmap_traits@V?$basic_string@DU?$char_traits@D@std@@V?$allocator@D@2@@std@@V?$weak_ptr@VRawImageData@@@2@U?$less@V?$basic_string@DU?$char_traits@D@std@@V?$allocator@D@2@@std@@@2@V?$allocator@U?$pair@$$CBV?$basic_string@DU?$char_traits@D@std@@V?$allocator@D@2@@std@@V?$weak_ptr@VRawImageData@@@2@@std@@@2@$0A@@std@@@std@@IBE_NQAU?$_Tree_node@U?$pair@$$CBV?$basic_string@DU?$char_traits@D@std@@V?$allocator@D@2@@std@@V?$weak_ptr@VRawImageData@@@2@@std@@PAX@1@ABV?$basic_string@DU?$char_traits@D@std@@V?$allocator@D@2@@1@@Z 00408f20 f i Button.obj
 0001:00007f90       ??$_Move_construct_from@VRawImageData@@@?$_Ptr_base@VRawImageData@@@std@@IAEX$$QAV01@@Z 00408f90 f i Button.obj
 0001:00007fe0       ??$_Set_ptr_rep_and_enable_shared@VRawImageData@@@?$shared_ptr@VRawImageData@@@std@@AAEXQAVRawImageData@@QAV_Ref_count_base@1@@Z 00408fe0 f i Button.obj
 0001:00008010       ??$_Traits_compare@U?$char_traits@D@std@@@std@@YAHQBDI0I@Z 00409010 f i Button.obj
 0001:00008080       ??$_Unfancy@D@std@@YAPADPAD@Z 00409080 f i Button.obj
 0001:00008090       ??$_Unfancy@U_Container_proxy@std@@@std@@YAPAU_Container_proxy@0@PAU10@@Z 00409090 f i Button.obj
 0001:000080a0       ??$_Weakly_construct_from@VRawImageData@@@?$_Ptr_base@VRawImageData@@@std@@IAEXABV01@@Z 004090a0 f i Button.obj
 0001:000080f0       ??$addressof@$$CBV?$_Tree_val@U?$_Tree_simple_types@U?$pair@$$CBV?$basic_string@DU?$char_traits@D@std@@V?$allocator@D@2@@std@@V?$shared_ptr@VRawImageData@@@2@@std@@@std@@@std@@@std@@YAPBV?$_Tree_val@U?$_Tree_simple_types@U?$pair@$$CBV?$basic_string@DU?$char_traits@D@std@@V?$allocator@D@2@@std@@V?$shared_ptr@VRawImageData@@@2@@std@@@std@@@0@ABV10@@Z 004090f0 f i Button.obj
 0001:00008100       ??$addressof@$$CBV?$_Tree_val@U?$_Tree_simple_types@U?$pair@$$CBV?$basic_string@DU?$char_traits@D@std@@V?$allocator@D@2@@std@@V?$weak_ptr@VRawImageData@@@2@@std@@@std@@@std@@@std@@YAPBV?$_Tree_val@U?$_Tree_simple_types@U?$pair@$$CBV?$basic_string@DU?$char_traits@D@std@@V?$allocator@D@2@@std@@V?$weak_ptr@VRawImageData@@@2@@std@@@std@@@0@ABV10@@Z 00409100 f i Button.obj
 0001:00008110       ??$addressof@PAD@std@@YAPAPADAAPAD@Z 00409110 f i Button.obj
 0001:00008120       ??$addressof@PAU?$_Tree_node@U?$pair@$$CBV?$basic_string@DU?$char_traits@D@std@@V?$allocator@D@2@@std@@V?$shared_ptr@VRawImageData@@@2@@std@@PAX@std@@@std@@YAPAPAU?$_Tree_node@U?$pair@$$CBV?$basic_string@DU?$char_traits@D@std@@V?$allocator@D@2@@std@@V?$shared_ptr@VRawImageData@@@2@@std@@PAX@0@AAPAU10@@Z 00409120 f i Button.obj
 0001:00008130       ??$addressof@PAU?$_Tree_node@U?$pair@$$CBV?$basic_string@DU?$char_traits@D@std@@V?$allocator@D@2@@std@@V?$weak_ptr@VRawImageData@@@2@@std@@PAX@std@@@std@@YAPAPAU?$_Tree_node@U?$pair@$$CBV?$basic_string@DU?$char_traits@D@std@@V?$allocator@D@2@@std@@V?$weak_ptr@VRawImageData@@@2@@std@@PAX@0@AAPAU10@@Z 00409130 f i Button.obj
 0001:00008140       ??$addressof@U?$pair@$$CBV?$basic_string@DU?$char_traits@D@std@@V?$allocator@D@2@@std@@V?$shared_ptr@VRawImageData@@@2@@std@@@std@@YAPAU?$pair@$$CBV?$basic_string@DU?$char_traits@D@std@@V?$allocator@D@2@@std@@V?$shared_ptr@VRawImageData@@@2@@0@AAU10@@Z 00409140 f i Button.obj
 0001:00008150       ??$addressof@U?$pair@$$CBV?$basic_string@DU?$char_traits@D@std@@V?$allocator@D@2@@std@@V?$weak_ptr@VRawImageData@@@2@@std@@@std@@YAPAU?$pair@$$CBV?$basic_string@DU?$char_traits@D@std@@V?$allocator@D@2@@std@@V?$weak_ptr@VRawImageData@@@2@@0@AAU10@@Z 00409150 f i Button.obj
 0001:00008160       ??$addressof@U_Container_base12@std@@@std@@YAPAU_Container_base12@0@AAU10@@Z 00409160 f i Button.obj
 0001:00008170       ??$addressof@U_Container_proxy@std@@@std@@YAPAU_Container_proxy@0@AAU10@@Z 00409170 f i Button.obj
 0001:00008180       ??$addressof@V?$_String_val@U?$_Simple_types@D@std@@@std@@@std@@YAPAV?$_String_val@U?$_Simple_types@D@std@@@0@AAV10@@Z 00409180 f i Button.obj
 0001:00008190       ??$addressof@V?$_Tree_val@U?$_Tree_simple_types@U?$pair@$$CBV?$basic_string@DU?$char_traits@D@std@@V?$allocator@D@2@@std@@V?$shared_ptr@VRawImageData@@@2@@std@@@std@@@std@@@std@@YAPAV?$_Tree_val@U?$_Tree_simple_types@U?$pair@$$CBV?$basic_string@DU?$char_traits@D@std@@V?$allocator@D@2@@std@@V?$shared_ptr@VRawImageData@@@2@@std@@@std@@@0@AAV10@@Z 00409190 f i Button.obj
 0001:000081a0       ??$addressof@V?$_Tree_val@U?$_Tree_simple_types@U?$pair@$$CBV?$basic_string@DU?$char_traits@D@std@@V?$allocator@D@2@@std@@V?$weak_ptr@VRawImageData@@@2@@std@@@std@@@std@@@std@@YAPAV?$_Tree_val@U?$_Tree_simple_types@U?$pair@$$CBV?$basic_string@DU?$char_traits@D@std@@V?$allocator@D@2@@std@@V?$weak_ptr@VRawImageData@@@2@@std@@@std@@@0@AAV10@@Z 004091a0 f i Button.obj
 0001:000081b0       ??$construct@U?$pair@$$CBV?$basic_string@DU?$char_traits@D@std@@V?$allocator@D@2@@std@@V?$shared_ptr@VRawImageData@@@2@@std@@U?$pair@V?$basic_string@DU?$char_traits@D@std@@V?$allocator@D@2@@std@@V?$shared_ptr@VRawImageData@@@2@@2@@?$_Default_allocator_traits@V?$allocator@U?$_Tree_node@U?$pair@$$CBV?$basic_string@DU?$char_traits@D@std@@V?$allocator@D@2@@std@@V?$shared_ptr@VRawImageData@@@2@@std@@PAX@std@@@std@@@std@@SAXAAV?$allocator@U?$_Tree_node@U?$pair@$$CBV?$basic_string@DU?$char_traits@D@std@@V?$allocator@D@2@@std@@V?$shared_ptr@VRawImageData@@@2@@std@@PAX@std@@@1@QAU?$pair@$$CBV?$basic_string@DU?$char_traits@D@std@@V?$allocator@D@2@@std@@V?$shared_ptr@VRawImageData@@@2@@1@$$QAU?$pair@V?$basic_string@DU?$char_traits@D@std@@V?$allocator@D@2@@std@@V?$shared_ptr@VRawImageData@@@2@@1@@Z 004091b0 f i Button.obj
 0001:000081f0       ??$construct@U?$pair@$$CBV?$basic_string@DU?$char_traits@D@std@@V?$allocator@D@2@@std@@V?$weak_ptr@VRawImageData@@@2@@std@@U?$pair@V?$basic_string@DU?$char_traits@D@std@@V?$allocator@D@2@@std@@V?$weak_ptr@VRawImageData@@@2@@2@@?$_Default_allocator_traits@V?$allocator@U?$_Tree_node@U?$pair@$$CBV?$basic_string@DU?$char_traits@D@std@@V?$allocator@D@2@@std@@V?$weak_ptr@VRawImageData@@@2@@std@@PAX@std@@@std@@@std@@SAXAAV?$allocator@U?$_Tree_node@U?$pair@$$CBV?$basic_string@DU?$char_traits@D@std@@V?$allocator@D@2@@std@@V?$weak_ptr@VRawImageData@@@2@@std@@PAX@std@@@1@QAU?$pair@$$CBV?$basic_string@DU?$char_traits@D@std@@V?$allocator@D@2@@std@@V?$weak_ptr@VRawImageData@@@2@@1@$$QAU?$pair@V?$basic_string@DU?$char_traits@D@std@@V?$allocator@D@2@@std@@V?$weak_ptr@VRawImageData@@@2@@1@@Z 004091f0 f i Button.obj
 0001:00008230       ??$destroy@U?$pair@$$CBV?$basic_string@DU?$char_traits@D@std@@V?$allocator@D@2@@std@@V?$shared_ptr@VRawImageData@@@2@@std@@@?$_Default_allocator_traits@V?$allocator@U?$_Tree_node@U?$pair@$$CBV?$basic_string@DU?$char_traits@D@std@@V?$allocator@D@2@@std@@V?$shared_ptr@VRawImageData@@@2@@std@@PAX@std@@@std@@@std@@SAXAAV?$allocator@U?$_Tree_node@U?$pair@$$CBV?$basic_string@DU?$char_traits@D@std@@V?$allocator@D@2@@std@@V?$shared_ptr@VRawImageData@@@2@@std@@PAX@std@@@1@QAU?$pair@$$CBV?$basic_string@DU?$char_traits@D@std@@V?$allocator@D@2@@std@@V?$shared_ptr@VRawImageData@@@2@@1@@Z 00409230 f i Button.obj
 0001:00008250       ??$destroy@U?$pair@$$CBV?$basic_string@DU?$char_traits@D@std@@V?$allocator@D@2@@std@@V?$weak_ptr@VRawImageData@@@2@@std@@@?$_Default_allocator_traits@V?$allocator@U?$_Tree_node@U?$pair@$$CBV?$basic_string@DU?$char_traits@D@std@@V?$allocator@D@2@@std@@V?$weak_ptr@VRawImageData@@@2@@std@@PAX@std@@@std@@@std@@SAXAAV?$allocator@U?$_Tree_node@U?$pair@$$CBV?$basic_string@DU?$char_traits@D@std@@V?$allocator@D@2@@std@@V?$weak_ptr@VRawImageData@@@2@@std@@PAX@std@@@1@QAU?$pair@$$CBV?$basic_string@DU?$char_traits@D@std@@V?$allocator@D@2@@std@@V?$weak_ptr@VRawImageData@@@2@@1@@Z 00409250 f i Button.obj
 0001:00008270       ??$emplace@U?$pair@V?$basic_string@DU?$char_traits@D@std@@V?$allocator@D@2@@std@@V?$shared_ptr@VRawImageData@@@2@@std@@@?$_Tree@V?$_Tmap_traits@V?$basic_string@DU?$char_traits@D@std@@V?$allocator@D@2@@std@@V?$shared_ptr@VRawImageData@@@2@U?$less@V?$basic_string@DU?$char_traits@D@std@@V?$allocator@D@2@@std@@@2@V?$allocator@U?$pair@$$CBV?$basic_string@DU?$char_traits@D@std@@V?$allocator@D@2@@std@@V?$shared_ptr@VRawImageData@@@2@@std@@@2@$0A@@std@@@std@@QAE?AU?$pair@V?$_Tree_iterator@V?$_Tree_val@U?$_Tree_simple_types@U?$pair@$$CBV?$basic_string@DU?$char_traits@D@std@@V?$allocator@D@2@@std@@V?$shared_ptr@VRawImageData@@@2@@std@@@std@@@std@@@std@@_N@1@$$QAU?$pair@V?$basic_string@DU?$char_traits@D@std@@V?$allocator@D@2@@std@@V?$shared_ptr@VRawImageData@@@2@@1@@Z 00409270 f i Button.obj
 0001:00008300       ??$emplace@U?$pair@V?$basic_string@DU?$char_traits@D@std@@V?$allocator@D@2@@std@@V?$weak_ptr@VRawImageData@@@2@@std@@@?$_Tree@V?$_Tmap_traits@V?$basic_string@DU?$char_traits@D@std@@V?$allocator@D@2@@std@@V?$weak_ptr@VRawImageData@@@2@U?$less@V?$basic_string@DU?$char_traits@D@std@@V?$allocator@D@2@@std@@@2@V?$allocator@U?$pair@$$CBV?$basic_string@DU?$char_traits@D@std@@V?$allocator@D@2@@std@@V?$weak_ptr@VRawImageData@@@2@@std@@@2@$0A@@std@@@std@@QAE?AU?$pair@V?$_Tree_iterator@V?$_Tree_val@U?$_Tree_simple_types@U?$pair@$$CBV?$basic_string@DU?$char_traits@D@std@@V?$allocator@D@2@@std@@V?$weak_ptr@VRawImageData@@@2@@std@@@std@@@std@@@std@@_N@1@$$QAU?$pair@V?$basic_string@DU?$char_traits@D@std@@V?$allocator@D@2@@std@@V?$weak_ptr@VRawImageData@@@2@@1@@Z 00409300 f i Button.obj
 0001:00008390       ??$endl@DU?$char_traits@D@std@@@std@@YAAAV?$basic_ostream@DU?$char_traits@D@std@@@0@AAV10@@Z 00409390 f i Button.obj
 0001:000083d0       ??$erase@V?$_Tree_iterator@V?$_Tree_val@U?$_Tree_simple_types@U?$pair@$$CBV?$basic_string@DU?$char_traits@D@std@@V?$allocator@D@2@@std@@V?$weak_ptr@VRawImageData@@@2@@std@@@std@@@std@@@std@@$0A@@?$_Tree@V?$_Tmap_traits@V?$basic_string@DU?$char_traits@D@std@@V?$allocator@D@2@@std@@V?$weak_ptr@VRawImageData@@@2@U?$less@V?$basic_string@DU?$char_traits@D@std@@V?$allocator@D@2@@std@@@2@V?$allocator@U?$pair@$$CBV?$basic_string@DU?$char_traits@D@std@@V?$allocator@D@2@@std@@V?$weak_ptr@VRawImageData@@@2@@std@@@2@$0A@@std@@@std@@QAE?AV?$_Tree_iterator@V?$_Tree_val@U?$_Tree_simple_types@U?$pair@$$CBV?$basic_string@DU?$char_traits@D@std@@V?$allocator@D@2@@std@@V?$weak_ptr@VRawImageData@@@2@@std@@@std@@@std@@@1@V21@@Z 004093d0 f i Button.obj
 0001:00008520       ??$exchange@PAU?$_Tree_node@U?$pair@$$CBV?$basic_string@DU?$char_traits@D@std@@V?$allocator@D@2@@std@@V?$shared_ptr@VRawImageData@@@2@@std@@PAX@std@@$$T@std@@YAPAU?$_Tree_node@U?$pair@$$CBV?$basic_string@DU?$char_traits@D@std@@V?$allocator@D@2@@std@@V?$shared_ptr@VRawImageData@@@2@@std@@PAX@0@AAPAU10@$$QA$$T@Z 00409520 f i Button.obj
 0001:00008550       ??$exchange@PAU?$_Tree_node@U?$pair@$$CBV?$basic_string@DU?$char_traits@D@std@@V?$allocator@D@2@@std@@V?$weak_ptr@VRawImageData@@@2@@std@@PAX@std@@$$T@std@@YAPAU?$_Tree_node@U?$pair@$$CBV?$basic_string@DU?$char_traits@D@std@@V?$allocator@D@2@@std@@V?$weak_ptr@VRawImageData@@@2@@std@@PAX@0@AAPAU10@$$QA$$T@Z 00409550 f i Button.obj
 0001:00008580       ??$exchange@PAU?$_Tree_node@U?$pair@$$CBV?$basic_string@DU?$char_traits@D@std@@V?$allocator@D@2@@std@@V?$weak_ptr@VRawImageData@@@2@@std@@PAX@std@@AAPAU12@@std@@YAPAU?$_Tree_node@U?$pair@$$CBV?$basic_string@DU?$char_traits@D@std@@V?$allocator@D@2@@std@@V?$weak_ptr@VRawImageData@@@2@@std@@PAX@0@AAPAU10@0@Z 00409580 f i Button.obj
 0001:000085b0       ??$exchange@PAU_Iterator_base12@std@@$$T@std@@YAPAU_Iterator_base12@0@AAPAU10@$$QA$$T@Z 004095b0 f i Button.obj
 0001:000085e0       ??$forward@AAPAD@std@@YAAAPADAAPAD@Z 004095e0 f i Button.obj
 0001:000085f0       ??$forward@AAPAU?$_Tree_node@U?$pair@$$CBV?$basic_string@DU?$char_traits@D@std@@V?$allocator@D@2@@std@@V?$shared_ptr@VRawImageData@@@2@@std@@PAX@std@@@std@@YAAAPAU?$_Tree_node@U?$pair@$$CBV?$basic_string@DU?$char_traits@D@std@@V?$allocator@D@2@@std@@V?$shared_ptr@VRawImageData@@@2@@std@@PAX@0@AAPAU10@@Z 004095f0 f i Button.obj
 0001:00008600       ??$forward@AAPAU?$_Tree_node@U?$pair@$$CBV?$basic_string@DU?$char_traits@D@std@@V?$allocator@D@2@@std@@V?$weak_ptr@VRawImageData@@@2@@std@@PAX@std@@@std@@YAAAPAU?$_Tree_node@U?$pair@$$CBV?$basic_string@DU?$char_traits@D@std@@V?$allocator@D@2@@std@@V?$weak_ptr@VRawImageData@@@2@@std@@PAX@0@AAPAU10@@Z 00409600 f i Button.obj
 0001:00008610       ??$forward@AAV?$basic_string@DU?$char_traits@D@std@@V?$allocator@D@2@@std@@@std@@YAAAV?$basic_string@DU?$char_traits@D@std@@V?$allocator@D@2@@0@AAV10@@Z 00409610 f i Button.obj
 0001:00008620       ??$forward@AAV?$shared_ptr@VRawImageData@@@std@@@std@@YAAAV?$shared_ptr@VRawImageData@@@0@AAV10@@Z 00409620 f i Button.obj
 0001:00008630       ??$forward@AAV?$weak_ptr@VRawImageData@@@std@@@std@@YAAAV?$weak_ptr@VRawImageData@@@0@AAV10@@Z 00409630 f i Button.obj
 0001:00008640       ??$forward@ABQAD@std@@YAABQADABQAD@Z 00409640 f i Button.obj
 0001:00008650       ??$forward@ABQAU?$_Tree_node@U?$pair@$$CBV?$basic_string@DU?$char_traits@D@std@@V?$allocator@D@2@@std@@V?$shared_ptr@VRawImageData@@@2@@std@@PAX@std@@@std@@YAABQAU?$_Tree_node@U?$pair@$$CBV?$basic_string@DU?$char_traits@D@std@@V?$allocator@D@2@@std@@V?$shared_ptr@VRawImageData@@@2@@std@@PAX@0@ABQAU10@@Z 00409650 f i Button.obj
 0001:00008660       ??$forward@ABQAU?$_Tree_node@U?$pair@$$CBV?$basic_string@DU?$char_traits@D@std@@V?$allocator@D@2@@std@@V?$weak_ptr@VRawImageData@@@2@@std@@PAX@std@@@std@@YAABQAU?$_Tree_node@U?$pair@$$CBV?$basic_string@DU?$char_traits@D@std@@V?$allocator@D@2@@std@@V?$weak_ptr@VRawImageData@@@2@@std@@PAX@0@ABQAU10@@Z 00409660 f i Button.obj
 0001:00008670       ??$forward@ABU?$less@V?$basic_string@DU?$char_traits@D@std@@V?$allocator@D@2@@std@@@std@@@std@@YAABU?$less@V?$basic_string@DU?$char_traits@D@std@@V?$allocator@D@2@@std@@@0@ABU10@@Z 00409670 f i Button.obj
 0001:00008680       ??$forward@AB_N@std@@YAAB_NAB_N@Z 00409680 f i Button.obj
 0001:00008690       ??$forward@PAU?$_Tree_node@U?$pair@$$CBV?$basic_string@DU?$char_traits@D@std@@V?$allocator@D@2@@std@@V?$shared_ptr@VRawImageData@@@2@@std@@PAX@std@@@std@@YA$$QAPAU?$_Tree_node@U?$pair@$$CBV?$basic_string@DU?$char_traits@D@std@@V?$allocator@D@2@@std@@V?$shared_ptr@VRawImageData@@@2@@std@@PAX@0@AAPAU10@@Z 00409690 f i Button.obj
 0001:000086a0       ??$forward@PAU?$_Tree_node@U?$pair@$$CBV?$basic_string@DU?$char_traits@D@std@@V?$allocator@D@2@@std@@V?$weak_ptr@VRawImageData@@@2@@std@@PAX@std@@@std@@YA$$QAPAU?$_Tree_node@U?$pair@$$CBV?$basic_string@DU?$char_traits@D@std@@V?$allocator@D@2@@std@@V?$weak_ptr@VRawImageData@@@2@@std@@PAX@0@AAPAU10@@Z 004096a0 f i Button.obj
 0001:000086b0       ??$forward@PAU_Container_base12@std@@@std@@YA$$QAPAU_Container_base12@0@AAPAU10@@Z 004096b0 f i Button.obj
 0001:000086c0       ??$forward@U?$pair@V?$basic_string@DU?$char_traits@D@std@@V?$allocator@D@2@@std@@V?$shared_ptr@VRawImageData@@@2@@std@@@std@@YA$$QAU?$pair@V?$basic_string@DU?$char_traits@D@std@@V?$allocator@D@2@@std@@V?$shared_ptr@VRawImageData@@@2@@0@AAU10@@Z 004096c0 f i Button.obj
 0001:000086d0       ??$forward@U?$pair@V?$basic_string@DU?$char_traits@D@std@@V?$allocator@D@2@@std@@V?$weak_ptr@VRawImageData@@@2@@std@@@std@@YA$$QAU?$pair@V?$basic_string@DU?$char_traits@D@std@@V?$allocator@D@2@@std@@V?$weak_ptr@VRawImageData@@@2@@0@AAU10@@Z 004096d0 f i Button.obj
 0001:000086e0       ??$forward@U_Zero_then_variadic_args_t@std@@@std@@YA$$QAU_Zero_then_variadic_args_t@0@AAU10@@Z 004096e0 f i Button.obj
 0001:000086f0       ??$forward@V?$_Tree_iterator@V?$_Tree_val@U?$_Tree_simple_types@U?$pair@$$CBV?$basic_string@DU?$char_traits@D@std@@V?$allocator@D@2@@std@@V?$shared_ptr@VRawImageData@@@2@@std@@@std@@@std@@@std@@@std@@YA$$QAV?$_Tree_iterator@V?$_Tree_val@U?$_Tree_simple_types@U?$pair@$$CBV?$basic_string@DU?$char_traits@D@std@@V?$allocator@D@2@@std@@V?$shared_ptr@VRawImageData@@@2@@std@@@std@@@std@@@0@AAV10@@Z 004096f0 f i Button.obj
 0001:00008700       ??$forward@V?$_Tree_iterator@V?$_Tree_val@U?$_Tree_simple_types@U?$pair@$$CBV?$basic_string@DU?$char_traits@D@std@@V?$allocator@D@2@@std@@V?$weak_ptr@VRawImageData@@@2@@std@@@std@@@std@@@std@@@std@@YA$$QAV?$_Tree_iterator@V?$_Tree_val@U?$_Tree_simple_types@U?$pair@$$CBV?$basic_string@DU?$char_traits@D@std@@V?$allocator@D@2@@std@@V?$weak_ptr@VRawImageData@@@2@@std@@@std@@@std@@@0@AAV10@@Z 00409700 f i Button.obj
 0001:00008710       ??$forward@V?$allocator@D@std@@@std@@YA$$QAV?$allocator@D@0@AAV10@@Z 00409710 f i Button.obj
 0001:00008720       ??$forward@V?$basic_string@DU?$char_traits@D@std@@V?$allocator@D@2@@std@@@std@@YA$$QAV?$basic_string@DU?$char_traits@D@std@@V?$allocator@D@2@@0@AAV10@@Z 00409720 f i Button.obj
 0001:00008730       ??$forward@V?$shared_ptr@VRawImageData@@@std@@@std@@YA$$QAV?$shared_ptr@VRawImageData@@@0@AAV10@@Z 00409730 f i Button.obj
 0001:00008740       ??$forward@V?$weak_ptr@VRawImageData@@@std@@@std@@YA$$QAV?$weak_ptr@VRawImageData@@@0@AAV10@@Z 00409740 f i Button.obj
 0001:00008750       ??$forward@_N@std@@YA$$QA_NAA_N@Z 00409750 f i Button.obj
 0001:00008760       ??$insert@U?$pair@V?$basic_string@DU?$char_traits@D@std@@V?$allocator@D@2@@std@@V?$shared_ptr@VRawImageData@@@2@@std@@$0A@@?$map@V?$basic_string@DU?$char_traits@D@std@@V?$allocator@D@2@@std@@V?$shared_ptr@VRawImageData@@@2@U?$less@V?$basic_string@DU?$char_traits@D@std@@V?$allocator@D@2@@std@@@2@V?$allocator@U?$pair@$$CBV?$basic_string@DU?$char_traits@D@std@@V?$allocator@D@2@@std@@V?$shared_ptr@VRawImageData@@@2@@std@@@2@@std@@QAE?AU?$pair@V?$_Tree_iterator@V?$_Tree_val@U?$_Tree_simple_types@U?$pair@$$CBV?$basic_string@DU?$char_traits@D@std@@V?$allocator@D@2@@std@@V?$shared_ptr@VRawImageData@@@2@@std@@@std@@@std@@@std@@_N@1@$$QAU?$pair@V?$basic_string@DU?$char_traits@D@std@@V?$allocator@D@2@@std@@V?$shared_ptr@VRawImageData@@@2@@1@@Z 00409760 f i Button.obj
 0001:000087b0       ??$insert@U?$pair@V?$basic_string@DU?$char_traits@D@std@@V?$allocator@D@2@@std@@V?$weak_ptr@VRawImageData@@@2@@std@@$0A@@?$map@V?$basic_string@DU?$char_traits@D@std@@V?$allocator@D@2@@std@@V?$weak_ptr@VRawImageData@@@2@U?$less@V?$basic_string@DU?$char_traits@D@std@@V?$allocator@D@2@@std@@@2@V?$allocator@U?$pair@$$CBV?$basic_string@DU?$char_traits@D@std@@V?$allocator@D@2@@std@@V?$weak_ptr@VRawImageData@@@2@@std@@@2@@std@@QAE?AU?$pair@V?$_Tree_iterator@V?$_Tree_val@U?$_Tree_simple_types@U?$pair@$$CBV?$basic_string@DU?$char_traits@D@std@@V?$allocator@D@2@@std@@V?$weak_ptr@VRawImageData@@@2@@std@@@std@@@std@@@std@@_N@1@$$QAU?$pair@V?$basic_string@DU?$char_traits@D@std@@V?$allocator@D@2@@std@@V?$weak_ptr@VRawImageData@@@2@@1@@Z 004097b0 f i Button.obj
 0001:00008800       ??$max@I@std@@YAABIABI0@Z  00409800 f i Button.obj
 0001:00008840       ??$min@I@std@@YAABIABI0@Z  00409840 f i Button.obj
 0001:00008880       ??$move@AAD@std@@YA$$QADAAD@Z 00409880 f i Button.obj
 0001:00008890       ??$move@AAPAVRawImageData@@@std@@YA$$QAPAVRawImageData@@AAPAV1@@Z 00409890 f i Button.obj
 0001:000088a0       ??$move@AAPAV_Ref_count_base@std@@@std@@YA$$QAPAV_Ref_count_base@0@AAPAV10@@Z 004098a0 f i Button.obj
 0001:000088b0       ??$move@AAV?$allocator@D@std@@@std@@YA$$QAV?$allocator@D@0@AAV10@@Z 004098b0 f i Button.obj
 0001:000088c0       ??$move@AAV?$shared_ptr@VRawImageData@@@std@@@std@@YA$$QAV?$shared_ptr@VRawImageData@@@0@AAV10@@Z 004098c0 f i Button.obj
 0001:000088d0       ??$move@AAV?$weak_ptr@VRawImageData@@@std@@@std@@YA$$QAV?$weak_ptr@VRawImageData@@@0@AAV10@@Z 004098d0 f i Button.obj
 0001:000088e0       ??$swap@D$0A@@std@@YAXAAD0@Z 004098e0 f i Button.obj
 0001:00008930       ??$swap@PAVRawImageData@@$0A@@std@@YAXAAPAVRawImageData@@0@Z 00409930 f i Button.obj
 0001:00008980       ??$swap@PAV_Ref_count_base@std@@$0A@@std@@YAXAAPAV_Ref_count_base@0@0@Z 00409980 f i Button.obj
 0001:000089d0       ??0?$_Alloc_construct_ptr@V?$allocator@U?$_Tree_node@U?$pair@$$CBV?$basic_string@DU?$char_traits@D@std@@V?$allocator@D@2@@std@@V?$shared_ptr@VRawImageData@@@2@@std@@PAX@std@@@std@@@std@@QAE@AAV?$allocator@U?$_Tree_node@U?$pair@$$CBV?$basic_string@DU?$char_traits@D@std@@V?$allocator@D@2@@std@@V?$shared_ptr@VRawImageData@@@2@@std@@PAX@std@@@1@@Z 004099d0 f i Button.obj
 0001:00008a00       ??0?$_Alloc_construct_ptr@V?$allocator@U?$_Tree_node@U?$pair@$$CBV?$basic_string@DU?$char_traits@D@std@@V?$allocator@D@2@@std@@V?$weak_ptr@VRawImageData@@@2@@std@@PAX@std@@@std@@@std@@QAE@AAV?$allocator@U?$_Tree_node@U?$pair@$$CBV?$basic_string@DU?$char_traits@D@std@@V?$allocator@D@2@@std@@V?$weak_ptr@VRawImageData@@@2@@std@@PAX@std@@@1@@Z 00409a00 f i Button.obj
 0001:00008a30       ??0?$_Container_proxy_ptr12@V?$allocator@U_Container_proxy@std@@@std@@@std@@QAE@AAV?$allocator@U_Container_proxy@std@@@1@AAU_Container_base12@1@@Z 00409a30 f i Button.obj
 0001:00008ab0       ??0?$_Ptr_base@VRawImageData@@@std@@IAE@XZ 00409ab0 f i Button.obj
 0001:00008ae0       ??0?$_Ref_count@VRawImageData@@@std@@QAE@PAVRawImageData@@@Z 00409ae0 f i Button.obj
 0001:00008b30       ??0?$_String_val@U?$_Simple_types@D@std@@@std@@QAE@XZ 00409b30 f i Button.obj
 0001:00008b80       ??0?$_Temporary_owner@VRawImageData@@@std@@QAE@QAVRawImageData@@@Z 00409b80 f i Button.obj
 0001:00008ba0       ??0?$_Tree@V?$_Tmap_traits@V?$basic_string@DU?$char_traits@D@std@@V?$allocator@D@2@@std@@V?$shared_ptr@VRawImageData@@@2@U?$less@V?$basic_string@DU?$char_traits@D@std@@V?$allocator@D@2@@std@@@2@V?$allocator@U?$pair@$$CBV?$basic_string@DU?$char_traits@D@std@@V?$allocator@D@2@@std@@V?$shared_ptr@VRawImageData@@@2@@std@@@2@$0A@@std@@@std@@QAE@ABU?$less@V?$basic_string@DU?$char_traits@D@std@@V?$allocator@D@2@@std@@@1@@Z 00409ba0 f i Button.obj
 0001:00008be0       ??0?$_Tree@V?$_Tmap_traits@V?$basic_string@DU?$char_traits@D@std@@V?$allocator@D@2@@std@@V?$weak_ptr@VRawImageData@@@2@U?$less@V?$basic_string@DU?$char_traits@D@std@@V?$allocator@D@2@@std@@@2@V?$allocator@U?$pair@$$CBV?$basic_string@DU?$char_traits@D@std@@V?$allocator@D@2@@std@@V?$weak_ptr@VRawImageData@@@2@@std@@@2@$0A@@std@@@std@@QAE@ABU?$less@V?$basic_string@DU?$char_traits@D@std@@V?$allocator@D@2@@std@@@1@@Z 00409be0 f i Button.obj
 0001:00008c20       ??0?$_Tree_const_iterator@V?$_Tree_val@U?$_Tree_simple_types@U?$pair@$$CBV?$basic_string@DU?$char_traits@D@std@@V?$allocator@D@2@@std@@V?$shared_ptr@VRawImageData@@@2@@std@@@std@@@std@@@std@@QAE@$$QAV01@@Z 00409c20 f i Button.obj
 0001:00008c50       ??0?$_Tree_const_iterator@V?$_Tree_val@U?$_Tree_simple_types@U?$pair@$$CBV?$basic_string@DU?$char_traits@D@std@@V?$allocator@D@2@@std@@V?$shared_ptr@VRawImageData@@@2@@std@@@std@@@std@@@std@@QAE@PAU?$_Tree_node@U?$pair@$$CBV?$basic_string@DU?$char_traits@D@std@@V?$allocator@D@2@@std@@V?$shared_ptr@VRawImageData@@@2@@std@@PAX@1@PBV?$_Tree_val@U?$_Tree_simple_types@U?$pair@$$CBV?$basic_string@DU?$char_traits@D@std@@V?$allocator@D@2@@std@@V?$shared_ptr@VRawImageData@@@2@@std@@@std@@@1@@Z 00409c50 f i Button.obj
 0001:00008c80       ??0?$_Tree_const_iterator@V?$_Tree_val@U?$_Tree_simple_types@U?$pair@$$CBV?$basic_string@DU?$char_traits@D@std@@V?$allocator@D@2@@std@@V?$weak_ptr@VRawImageData@@@2@@std@@@std@@@std@@@std@@QAE@$$QAV01@@Z 00409c80 f i Button.obj
 0001:00008cb0       ??0?$_Tree_const_iterator@V?$_Tree_val@U?$_Tree_simple_types@U?$pair@$$CBV?$basic_string@DU?$char_traits@D@std@@V?$allocator@D@2@@std@@V?$weak_ptr@VRawImageData@@@2@@std@@@std@@@std@@@std@@QAE@ABV01@@Z 00409cb0 f i Button.obj
 0001:00008ce0       ??0?$_Tree_const_iterator@V?$_Tree_val@U?$_Tree_simple_types@U?$pair@$$CBV?$basic_string@DU?$char_traits@D@std@@V?$allocator@D@2@@std@@V?$weak_ptr@VRawImageData@@@2@@std@@@std@@@std@@@std@@QAE@PAU?$_Tree_node@U?$pair@$$CBV?$basic_string@DU?$char_traits@D@std@@V?$allocator@D@2@@std@@V?$weak_ptr@VRawImageData@@@2@@std@@PAX@1@PBV?$_Tree_val@U?$_Tree_simple_types@U?$pair@$$CBV?$basic_string@DU?$char_traits@D@std@@V?$allocator@D@2@@std@@V?$weak_ptr@VRawImageData@@@2@@std@@@std@@@1@@Z 00409ce0 f i Button.obj
 0001:00008d10       ??0?$_Tree_iterator@V?$_Tree_val@U?$_Tree_simple_types@U?$pair@$$CBV?$basic_string@DU?$char_traits@D@std@@V?$allocator@D@2@@std@@V?$shared_ptr@VRawImageData@@@2@@std@@@std@@@std@@@std@@QAE@$$QAV01@@Z 00409d10 f i Button.obj
 0001:00008d40       ??0?$_Tree_iterator@V?$_Tree_val@U?$_Tree_simple_types@U?$pair@$$CBV?$basic_string@DU?$char_traits@D@std@@V?$allocator@D@2@@std@@V?$shared_ptr@VRawImageData@@@2@@std@@@std@@@std@@@std@@QAE@PAU?$_Tree_node@U?$pair@$$CBV?$basic_string@DU?$char_traits@D@std@@V?$allocator@D@2@@std@@V?$shared_ptr@VRawImageData@@@2@@std@@PAX@1@PBV?$_Tree_val@U?$_Tree_simple_types@U?$pair@$$CBV?$basic_string@DU?$char_traits@D@std@@V?$allocator@D@2@@std@@V?$shared_ptr@VRawImageData@@@2@@std@@@std@@@1@@Z 00409d40 f i Button.obj
 0001:00008d70       ??0?$_Tree_iterator@V?$_Tree_val@U?$_Tree_simple_types@U?$pair@$$CBV?$basic_string@DU?$char_traits@D@std@@V?$allocator@D@2@@std@@V?$weak_ptr@VRawImageData@@@2@@std@@@std@@@std@@@std@@QAE@$$QAV01@@Z 00409d70 f i Button.obj
 0001:00008da0       ??0?$_Tree_iterator@V?$_Tree_val@U?$_Tree_simple_types@U?$pair@$$CBV?$basic_string@DU?$char_traits@D@std@@V?$allocator@D@2@@std@@V?$weak_ptr@VRawImageData@@@2@@std@@@std@@@std@@@std@@QAE@ABV01@@Z 00409da0 f i Button.obj
 0001:00008dd0       ??0?$_Tree_iterator@V?$_Tree_val@U?$_Tree_simple_types@U?$pair@$$CBV?$basic_string@DU?$char_traits@D@std@@V?$allocator@D@2@@std@@V?$weak_ptr@VRawImageData@@@2@@std@@@std@@@std@@@std@@QAE@PAU?$_Tree_node@U?$pair@$$CBV?$basic_string@DU?$char_traits@D@std@@V?$allocator@D@2@@std@@V?$weak_ptr@VRawImageData@@@2@@std@@PAX@1@PBV?$_Tree_val@U?$_Tree_simple_types@U?$pair@$$CBV?$basic_string@DU?$char_traits@D@std@@V?$allocator@D@2@@std@@V?$weak_ptr@VRawImageData@@@2@@std@@@std@@@1@@Z 00409dd0 f i Button.obj
 0001:00008e00       ??0?$_Tree_temp_node_alloc@V?$allocator@U?$_Tree_node@U?$pair@$$CBV?$basic_string@DU?$char_traits@D@std@@V?$allocator@D@2@@std@@V?$shared_ptr@VRawImageData@@@2@@std@@PAX@std@@@std@@@std@@QAE@AAV?$allocator@U?$_Tree_node@U?$pair@$$CBV?$basic_string@DU?$char_traits@D@std@@V?$allocator@D@2@@std@@V?$shared_ptr@VRawImageData@@@2@@std@@PAX@std@@@1@@Z 00409e00 f i Button.obj
 0001:00008e80       ??0?$_Tree_temp_node_alloc@V?$allocator@U?$_Tree_node@U?$pair@$$CBV?$basic_string@DU?$char_traits@D@std@@V?$allocator@D@2@@std@@V?$weak_ptr@VRawImageData@@@2@@std@@PAX@std@@@std@@@std@@QAE@AAV?$allocator@U?$_Tree_node@U?$pair@$$CBV?$basic_string@DU?$char_traits@D@std@@V?$allocator@D@2@@std@@V?$weak_ptr@VRawImageData@@@2@@std@@PAX@std@@@1@@Z 00409e80 f i Button.obj
 0001:00008f00       ??0?$_Tree_unchecked_const_iterator@V?$_Tree_val@U?$_Tree_simple_types@U?$pair@$$CBV?$basic_string@DU?$char_traits@D@std@@V?$allocator@D@2@@std@@V?$shared_ptr@VRawImageData@@@2@@std@@@std@@@std@@U_Iterator_base12@2@@std@@QAE@$$QAV01@@Z 00409f00 f i Button.obj
 0001:00008f40       ??0?$_Tree_unchecked_const_iterator@V?$_Tree_val@U?$_Tree_simple_types@U?$pair@$$CBV?$basic_string@DU?$char_traits@D@std@@V?$allocator@D@2@@std@@V?$shared_ptr@VRawImageData@@@2@@std@@@std@@@std@@U_Iterator_base12@2@@std@@QAE@PAU?$_Tree_node@U?$pair@$$CBV?$basic_string@DU?$char_traits@D@std@@V?$allocator@D@2@@std@@V?$shared_ptr@VRawImageData@@@2@@std@@PAX@1@PBV?$_Tree_val@U?$_Tree_simple_types@U?$pair@$$CBV?$basic_string@DU?$char_traits@D@std@@V?$allocator@D@2@@std@@V?$shared_ptr@VRawImageData@@@2@@std@@@std@@@1@@Z 00409f40 f i Button.obj
 0001:00008f80       ??0?$_Tree_unchecked_const_iterator@V?$_Tree_val@U?$_Tree_simple_types@U?$pair@$$CBV?$basic_string@DU?$char_traits@D@std@@V?$allocator@D@2@@std@@V?$weak_ptr@VRawImageData@@@2@@std@@@std@@@std@@U_Iterator_base0@2@@std@@QAE@PAU?$_Tree_node@U?$pair@$$CBV?$basic_string@DU?$char_traits@D@std@@V?$allocator@D@2@@std@@V?$weak_ptr@VRawImageData@@@2@@std@@PAX@1@PBV?$_Tree_val@U?$_Tree_simple_types@U?$pair@$$CBV?$basic_string@DU?$char_traits@D@std@@V?$allocator@D@2@@std@@V?$weak_ptr@VRawImageData@@@2@@std@@@std@@@1@@Z 00409f80 f i Button.obj
 0001:00008fb0       ??0?$_Tree_unchecked_const_iterator@V?$_Tree_val@U?$_Tree_simple_types@U?$pair@$$CBV?$basic_string@DU?$char_traits@D@std@@V?$allocator@D@2@@std@@V?$weak_ptr@VRawImageData@@@2@@std@@@std@@@std@@U_Iterator_base12@2@@std@@QAE@$$QAV01@@Z 00409fb0 f i Button.obj
 0001:00008ff0       ??0?$_Tree_unchecked_const_iterator@V?$_Tree_val@U?$_Tree_simple_types@U?$pair@$$CBV?$basic_string@DU?$char_traits@D@std@@V?$allocator@D@2@@std@@V?$weak_ptr@VRawImageData@@@2@@std@@@std@@@std@@U_Iterator_base12@2@@std@@QAE@ABV01@@Z 00409ff0 f i Button.obj
 0001:00009030       ??0?$_Tree_unchecked_const_iterator@V?$_Tree_val@U?$_Tree_simple_types@U?$pair@$$CBV?$basic_string@DU?$char_traits@D@std@@V?$allocator@D@2@@std@@V?$weak_ptr@VRawImageData@@@2@@std@@@std@@@std@@U_Iterator_base12@2@@std@@QAE@PAU?$_Tree_node@U?$pair@$$CBV?$basic_string@DU?$char_traits@D@std@@V?$allocator@D@2@@std@@V?$weak_ptr@VRawImageData@@@2@@std@@PAX@1@PBV?$_Tree_val@U?$_Tree_simple_types@U?$pair@$$CBV?$basic_string@DU?$char_traits@D@std@@V?$allocator@D@2@@std@@V?$weak_ptr@VRawImageData@@@2@@std@@@std@@@1@@Z 0040a030 f i Button.obj
 0001:00009070       ??0?$_Tree_unchecked_iterator@V?$_Tree_val@U?$_Tree_simple_types@U?$pair@$$CBV?$basic_string@DU?$char_traits@D@std@@V?$allocator@D@2@@std@@V?$weak_ptr@VRawImageData@@@2@@std@@@std@@@std@@@std@@QAE@PAU?$_Tree_node@U?$pair@$$CBV?$basic_string@DU?$char_traits@D@std@@V?$allocator@D@2@@std@@V?$weak_ptr@VRawImageData@@@2@@std@@PAX@1@PBV?$_Tree_val@U?$_Tree_simple_types@U?$pair@$$CBV?$basic_string@DU?$char_traits@D@std@@V?$allocator@D@2@@std@@V?$weak_ptr@VRawImageData@@@2@@std@@@std@@@1@@Z 0040a070 f i Button.obj
 0001:000090a0       ??0?$_Tree_val@U?$_Tree_simple_types@U?$pair@$$CBV?$basic_string@DU?$char_traits@D@std@@V?$allocator@D@2@@std@@V?$shared_ptr@VRawImageData@@@2@@std@@@std@@@std@@QAE@XZ 0040a0a0 f i Button.obj
 0001:000090e0       ??0?$_Tree_val@U?$_Tree_simple_types@U?$pair@$$CBV?$basic_string@DU?$char_traits@D@std@@V?$allocator@D@2@@std@@V?$weak_ptr@VRawImageData@@@2@@std@@@std@@@std@@QAE@XZ 0040a0e0 f i Button.obj
 0001:00009120       ??0?$allocator@D@std@@QAE@XZ 0040a120 f i Button.obj
 0001:00009140       ??0?$allocator@U?$_Tree_node@U?$pair@$$CBV?$basic_string@DU?$char_traits@D@std@@V?$allocator@D@2@@std@@V?$shared_ptr@VRawImageData@@@2@@std@@PAX@std@@@std@@QAE@XZ 0040a140 f i Button.obj
 0001:00009160       ??0?$allocator@U?$_Tree_node@U?$pair@$$CBV?$basic_string@DU?$char_traits@D@std@@V?$allocator@D@2@@std@@V?$weak_ptr@VRawImageData@@@2@@std@@PAX@std@@@std@@QAE@XZ 0040a160 f i Button.obj
 0001:00009180       ??0?$basic_string@DU?$char_traits@D@std@@V?$allocator@D@2@@std@@QAE@$$QAV01@@Z 0040a180 f i Button.obj
 0001:00009230       ??0?$basic_string@DU?$char_traits@D@std@@V?$allocator@D@2@@std@@QAE@ABV01@@Z 0040a230 f i Button.obj
 0001:000092e0       ??0?$basic_string@DU?$char_traits@D@std@@V?$allocator@D@2@@std@@QAE@QBD@Z 0040a2e0 f i Button.obj
 0001:00009380       ??0?$map@V?$basic_string@DU?$char_traits@D@std@@V?$allocator@D@2@@std@@V?$shared_ptr@VRawImageData@@@2@U?$less@V?$basic_string@DU?$char_traits@D@std@@V?$allocator@D@2@@std@@@2@V?$allocator@U?$pair@$$CBV?$basic_string@DU?$char_traits@D@std@@V?$allocator@D@2@@std@@V?$shared_ptr@VRawImageData@@@2@@std@@@2@@std@@QAE@XZ 0040a380 f i Button.obj
 0001:000093b0       ??0?$map@V?$basic_string@DU?$char_traits@D@std@@V?$allocator@D@2@@std@@V?$weak_ptr@VRawImageData@@@2@U?$less@V?$basic_string@DU?$char_traits@D@std@@V?$allocator@D@2@@std@@@2@V?$allocator@U?$pair@$$CBV?$basic_string@DU?$char_traits@D@std@@V?$allocator@D@2@@std@@V?$weak_ptr@VRawImageData@@@2@@std@@@2@@std@@QAE@XZ 0040a3b0 f i Button.obj
 0001:000093e0       ??0?$shared_ptr@VRawImageData@@@std@@QAE@$$QAV01@@Z 0040a3e0 f i Button.obj
 0001:00009420       ??0?$shared_ptr@VRawImageData@@@std@@QAE@$$T@Z 0040a420 f i Button.obj
 0001:00009440       ??0?$shared_ptr@VRawImageData@@@std@@QAE@ABV01@@Z 0040a440 f i Button.obj
 0001:00009470       ??0?$shared_ptr@VRawImageData@@@std@@QAE@XZ 0040a470 f i Button.obj
 0001:00009490       ??0?$weak_ptr@VRawImageData@@@std@@QAE@$$QAV01@@Z 0040a490 f i Button.obj
 0001:000094d0       ??0?$weak_ptr@VRawImageData@@@std@@QAE@ABV01@@Z 0040a4d0 f i Button.obj
 0001:00009500       ??0ImageManager@@QAE@XZ    0040a500 f i Button.obj
 0001:00009570       ??0RawImageData@@QAE@V?$basic_string@DU?$char_traits@D@std@@V?$allocator@D@2@@std@@@Z 0040a570 f i Button.obj
 0001:00009620       ??0_Basic_container_proxy_ptr12@std@@IAE@XZ 0040a620 f i Button.obj
 0001:00009640       ??0_Bxty@?$_String_val@U?$_Simple_types@D@std@@@std@@QAE@XZ 0040a640 f i Button.obj
 0001:00009670       ??0_Container_base12@std@@QAE@XZ 0040a670 f i Button.obj
 0001:00009690       ??0_Container_proxy@std@@QAE@PAU_Container_base12@1@@Z 0040a690 f i Button.obj
 0001:000096c0       ??0_Iterator_base12@std@@QAE@ABU01@@Z 0040a6c0 f i Button.obj
 0001:00009700       ??0_Iterator_base12@std@@QAE@XZ 0040a700 f i Button.obj
 0001:00009730       ??0_Ref_count_base@std@@IAE@XZ 0040a730 f i Button.obj
 0001:00009760       ??0_Sentry_base@?$basic_ostream@DU?$char_traits@D@std@@@std@@QAE@AAV12@@Z 0040a760 f i Button.obj
 0001:000097c0       ??0bad_alloc@std@@AAE@QBD@Z 0040a7c0 f i Button.obj
 0001:000097f0       ??0bad_alloc@std@@QAE@ABV01@@Z 0040a7f0 f i Button.obj
 0001:00009820       ??0bad_array_new_length@std@@QAE@ABV01@@Z 0040a820 f i Button.obj
 0001:00009850       ??0bad_array_new_length@std@@QAE@XZ 0040a850 f i Button.obj
 0001:00009880       ??0exception@std@@QAE@ABV01@@Z 0040a880 f i Button.obj
 0001:000098d0       ??0exception@std@@QAE@QBDH@Z 0040a8d0 f i Button.obj
 0001:00009910       ??0sentry@?$basic_ostream@DU?$char_traits@D@std@@@std@@QAE@AAV12@@Z 0040a910 f i Button.obj
 0001:00009a10       ??1?$_Alloc_construct_ptr@V?$allocator@U?$_Tree_node@U?$pair@$$CBV?$basic_string@DU?$char_traits@D@std@@V?$allocator@D@2@@std@@V?$shared_ptr@VRawImageData@@@2@@std@@PAX@std@@@std@@@std@@QAE@XZ 0040aa10 f i Button.obj
 0001:00009a80       ??1?$_Alloc_construct_ptr@V?$allocator@U?$_Tree_node@U?$pair@$$CBV?$basic_string@DU?$char_traits@D@std@@V?$allocator@D@2@@std@@V?$weak_ptr@VRawImageData@@@2@@std@@PAX@std@@@std@@@std@@QAE@XZ 0040aa80 f i Button.obj
 0001:00009af0       ??1?$_Compressed_pair@V?$allocator@D@std@@V?$_String_val@U?$_Simple_types@D@std@@@2@$00@std@@QAE@XZ 0040aaf0 f i Button.obj
 0001:00009b10       ??1?$_Container_proxy_ptr12@V?$allocator@U_Container_proxy@std@@@std@@@std@@QAE@XZ 0040ab10 f i Button.obj
 0001:00009b50       ??1?$_Ref_count@VRawImageData@@@std@@UAE@XZ 0040ab50 f i Button.obj
 0001:00009b70       ??1?$_String_val@U?$_Simple_types@D@std@@@std@@QAE@XZ 0040ab70 f i Button.obj
 0001:00009b90       ??1?$_Temporary_owner@VRawImageData@@@std@@QAE@XZ 0040ab90 f i Button.obj
 0001:00009bd0       ??1?$_Tree@V?$_Tmap_traits@V?$basic_string@DU?$char_traits@D@std@@V?$allocator@D@2@@std@@V?$weak_ptr@VRawImageData@@@2@U?$less@V?$basic_string@DU?$char_traits@D@std@@V?$allocator@D@2@@std@@@2@V?$allocator@U?$pair@$$CBV?$basic_string@DU?$char_traits@D@std@@V?$allocator@D@2@@std@@V?$weak_ptr@VRawImageData@@@2@@std@@@2@$0A@@std@@@std@@QAE@XZ 0040abd0 f i Button.obj
 0001:00009c40       ??1?$_Tree_const_iterator@V?$_Tree_val@U?$_Tree_simple_types@U?$pair@$$CBV?$basic_string@DU?$char_traits@D@std@@V?$allocator@D@2@@std@@V?$shared_ptr@VRawImageData@@@2@@std@@@std@@@std@@@std@@QAE@XZ 0040ac40 f i Button.obj
 0001:00009c60       ??1?$_Tree_const_iterator@V?$_Tree_val@U?$_Tree_simple_types@U?$pair@$$CBV?$basic_string@DU?$char_traits@D@std@@V?$allocator@D@2@@std@@V?$weak_ptr@VRawImageData@@@2@@std@@@std@@@std@@@std@@QAE@XZ 0040ac60 f i Button.obj
 0001:00009c80       ??1?$_Tree_iterator@V?$_Tree_val@U?$_Tree_simple_types@U?$pair@$$CBV?$basic_string@DU?$char_traits@D@std@@V?$allocator@D@2@@std@@V?$shared_ptr@VRawImageData@@@2@@std@@@std@@@std@@@std@@QAE@XZ 0040ac80 f i Button.obj
 0001:00009ca0       ??1?$_Tree_iterator@V?$_Tree_val@U?$_Tree_simple_types@U?$pair@$$CBV?$basic_string@DU?$char_traits@D@std@@V?$allocator@D@2@@std@@V?$weak_ptr@VRawImageData@@@2@@std@@@std@@@std@@@std@@QAE@XZ 0040aca0 f i Button.obj
 0001:00009cc0       ??1?$_Tree_temp_node@V?$allocator@U?$_Tree_node@U?$pair@$$CBV?$basic_string@DU?$char_traits@D@std@@V?$allocator@D@2@@std@@V?$shared_ptr@VRawImageData@@@2@@std@@PAX@std@@@std@@@std@@QAE@XZ 0040acc0 f i Button.obj
 0001:00009d90       ??1?$_Tree_temp_node@V?$allocator@U?$_Tree_node@U?$pair@$$CBV?$basic_string@DU?$char_traits@D@std@@V?$allocator@D@2@@std@@V?$weak_ptr@VRawImageData@@@2@@std@@PAX@std@@@std@@@std@@QAE@XZ 0040ad90 f i Button.obj
 0001:00009e60       ??1?$_Tree_temp_node_alloc@V?$allocator@U?$_Tree_node@U?$pair@$$CBV?$basic_string@DU?$char_traits@D@std@@V?$allocator@D@2@@std@@V?$shared_ptr@VRawImageData@@@2@@std@@PAX@std@@@std@@@std@@QAE@XZ 0040ae60 f i Button.obj
 0001:00009e80       ??1?$_Tree_temp_node_alloc@V?$allocator@U?$_Tree_node@U?$pair@$$CBV?$basic_string@DU?$char_traits@D@std@@V?$allocator@D@2@@std@@V?$weak_ptr@VRawImageData@@@2@@std@@PAX@std@@@std@@@std@@QAE@XZ 0040ae80 f i Button.obj
 0001:00009ea0       ??1?$_Tree_unchecked_const_iterator@V?$_Tree_val@U?$_Tree_simple_types@U?$pair@$$CBV?$basic_string@DU?$char_traits@D@std@@V?$allocator@D@2@@std@@V?$shared_ptr@VRawImageData@@@2@@std@@@std@@@std@@U_Iterator_base12@2@@std@@QAE@XZ 0040aea0 f i Button.obj
 0001:00009ec0       ??1?$_Tree_unchecked_const_iterator@V?$_Tree_val@U?$_Tree_simple_types@U?$pair@$$CBV?$basic_string@DU?$char_traits@D@std@@V?$allocator@D@2@@std@@V?$weak_ptr@VRawImageData@@@2@@std@@@std@@@std@@U_Iterator_base12@2@@std@@QAE@XZ 0040aec0 f i Button.obj
 0001:00009ee0       ??1?$basic_string@DU?$char_traits@D@std@@V?$allocator@D@2@@std@@QAE@XZ 0040aee0 f i Button.obj
 0001:00009f50       ??1?$map@V?$basic_string@DU?$char_traits@D@std@@V?$allocator@D@2@@std@@V?$weak_ptr@VRawImageData@@@2@U?$less@V?$basic_string@DU?$char_traits@D@std@@V?$allocator@D@2@@std@@@2@V?$allocator@U?$pair@$$CBV?$basic_string@DU?$char_traits@D@std@@V?$allocator@D@2@@std@@V?$weak_ptr@VRawImageData@@@2@@std@@@2@@std@@QAE@XZ 0040af50 f i Button.obj
 0001:00009f70       ??1?$pair@$$CBV?$basic_string@DU?$char_traits@D@std@@V?$allocator@D@2@@std@@V?$shared_ptr@VRawImageData@@@2@@std@@QAE@XZ 0040af70 f i Button.obj
 0001:00009fa0       ??1?$pair@$$CBV?$basic_string@DU?$char_traits@D@std@@V?$allocator@D@2@@std@@V?$weak_ptr@VRawImageData@@@2@@std@@QAE@XZ 0040afa0 f i Button.obj
 0001:00009fd0       ??1?$pair@V?$_Tree_iterator@V?$_Tree_val@U?$_Tree_simple_types@U?$pair@$$CBV?$basic_string@DU?$char_traits@D@std@@V?$allocator@D@2@@std@@V?$shared_ptr@VRawImageData@@@2@@std@@@std@@@std@@@std@@_N@std@@QAE@XZ 0040afd0 f i Button.obj
 0001:00009ff0       ??1?$pair@V?$_Tree_iterator@V?$_Tree_val@U?$_Tree_simple_types@U?$pair@$$CBV?$basic_string@DU?$char_traits@D@std@@V?$allocator@D@2@@std@@V?$weak_ptr@VRawImageData@@@2@@std@@@std@@@std@@@std@@_N@std@@QAE@XZ 0040aff0 f i Button.obj
 0001:0000a010       ??1?$pair@V?$basic_string@DU?$char_traits@D@std@@V?$allocator@D@2@@std@@V?$shared_ptr@VRawImageData@@@2@@std@@QAE@XZ 0040b010 f i Button.obj
 0001:0000a040       ??1?$pair@V?$basic_string@DU?$char_traits@D@std@@V?$allocator@D@2@@std@@V?$weak_ptr@VRawImageData@@@2@@std@@QAE@XZ 0040b040 f i Button.obj
 0001:0000a070       ??1?$shared_ptr@VRawImageData@@@std@@QAE@XZ 0040b070 f i Button.obj
 0001:0000a090       ??1?$weak_ptr@VRawImageData@@@std@@QAE@XZ 0040b090 f i Button.obj
 0001:0000a0b0       ??1Button@@UAE@XZ          0040b0b0 f i Button.obj
 0001:0000a0e0       ??1RawImageData@@QAE@XZ    0040b0e0 f i Button.obj
 0001:0000a140       ??1SimpleImage@@QAE@XZ     0040b140 f i Button.obj
 0001:0000a190       ??1_Bxty@?$_String_val@U?$_Simple_types@D@std@@@std@@QAE@XZ 0040b190 f i Button.obj
 0001:0000a1a0       ??1_Iterator_base12@std@@QAE@XZ 0040b1a0 f i Button.obj
 0001:0000a1c0       ??1_Ref_count_base@std@@UAE@XZ 0040b1c0 f i Button.obj
 0001:0000a1d0       ??1_Sentry_base@?$basic_ostream@DU?$char_traits@D@std@@@std@@QAE@XZ 0040b1d0 f i Button.obj
 0001:0000a260       ??1bad_alloc@std@@UAE@XZ   0040b260 f i Button.obj
 0001:0000a280       ??1bad_array_new_length@std@@UAE@XZ 0040b280 f i Button.obj
 0001:0000a2a0       ??1exception@std@@UAE@XZ   0040b2a0 f i Button.obj
 0001:0000a2d0       ??1sentry@?$basic_ostream@DU?$char_traits@D@std@@@std@@QAE@XZ 0040b2d0 f i Button.obj
 0001:0000a330       ??2@YAPAXIPAX@Z            0040b330 f i Button.obj
 0001:0000a340       ??4?$shared_ptr@VRawImageData@@@std@@QAEAAV01@ABV01@@Z 0040b340 f i Button.obj
 0001:0000a380       ??4SimpleImage@@QAEAAV0@ABV0@@Z 0040b380 f i Button.obj
 0001:0000a3d0       ??4_Iterator_base12@std@@QAEAAU01@ABU01@@Z 0040b3d0 f i Button.obj
 0001:0000a400       ??8?$_Tree_const_iterator@V?$_Tree_val@U?$_Tree_simple_types@U?$pair@$$CBV?$basic_string@DU?$char_traits@D@std@@V?$allocator@D@2@@std@@V?$weak_ptr@VRawImageData@@@2@@std@@@std@@@std@@@std@@QBE_NABV01@@Z 0040b400 f i Button.obj
 0001:0000a4c0       ??9?$_Tree_const_iterator@V?$_Tree_val@U?$_Tree_simple_types@U?$pair@$$CBV?$basic_string@DU?$char_traits@D@std@@V?$allocator@D@2@@std@@V?$weak_ptr@VRawImageData@@@2@@std@@@std@@@std@@@std@@QBE_NABV01@@Z 0040b4c0 f i Button.obj
 0001:0000a510       ??Bsentry@?$basic_ostream@DU?$char_traits@D@std@@@std@@QBE_NXZ 0040b510 f i Button.obj
 0001:0000a530       ??C?$_Tree_iterator@V?$_Tree_val@U?$_Tree_simple_types@U?$pair@$$CBV?$basic_string@DU?$char_traits@D@std@@V?$allocator@D@2@@std@@V?$weak_ptr@VRawImageData@@@2@@std@@@std@@@std@@@std@@QBEPAU?$pair@$$CBV?$basic_string@DU?$char_traits@D@std@@V?$allocator@D@2@@std@@V?$weak_ptr@VRawImageData@@@2@@1@XZ 0040b530 f i Button.obj
 0001:0000a560       ??D?$_Tree_const_iterator@V?$_Tree_val@U?$_Tree_simple_types@U?$pair@$$CBV?$basic_string@DU?$char_traits@D@std@@V?$allocator@D@2@@std@@V?$weak_ptr@VRawImageData@@@2@@std@@@std@@@std@@@std@@QBEABU?$pair@$$CBV?$basic_string@DU?$char_traits@D@std@@V?$allocator@D@2@@std@@V?$weak_ptr@VRawImageData@@@2@@1@XZ 0040b560 f i Button.obj
 0001:0000a670       ??D?$_Tree_iterator@V?$_Tree_val@U?$_Tree_simple_types@U?$pair@$$CBV?$basic_string@DU?$char_traits@D@std@@V?$allocator@D@2@@std@@V?$weak_ptr@VRawImageData@@@2@@std@@@std@@@std@@@std@@QBEAAU?$pair@$$CBV?$basic_string@DU?$char_traits@D@std@@V?$allocator@D@2@@std@@V?$weak_ptr@VRawImageData@@@2@@1@XZ 0040b670 f i Button.obj
 0001:0000a690       ??E?$_Tree_unchecked_const_iterator@V?$_Tree_val@U?$_Tree_simple_types@U?$pair@$$CBV?$basic_string@DU?$char_traits@D@std@@V?$allocator@D@2@@std@@V?$weak_ptr@VRawImageData@@@2@@std@@@std@@@std@@U_Iterator_base0@2@@std@@QAEAAV01@XZ 0040b690 f i Button.obj
 0001:0000a720       ??R?$less@V?$basic_string@DU?$char_traits@D@std@@V?$allocator@D@2@@std@@@std@@QBE_NABV?$basic_string@DU?$char_traits@D@std@@V?$allocator@D@2@@1@0@Z 0040b720 f i Button.obj
 0001:0000a750       ??_E?$_Ref_count@VRawImageData@@@std@@UAEPAXI@Z 0040b750 f i Button.obj
 0001:0000a750       ??_G?$_Ref_count@VRawImageData@@@std@@UAEPAXI@Z 0040b750 f i Button.obj
 0001:0000a790       ??_G?$pair@$$CBV?$basic_string@DU?$char_traits@D@std@@V?$allocator@D@2@@std@@V?$shared_ptr@VRawImageData@@@2@@std@@QAEPAXI@Z 0040b790 f i Button.obj
 0001:0000a7d0       ??_G?$pair@$$CBV?$basic_string@DU?$char_traits@D@std@@V?$allocator@D@2@@std@@V?$weak_ptr@VRawImageData@@@2@@std@@QAEPAXI@Z 0040b7d0 f i Button.obj
 0001:0000a810       ??_EButton@@UAEPAXI@Z      0040b810 f i Button.obj
 0001:0000a810       ??_GButton@@UAEPAXI@Z      0040b810 f i Button.obj
 0001:0000a850       ??_GRawImageData@@QAEPAXI@Z 0040b850 f i Button.obj
 0001:0000a890       ??_Ebad_alloc@std@@UAEPAXI@Z 0040b890 f i Button.obj
 0001:0000a890       ??_Gbad_alloc@std@@UAEPAXI@Z 0040b890 f i Button.obj
 0001:0000a8d0       ??_Ebad_array_new_length@std@@UAEPAXI@Z 0040b8d0 f i Button.obj
 0001:0000a8d0       ??_Gbad_array_new_length@std@@UAEPAXI@Z 0040b8d0 f i Button.obj
 0001:0000a910       ??_Eexception@std@@UAEPAXI@Z 0040b910 f i Button.obj
 0001:0000a910       ??_Gexception@std@@UAEPAXI@Z 0040b910 f i Button.obj
 0001:0000a950       ?_Activate_SSO_buffer@?$_String_val@U?$_Simple_types@D@std@@@std@@QAEXXZ 0040b950 f i Button.obj
 0001:0000a960       ?_Adjust_manually_vector_aligned@std@@YAXAAPAXAAI@Z 0040b960 f i Button.obj
 0001:0000aab0       ?_Adopt@_Iterator_base0@std@@QAEXPBX@Z 0040bab0 f i Button.obj
 0001:0000aac0       ?_Adopt@_Iterator_base12@std@@QAEXPBU_Container_base12@2@@Z 0040bac0 f i Button.obj
 0001:0000aae0       ?_Adopt_locked@_Iterator_base12@std@@AAEXPBU_Container_base12@2@@Z 0040bae0 f i Button.obj
 0001:0000ab20       ?_Adopt_unlocked@_Iterator_base12@std@@AAEXPBU_Container_base12@2@@Z 0040bb20 f i Button.obj
 0001:0000aba0       ?_Alloc_sentinel_and_proxy@?$_Tree@V?$_Tmap_traits@V?$basic_string@DU?$char_traits@D@std@@V?$allocator@D@2@@std@@V?$shared_ptr@VRawImageData@@@2@U?$less@V?$basic_string@DU?$char_traits@D@std@@V?$allocator@D@2@@std@@@2@V?$allocator@U?$pair@$$CBV?$basic_string@DU?$char_traits@D@std@@V?$allocator@D@2@@std@@V?$shared_ptr@VRawImageData@@@2@@std@@@2@$0A@@std@@@std@@IAEXXZ 0040bba0 f i Button.obj
 0001:0000ac70       ?_Alloc_sentinel_and_proxy@?$_Tree@V?$_Tmap_traits@V?$basic_string@DU?$char_traits@D@std@@V?$allocator@D@2@@std@@V?$weak_ptr@VRawImageData@@@2@U?$less@V?$basic_string@DU?$char_traits@D@std@@V?$allocator@D@2@@std@@@2@V?$allocator@U?$pair@$$CBV?$basic_string@DU?$char_traits@D@std@@V?$allocator@D@2@@std@@V?$weak_ptr@VRawImageData@@@2@@std@@@2@$0A@@std@@@std@@IAEXXZ 0040bc70 f i Button.obj
 0001:0000ad40       ?_Allocate@?$_Alloc_construct_ptr@V?$allocator@U?$_Tree_node@U?$pair@$$CBV?$basic_string@DU?$char_traits@D@std@@V?$allocator@D@2@@std@@V?$shared_ptr@VRawImageData@@@2@@std@@PAX@std@@@std@@@std@@QAEXXZ 0040bd40 f i Button.obj
 0001:0000ad70       ?_Allocate@?$_Alloc_construct_ptr@V?$allocator@U?$_Tree_node@U?$pair@$$CBV?$basic_string@DU?$char_traits@D@std@@V?$allocator@D@2@@std@@V?$weak_ptr@VRawImageData@@@2@@std@@PAX@std@@@std@@@std@@QAEXXZ 0040bd70 f i Button.obj
 0001:0000ada0       ?_Allocate@_Default_allocate_traits@std@@SAPAXI@Z 0040bda0 f i Button.obj
 0001:0000adc0       ?_Assign_locked@_Iterator_base12@std@@AAEXABU12@@Z 0040bdc0 f i Button.obj
 0001:0000ae00       ?_Assign_unlocked@_Iterator_base12@std@@AAEXABU12@@Z 0040be00 f i Button.obj
 0001:0000ae50       ?_Calculate_growth@?$basic_string@DU?$char_traits@D@std@@V?$allocator@D@2@@std@@CAIIII@Z 0040be50 f i Button.obj
 0001:0000aec0       ?_Check_grow_by_1@?$_Tree@V?$_Tmap_traits@V?$basic_string@DU?$char_traits@D@std@@V?$allocator@D@2@@std@@V?$shared_ptr@VRawImageData@@@2@U?$less@V?$basic_string@DU?$char_traits@D@std@@V?$allocator@D@2@@std@@@2@V?$allocator@U?$pair@$$CBV?$basic_string@DU?$char_traits@D@std@@V?$allocator@D@2@@std@@V?$shared_ptr@VRawImageData@@@2@@std@@@2@$0A@@std@@@std@@IAEXXZ 0040bec0 f i Button.obj
 0001:0000af00       ?_Check_grow_by_1@?$_Tree@V?$_Tmap_traits@V?$basic_string@DU?$char_traits@D@std@@V?$allocator@D@2@@std@@V?$weak_ptr@VRawImageData@@@2@U?$less@V?$basic_string@DU?$char_traits@D@std@@V?$allocator@D@2@@std@@@2@V?$allocator@U?$pair@$$CBV?$basic_string@DU?$char_traits@D@std@@V?$allocator@D@2@@std@@V?$weak_ptr@VRawImageData@@@2@@std@@@2@$0A@@std@@@std@@IAEXXZ 0040bf00 f i Button.obj
 0001:0000af40       ?_Deallocate_for_capacity@?$basic_string@DU?$char_traits@D@std@@V?$allocator@D@2@@std@@CAXAAV?$allocator@D@2@QADI@Z 0040bf40 f i Button.obj
 0001:0000afa0       ?_Decref@?$_Ptr_base@VRawImageData@@@std@@IAEXXZ 0040bfa0 f i Button.obj
 0001:0000afd0       ?_Decref@_Ref_count_base@std@@QAEXXZ 0040bfd0 f i Button.obj
 0001:0000b010       ?_Decwref@?$_Ptr_base@VRawImageData@@@std@@IAEXXZ 0040c010 f i Button.obj
 0001:0000b040       ?_Decwref@_Ref_count_base@std@@QAEXXZ 0040c040 f i Button.obj
 0001:0000b080       ?_Delete_this@?$_Ref_count@VRawImageData@@@std@@EAEXXZ 0040c080 f i Button.obj
 0001:0000b0d0       ?_Destroy@?$_Ref_count@VRawImageData@@@std@@EAEXXZ 0040c0d0 f i Button.obj
 0001:0000b110       ?_Erase_unchecked@?$_Tree@V?$_Tmap_traits@V?$basic_string@DU?$char_traits@D@std@@V?$allocator@D@2@@std@@V?$weak_ptr@VRawImageData@@@2@U?$less@V?$basic_string@DU?$char_traits@D@std@@V?$allocator@D@2@@std@@@2@V?$allocator@U?$pair@$$CBV?$basic_string@DU?$char_traits@D@std@@V?$allocator@D@2@@std@@V?$weak_ptr@VRawImageData@@@2@@std@@@2@$0A@@std@@@std@@AAEPAU?$_Tree_node@U?$pair@$$CBV?$basic_string@DU?$char_traits@D@std@@V?$allocator@D@2@@std@@V?$weak_ptr@VRawImageData@@@2@@std@@PAX@2@V?$_Tree_unchecked_const_iterator@V?$_Tree_val@U?$_Tree_simple_types@U?$pair@$$CBV?$basic_string@DU?$char_traits@D@std@@V?$allocator@D@2@@std@@V?$weak_ptr@VRawImageData@@@2@@std@@@std@@@std@@U_Iterator_base0@2@@2@@Z 0040c110 f i Button.obj
 0001:0000b190       ?_Extract@?$_In_place_key_extract_map@V?$basic_string@DU?$char_traits@D@std@@V?$allocator@D@2@@std@@U?$pair@V?$basic_string@DU?$char_traits@D@std@@V?$allocator@D@2@@std@@V?$shared_ptr@VRawImageData@@@2@@2@@std@@SAABV?$basic_string@DU?$char_traits@D@std@@V?$allocator@D@2@@2@ABU?$pair@V?$basic_string@DU?$char_traits@D@std@@V?$allocator@D@2@@std@@V?$shared_ptr@VRawImageData@@@2@@2@@Z 0040c190 f i Button.obj
 0001:0000b1a0       ?_Extract@?$_In_place_key_extract_map@V?$basic_string@DU?$char_traits@D@std@@V?$allocator@D@2@@std@@U?$pair@V?$basic_string@DU?$char_traits@D@std@@V?$allocator@D@2@@std@@V?$weak_ptr@VRawImageData@@@2@@2@@std@@SAABV?$basic_string@DU?$char_traits@D@std@@V?$allocator@D@2@@2@ABU?$pair@V?$basic_string@DU?$char_traits@D@std@@V?$allocator@D@2@@std@@V?$weak_ptr@VRawImageData@@@2@@2@@Z 0040c1a0 f i Button.obj
 0001:0000b1b0       ?_Extract@?$_Tree_val@U?$_Tree_simple_types@U?$pair@$$CBV?$basic_string@DU?$char_traits@D@std@@V?$allocator@D@2@@std@@V?$weak_ptr@VRawImageData@@@2@@std@@@std@@@std@@QAEPAU?$_Tree_node@U?$pair@$$CBV?$basic_string@DU?$char_traits@D@std@@V?$allocator@D@2@@std@@V?$weak_ptr@VRawImageData@@@2@@std@@PAX@2@V?$_Tree_unchecked_const_iterator@V?$_Tree_val@U?$_Tree_simple_types@U?$pair@$$CBV?$basic_string@DU?$char_traits@D@std@@V?$allocator@D@2@@std@@V?$weak_ptr@VRawImageData@@@2@@std@@@std@@@std@@U_Iterator_base0@2@@2@@Z 0040c1b0 f i Button.obj
 0001:0000b6f0       ?_Get_deleter@_Ref_count_base@std@@UBEPAXABVtype_info@@@Z 0040c6f0 f i Button.obj
 0001:0000b710       ?_Get_first@?$_Compressed_pair@U?$less@V?$basic_string@DU?$char_traits@D@std@@V?$allocator@D@2@@std@@@std@@V?$_Compressed_pair@V?$allocator@U?$_Tree_node@U?$pair@$$CBV?$basic_string@DU?$char_traits@D@std@@V?$allocator@D@2@@std@@V?$shared_ptr@VRawImageData@@@2@@std@@PAX@std@@@std@@V?$_Tree_val@U?$_Tree_simple_types@U?$pair@$$CBV?$basic_string@DU?$char_traits@D@std@@V?$allocator@D@2@@std@@V?$shared_ptr@VRawImageData@@@2@@std@@@std@@@2@$00@2@$00@std@@QBEABU?$less@V?$basic_string@DU?$char_traits@D@std@@V?$allocator@D@2@@std@@@2@XZ 0040c710 f i Button.obj
 0001:0000b730       ?_Get_first@?$_Compressed_pair@U?$less@V?$basic_string@DU?$char_traits@D@std@@V?$allocator@D@2@@std@@@std@@V?$_Compressed_pair@V?$allocator@U?$_Tree_node@U?$pair@$$CBV?$basic_string@DU?$char_traits@D@std@@V?$allocator@D@2@@std@@V?$weak_ptr@VRawImageData@@@2@@std@@PAX@std@@@std@@V?$_Tree_val@U?$_Tree_simple_types@U?$pair@$$CBV?$basic_string@DU?$char_traits@D@std@@V?$allocator@D@2@@std@@V?$weak_ptr@VRawImageData@@@2@@std@@@std@@@2@$00@2@$00@std@@QBEABU?$less@V?$basic_string@DU?$char_traits@D@std@@V?$allocator@D@2@@std@@@2@XZ 0040c730 f i Button.obj
 0001:0000b750       ?_Get_first@?$_Compressed_pair@V?$allocator@D@std@@V?$_String_val@U?$_Simple_types@D@std@@@2@$00@std@@QAEAAV?$allocator@D@2@XZ 0040c750 f i Button.obj
 0001:0000b770       ?_Get_first@?$_Compressed_pair@V?$allocator@D@std@@V?$_String_val@U?$_Simple_types@D@std@@@2@$00@std@@QBEABV?$allocator@D@2@XZ 0040c770 f i Button.obj
 0001:0000b790       ?_Get_first@?$_Compressed_pair@V?$allocator@U?$_Tree_node@U?$pair@$$CBV?$basic_string@DU?$char_traits@D@std@@V?$allocator@D@2@@std@@V?$shared_ptr@VRawImageData@@@2@@std@@PAX@std@@@std@@V?$_Tree_val@U?$_Tree_simple_types@U?$pair@$$CBV?$basic_string@DU?$char_traits@D@std@@V?$allocator@D@2@@std@@V?$shared_ptr@VRawImageData@@@2@@std@@@std@@@2@$00@std@@QAEAAV?$allocator@U?$_Tree_node@U?$pair@$$CBV?$basic_string@DU?$char_traits@D@std@@V?$allocator@D@2@@std@@V?$shared_ptr@VRawImageData@@@2@@std@@PAX@std@@@2@XZ 0040c790 f i Button.obj
 0001:0000b7b0       ?_Get_first@?$_Compressed_pair@V?$allocator@U?$_Tree_node@U?$pair@$$CBV?$basic_string@DU?$char_traits@D@std@@V?$allocator@D@2@@std@@V?$shared_ptr@VRawImageData@@@2@@std@@PAX@std@@@std@@V?$_Tree_val@U?$_Tree_simple_types@U?$pair@$$CBV?$basic_string@DU?$char_traits@D@std@@V?$allocator@D@2@@std@@V?$shared_ptr@VRawImageData@@@2@@std@@@std@@@2@$00@std@@QBEABV?$allocator@U?$_Tree_node@U?$pair@$$CBV?$basic_string@DU?$char_traits@D@std@@V?$allocator@D@2@@std@@V?$shared_ptr@VRawImageData@@@2@@std@@PAX@std@@@2@XZ 0040c7b0 f i Button.obj
 0001:0000b7d0       ?_Get_first@?$_Compressed_pair@V?$allocator@U?$_Tree_node@U?$pair@$$CBV?$basic_string@DU?$char_traits@D@std@@V?$allocator@D@2@@std@@V?$weak_ptr@VRawImageData@@@2@@std@@PAX@std@@@std@@V?$_Tree_val@U?$_Tree_simple_types@U?$pair@$$CBV?$basic_string@DU?$char_traits@D@std@@V?$allocator@D@2@@std@@V?$weak_ptr@VRawImageData@@@2@@std@@@std@@@2@$00@std@@QAEAAV?$allocator@U?$_Tree_node@U?$pair@$$CBV?$basic_string@DU?$char_traits@D@std@@V?$allocator@D@2@@std@@V?$weak_ptr@VRawImageData@@@2@@std@@PAX@std@@@2@XZ 0040c7d0 f i Button.obj
 0001:0000b7f0       ?_Get_first@?$_Compressed_pair@V?$allocator@U?$_Tree_node@U?$pair@$$CBV?$basic_string@DU?$char_traits@D@std@@V?$allocator@D@2@@std@@V?$weak_ptr@VRawImageData@@@2@@std@@PAX@std@@@std@@V?$_Tree_val@U?$_Tree_simple_types@U?$pair@$$CBV?$basic_string@DU?$char_traits@D@std@@V?$allocator@D@2@@std@@V?$weak_ptr@VRawImageData@@@2@@std@@@std@@@2@$00@std@@QBEABV?$allocator@U?$_Tree_node@U?$pair@$$CBV?$basic_string@DU?$char_traits@D@std@@V?$allocator@D@2@@std@@V?$weak_ptr@VRawImageData@@@2@@std@@PAX@std@@@2@XZ 0040c7f0 f i Button.obj
 0001:0000b810       ?_Get_scary@?$_Tree@V?$_Tmap_traits@V?$basic_string@DU?$char_traits@D@std@@V?$allocator@D@2@@std@@V?$shared_ptr@VRawImageData@@@2@U?$less@V?$basic_string@DU?$char_traits@D@std@@V?$allocator@D@2@@std@@@2@V?$allocator@U?$pair@$$CBV?$basic_string@DU?$char_traits@D@std@@V?$allocator@D@2@@std@@V?$shared_ptr@VRawImageData@@@2@@std@@@2@$0A@@std@@@std@@IAEPAV?$_Tree_val@U?$_Tree_simple_types@U?$pair@$$CBV?$basic_string@DU?$char_traits@D@std@@V?$allocator@D@2@@std@@V?$shared_ptr@VRawImageData@@@2@@std@@@std@@@2@XZ 0040c810 f i Button.obj
 0001:0000b830       ?_Get_scary@?$_Tree@V?$_Tmap_traits@V?$basic_string@DU?$char_traits@D@std@@V?$allocator@D@2@@std@@V?$shared_ptr@VRawImageData@@@2@U?$less@V?$basic_string@DU?$char_traits@D@std@@V?$allocator@D@2@@std@@@2@V?$allocator@U?$pair@$$CBV?$basic_string@DU?$char_traits@D@std@@V?$allocator@D@2@@std@@V?$shared_ptr@VRawImageData@@@2@@std@@@2@$0A@@std@@@std@@IBEPBV?$_Tree_val@U?$_Tree_simple_types@U?$pair@$$CBV?$basic_string@DU?$char_traits@D@std@@V?$allocator@D@2@@std@@V?$shared_ptr@VRawImageData@@@2@@std@@@std@@@2@XZ 0040c830 f i Button.obj
 0001:0000b850       ?_Get_scary@?$_Tree@V?$_Tmap_traits@V?$basic_string@DU?$char_traits@D@std@@V?$allocator@D@2@@std@@V?$weak_ptr@VRawImageData@@@2@U?$less@V?$basic_string@DU?$char_traits@D@std@@V?$allocator@D@2@@std@@@2@V?$allocator@U?$pair@$$CBV?$basic_string@DU?$char_traits@D@std@@V?$allocator@D@2@@std@@V?$weak_ptr@VRawImageData@@@2@@std@@@2@$0A@@std@@@std@@IAEPAV?$_Tree_val@U?$_Tree_simple_types@U?$pair@$$CBV?$basic_string@DU?$char_traits@D@std@@V?$allocator@D@2@@std@@V?$weak_ptr@VRawImageData@@@2@@std@@@std@@@2@XZ 0040c850 f i Button.obj
 0001:0000b870       ?_Get_scary@?$_Tree@V?$_Tmap_traits@V?$basic_string@DU?$char_traits@D@std@@V?$allocator@D@2@@std@@V?$weak_ptr@VRawImageData@@@2@U?$less@V?$basic_string@DU?$char_traits@D@std@@V?$allocator@D@2@@std@@@2@V?$allocator@U?$pair@$$CBV?$basic_string@DU?$char_traits@D@std@@V?$allocator@D@2@@std@@V?$weak_ptr@VRawImageData@@@2@@std@@@2@$0A@@std@@@std@@IBEPBV?$_Tree_val@U?$_Tree_simple_types@U?$pair@$$CBV?$basic_string@DU?$char_traits@D@std@@V?$allocator@D@2@@std@@V?$weak_ptr@VRawImageData@@@2@@std@@@std@@@2@XZ 0040c870 f i Button.obj
 0001:0000b890       ?_Getal@?$_Tree@V?$_Tmap_traits@V?$basic_string@DU?$char_traits@D@std@@V?$allocator@D@2@@std@@V?$shared_ptr@VRawImageData@@@2@U?$less@V?$basic_string@DU?$char_traits@D@std@@V?$allocator@D@2@@std@@@2@V?$allocator@U?$pair@$$CBV?$basic_string@DU?$char_traits@D@std@@V?$allocator@D@2@@std@@V?$shared_ptr@VRawImageData@@@2@@std@@@2@$0A@@std@@@std@@IAEAAV?$allocator@U?$_Tree_node@U?$pair@$$CBV?$basic_string@DU?$char_traits@D@std@@V?$allocator@D@2@@std@@V?$shared_ptr@VRawImageData@@@2@@std@@PAX@std@@@2@XZ 0040c890 f i Button.obj
 0001:0000b8b0       ?_Getal@?$_Tree@V?$_Tmap_traits@V?$basic_string@DU?$char_traits@D@std@@V?$allocator@D@2@@std@@V?$shared_ptr@VRawImageData@@@2@U?$less@V?$basic_string@DU?$char_traits@D@std@@V?$allocator@D@2@@std@@@2@V?$allocator@U?$pair@$$CBV?$basic_string@DU?$char_traits@D@std@@V?$allocator@D@2@@std@@V?$shared_ptr@VRawImageData@@@2@@std@@@2@$0A@@std@@@std@@IBEABV?$allocator@U?$_Tree_node@U?$pair@$$CBV?$basic_string@DU?$char_traits@D@std@@V?$allocator@D@2@@std@@V?$shared_ptr@VRawImageData@@@2@@std@@PAX@std@@@2@XZ 0040c8b0 f i Button.obj
 0001:0000b8d0       ?_Getal@?$_Tree@V?$_Tmap_traits@V?$basic_string@DU?$char_traits@D@std@@V?$allocator@D@2@@std@@V?$weak_ptr@VRawImageData@@@2@U?$less@V?$basic_string@DU?$char_traits@D@std@@V?$allocator@D@2@@std@@@2@V?$allocator@U?$pair@$$CBV?$basic_string@DU?$char_traits@D@std@@V?$allocator@D@2@@std@@V?$weak_ptr@VRawImageData@@@2@@std@@@2@$0A@@std@@@std@@IAEAAV?$allocator@U?$_Tree_node@U?$pair@$$CBV?$basic_string@DU?$char_traits@D@std@@V?$allocator@D@2@@std@@V?$weak_ptr@VRawImageData@@@2@@std@@PAX@std@@@2@XZ 0040c8d0 f i Button.obj
 0001:0000b8f0       ?_Getal@?$_Tree@V?$_Tmap_traits@V?$basic_string@DU?$char_traits@D@std@@V?$allocator@D@2@@std@@V?$weak_ptr@VRawImageData@@@2@U?$less@V?$basic_string@DU?$char_traits@D@std@@V?$allocator@D@2@@std@@@2@V?$allocator@U?$pair@$$CBV?$basic_string@DU?$char_traits@D@std@@V?$allocator@D@2@@std@@V?$weak_ptr@VRawImageData@@@2@@std@@@2@$0A@@std@@@std@@IBEABV?$allocator@U?$_Tree_node@U?$pair@$$CBV?$basic_string@DU?$char_traits@D@std@@V?$allocator@D@2@@std@@V?$weak_ptr@VRawImageData@@@2@@std@@PAX@std@@@2@XZ 0040c8f0 f i Button.obj
 0001:0000b910       ?_Getal@?$basic_string@DU?$char_traits@D@std@@V?$allocator@D@2@@std@@AAEAAV?$allocator@D@2@XZ 0040c910 f i Button.obj
 0001:0000b930       ?_Getal@?$basic_string@DU?$char_traits@D@std@@V?$allocator@D@2@@std@@ABEABV?$allocator@D@2@XZ 0040c930 f i Button.obj
 0001:0000b950       ?_Getcomp@?$_Tree@V?$_Tmap_traits@V?$basic_string@DU?$char_traits@D@std@@V?$allocator@D@2@@std@@V?$shared_ptr@VRawImageData@@@2@U?$less@V?$basic_string@DU?$char_traits@D@std@@V?$allocator@D@2@@std@@@2@V?$allocator@U?$pair@$$CBV?$basic_string@DU?$char_traits@D@std@@V?$allocator@D@2@@std@@V?$shared_ptr@VRawImageData@@@2@@std@@@2@$0A@@std@@@std@@IBEABU?$less@V?$basic_string@DU?$char_traits@D@std@@V?$allocator@D@2@@std@@@2@XZ 0040c950 f i Button.obj
 0001:0000b970       ?_Getcomp@?$_Tree@V?$_Tmap_traits@V?$basic_string@DU?$char_traits@D@std@@V?$allocator@D@2@@std@@V?$weak_ptr@VRawImageData@@@2@U?$less@V?$basic_string@DU?$char_traits@D@std@@V?$allocator@D@2@@std@@@2@V?$allocator@U?$pair@$$CBV?$basic_string@DU?$char_traits@D@std@@V?$allocator@D@2@@std@@V?$weak_ptr@VRawImageData@@@2@@std@@@2@$0A@@std@@@std@@IBEABU?$less@V?$basic_string@DU?$char_traits@D@std@@V?$allocator@D@2@@std@@@2@XZ 0040c970 f i Button.obj
 0001:0000b990       ?_Getcont@_Iterator_base12@std@@QBEPBU_Container_base12@2@XZ 0040c990 f i Button.obj
 0001:0000b9d0       ?_Incref@?$_Ptr_base@VRawImageData@@@std@@IBEXXZ 0040c9d0 f i Button.obj
 0001:0000ba00       ?_Incref@_Ref_count_base@std@@QAEXXZ 0040ca00 f i Button.obj
 0001:0000ba20       ?_Incref_nz@_Ref_count_base@std@@QAE_NXZ 0040ca20 f i Button.obj
 0001:0000ba90       ?_Incwref@_Ref_count_base@std@@QAEXXZ 0040ca90 f i Button.obj
 0001:0000bab0       ?_Insert_node@?$_Tree_val@U?$_Tree_simple_types@U?$pair@$$CBV?$basic_string@DU?$char_traits@D@std@@V?$allocator@D@2@@std@@V?$shared_ptr@VRawImageData@@@2@@std@@@std@@@std@@QAEPAU?$_Tree_node@U?$pair@$$CBV?$basic_string@DU?$char_traits@D@std@@V?$allocator@D@2@@std@@V?$shared_ptr@VRawImageData@@@2@@std@@PAX@2@U?$_Tree_id@PAU?$_Tree_node@U?$pair@$$CBV?$basic_string@DU?$char_traits@D@std@@V?$allocator@D@2@@std@@V?$shared_ptr@VRawImageData@@@2@@std@@PAX@std@@@2@QAU32@@Z 0040cab0 f i Button.obj
 0001:0000bd40       ?_Insert_node@?$_Tree_val@U?$_Tree_simple_types@U?$pair@$$CBV?$basic_string@DU?$char_traits@D@std@@V?$allocator@D@2@@std@@V?$weak_ptr@VRawImageData@@@2@@std@@@std@@@std@@QAEPAU?$_Tree_node@U?$pair@$$CBV?$basic_string@DU?$char_traits@D@std@@V?$allocator@D@2@@std@@V?$weak_ptr@VRawImageData@@@2@@std@@PAX@2@U?$_Tree_id@PAU?$_Tree_node@U?$pair@$$CBV?$basic_string@DU?$char_traits@D@std@@V?$allocator@D@2@@std@@V?$weak_ptr@VRawImageData@@@2@@std@@PAX@std@@@2@QAU32@@Z 0040cd40 f i Button.obj
 0001:0000bfd0       ?_Large_mode_engaged@?$_String_val@U?$_Simple_types@D@std@@@std@@QBE_NXZ 0040cfd0 f i Button.obj
 0001:0000c010       ?_Lrotate@?$_Tree_val@U?$_Tree_simple_types@U?$pair@$$CBV?$basic_string@DU?$char_traits@D@std@@V?$allocator@D@2@@std@@V?$shared_ptr@VRawImageData@@@2@@std@@@std@@@std@@QAEXPAU?$_Tree_node@U?$pair@$$CBV?$basic_string@DU?$char_traits@D@std@@V?$allocator@D@2@@std@@V?$shared_ptr@VRawImageData@@@2@@std@@PAX@2@@Z 0040d010 f i Button.obj
 0001:0000c0d0       ?_Lrotate@?$_Tree_val@U?$_Tree_simple_types@U?$pair@$$CBV?$basic_string@DU?$char_traits@D@std@@V?$allocator@D@2@@std@@V?$weak_ptr@VRawImageData@@@2@@std@@@std@@@std@@QAEXPAU?$_Tree_node@U?$pair@$$CBV?$basic_string@DU?$char_traits@D@std@@V?$allocator@D@2@@std@@V?$weak_ptr@VRawImageData@@@2@@std@@PAX@2@@Z 0040d0d0 f i Button.obj
 0001:0000c190       ?_Max@?$_Tree_val@U?$_Tree_simple_types@U?$pair@$$CBV?$basic_string@DU?$char_traits@D@std@@V?$allocator@D@2@@std@@V?$weak_ptr@VRawImageData@@@2@@std@@@std@@@std@@SAPAU?$_Tree_node@U?$pair@$$CBV?$basic_string@DU?$char_traits@D@std@@V?$allocator@D@2@@std@@V?$weak_ptr@VRawImageData@@@2@@std@@PAX@2@PAU32@@Z 0040d190 f i Button.obj
 0001:0000c1c0       ?_Min@?$_Tree_val@U?$_Tree_simple_types@U?$pair@$$CBV?$basic_string@DU?$char_traits@D@std@@V?$allocator@D@2@@std@@V?$weak_ptr@VRawImageData@@@2@@std@@@std@@@std@@SAPAU?$_Tree_node@U?$pair@$$CBV?$basic_string@DU?$char_traits@D@std@@V?$allocator@D@2@@std@@V?$weak_ptr@VRawImageData@@@2@@std@@PAX@2@PAU32@@Z 0040d1c0 f i Button.obj
 0001:0000c1f0       ?_Myptr@?$_String_val@U?$_Simple_types@D@std@@@std@@QBEPBDXZ 0040d1f0 f i Button.obj
 0001:0000c240       ?_Orphan_all@_Container_base12@std@@QAEXXZ 0040d240 f i Button.obj
 0001:0000c260       ?_Orphan_all_locked_v3@_Container_base12@std@@AAEXXZ 0040d260 f i Button.obj
 0001:0000c2a0       ?_Orphan_all_unlocked_v3@_Container_base12@std@@AAEXXZ 0040d2a0 f i Button.obj
 0001:0000c310       ?_Orphan_me_locked_v3@_Iterator_base12@std@@AAEXXZ 0040d310 f i Button.obj
 0001:0000c350       ?_Orphan_me_unlocked_v3@_Iterator_base12@std@@AAEXXZ 0040d350 f i Button.obj
 0001:0000c430       ?_Orphan_ptr@?$_Tree_val@U?$_Tree_simple_types@U?$pair@$$CBV?$basic_string@DU?$char_traits@D@std@@V?$allocator@D@2@@std@@V?$weak_ptr@VRawImageData@@@2@@std@@@std@@@std@@QAEXQAU?$_Tree_node@U?$pair@$$CBV?$basic_string@DU?$char_traits@D@std@@V?$allocator@D@2@@std@@V?$weak_ptr@VRawImageData@@@2@@std@@PAX@2@@Z 0040d430 f i Button.obj
 0001:0000c4e0       ?_Release@?$_Alloc_construct_ptr@V?$allocator@U?$_Tree_node@U?$pair@$$CBV?$basic_string@DU?$char_traits@D@std@@V?$allocator@D@2@@std@@V?$shared_ptr@VRawImageData@@@2@@std@@PAX@std@@@std@@@std@@QAEPAU?$_Tree_node@U?$pair@$$CBV?$basic_string@DU?$char_traits@D@std@@V?$allocator@D@2@@std@@V?$shared_ptr@VRawImageData@@@2@@std@@PAX@2@XZ 0040d4e0 f i Button.obj
 0001:0000c510       ?_Release@?$_Alloc_construct_ptr@V?$allocator@U?$_Tree_node@U?$pair@$$CBV?$basic_string@DU?$char_traits@D@std@@V?$allocator@D@2@@std@@V?$weak_ptr@VRawImageData@@@2@@std@@PAX@std@@@std@@@std@@QAEPAU?$_Tree_node@U?$pair@$$CBV?$basic_string@DU?$char_traits@D@std@@V?$allocator@D@2@@std@@V?$weak_ptr@VRawImageData@@@2@@std@@PAX@2@XZ 0040d510 f i Button.obj
 0001:0000c540       ?_Release@_Basic_container_proxy_ptr12@std@@QAEXXZ 0040d540 f i Button.obj
 0001:0000c560       ?_Rrotate@?$_Tree_val@U?$_Tree_simple_types@U?$pair@$$CBV?$basic_string@DU?$char_traits@D@std@@V?$allocator@D@2@@std@@V?$shared_ptr@VRawImageData@@@2@@std@@@std@@@std@@QAEXPAU?$_Tree_node@U?$pair@$$CBV?$basic_string@DU?$char_traits@D@std@@V?$allocator@D@2@@std@@V?$shared_ptr@VRawImageData@@@2@@std@@PAX@2@@Z 0040d560 f i Button.obj
 0001:0000c630       ?_Rrotate@?$_Tree_val@U?$_Tree_simple_types@U?$pair@$$CBV?$basic_string@DU?$char_traits@D@std@@V?$allocator@D@2@@std@@V?$weak_ptr@VRawImageData@@@2@@std@@@std@@@std@@QAEXPAU?$_Tree_node@U?$pair@$$CBV?$basic_string@DU?$char_traits@D@std@@V?$allocator@D@2@@std@@V?$weak_ptr@VRawImageData@@@2@@std@@PAX@2@@Z 0040d630 f i Button.obj
 0001:0000c700       ?_Swap@?$_Ptr_base@VRawImageData@@@std@@IAEXAAV12@@Z 0040d700 f i Button.obj
 0001:0000c740       ?_Swap_proxy_and_iterators@?$basic_string@DU?$char_traits@D@std@@V?$allocator@D@2@@std@@AAEXAAV12@@Z 0040d740 f i Button.obj
 0001:0000c760       ?_Swap_proxy_and_iterators@_Container_base12@std@@QAEXAAU12@@Z 0040d760 f i Button.obj
 0001:0000c780       ?_Swap_proxy_and_iterators_locked@_Container_base12@std@@AAEXAAU12@@Z 0040d780 f i Button.obj
 0001:0000c7c0       ?_Swap_proxy_and_iterators_unlocked@_Container_base12@std@@AAEXAAU12@@Z 0040d7c0 f i Button.obj
 0001:0000c820       ?_Switch_to_buf@_Bxty@?$_String_val@U?$_Simple_types@D@std@@@std@@QAEXXZ 0040d820 f i Button.obj
 0001:0000c840       ?_Take_contents@?$basic_string@DU?$char_traits@D@std@@V?$allocator@D@2@@std@@AAEXAAV12@@Z 0040d840 f i Button.obj
 0001:0000ca10       ?_Throw_bad_array_new_length@std@@YAXXZ 0040da10 f i Button.obj
 0001:0000ca40       ?_Throw_tree_length_error@std@@YAXXZ 0040da40 f i Button.obj
 0001:0000ca60       ?_Tidy_deallocate@?$basic_string@DU?$char_traits@D@std@@V?$allocator@D@2@@std@@AAEXXZ 0040da60 f i Button.obj
 0001:0000cb20       ?_Unwrapped@?$_Tree_iterator@V?$_Tree_val@U?$_Tree_simple_types@U?$pair@$$CBV?$basic_string@DU?$char_traits@D@std@@V?$allocator@D@2@@std@@V?$weak_ptr@VRawImageData@@@2@@std@@@std@@@std@@@std@@QBE?AV?$_Tree_unchecked_iterator@V?$_Tree_val@U?$_Tree_simple_types@U?$pair@$$CBV?$basic_string@DU?$char_traits@D@std@@V?$allocator@D@2@@std@@V?$weak_ptr@VRawImageData@@@2@@std@@@std@@@std@@@2@XZ 0040db20 f i Button.obj
 0001:0000cb60       ?_Use_count@_Ref_count_base@std@@QBEJXZ 0040db60 f i Button.obj
 0001:0000cb80       ?_Xlen_string@std@@YAXXZ   0040db80 f i Button.obj
 0001:0000cba0       ?__empty_global_delete@@YAXPAX@Z 0040dba0 f i Button.obj
 0001:0000cbb0       ?__empty_global_delete@@YAXPAXI@Z 0040dbb0 f i Button.obj
 0001:0000cbb0       ?__global_delete@@YAXPAXI@Z 0040dbb0 f i Button.obj
 0001:0000cbc0       ?allocate@?$allocator@D@std@@QAEPADI@Z 0040dbc0 f i Button.obj
 0001:0000cbf0       ?allocate@?$allocator@U?$_Tree_node@U?$pair@$$CBV?$basic_string@DU?$char_traits@D@std@@V?$allocator@D@2@@std@@V?$shared_ptr@VRawImageData@@@2@@std@@PAX@std@@@std@@QAEPAU?$_Tree_node@U?$pair@$$CBV?$basic_string@DU?$char_traits@D@std@@V?$allocator@D@2@@std@@V?$shared_ptr@VRawImageData@@@2@@std@@PAX@2@I@Z 0040dbf0 f i Button.obj
 0001:0000cc20       ?allocate@?$allocator@U?$_Tree_node@U?$pair@$$CBV?$basic_string@DU?$char_traits@D@std@@V?$allocator@D@2@@std@@V?$weak_ptr@VRawImageData@@@2@@std@@PAX@std@@@std@@QAEPAU?$_Tree_node@U?$pair@$$CBV?$basic_string@DU?$char_traits@D@std@@V?$allocator@D@2@@std@@V?$weak_ptr@VRawImageData@@@2@@std@@PAX@2@I@Z 0040dc20 f i Button.obj
 0001:0000cc50       ?allocate@?$allocator@U_Container_proxy@std@@@std@@QAEPAU_Container_proxy@2@I@Z 0040dc50 f i Button.obj
 0001:0000cc80       ?assign@?$_Narrow_char_traits@DH@std@@SAXAADABD@Z 0040dc80 f i Button.obj
 0001:0000cca0       ?c_str@?$basic_string@DU?$char_traits@D@std@@V?$allocator@D@2@@std@@QBEPBDXZ 0040dca0 f i Button.obj
 0001:0000ccc0       ?compare@?$_Narrow_char_traits@DH@std@@SAHQBD0I@Z 0040dcc0 f i Button.obj
 0001:0000cce0       ?compare@?$basic_string@DU?$char_traits@D@std@@V?$allocator@D@2@@std@@QBEHABV12@@Z 0040dce0 f i Button.obj
 0001:0000cd30       ?copy@?$_Char_traits@DH@std@@SAPADQADQBDI@Z 0040dd30 f i Button.obj
 0001:0000cd60       ?data@?$basic_string@DU?$char_traits@D@std@@V?$allocator@D@2@@std@@QBEPBDXZ 0040dd60 f i Button.obj
 0001:0000cd80       ?deallocate@?$_Default_allocator_traits@V?$allocator@U?$_Tree_node@U?$pair@$$CBV?$basic_string@DU?$char_traits@D@std@@V?$allocator@D@2@@std@@V?$weak_ptr@VRawImageData@@@2@@std@@PAX@std@@@std@@@std@@SAXAAV?$allocator@U?$_Tree_node@U?$pair@$$CBV?$basic_string@DU?$char_traits@D@std@@V?$allocator@D@2@@std@@V?$weak_ptr@VRawImageData@@@2@@std@@PAX@std@@@2@QAU?$_Tree_node@U?$pair@$$CBV?$basic_string@DU?$char_traits@D@std@@V?$allocator@D@2@@std@@V?$weak_ptr@VRawImageData@@@2@@std@@PAX@2@I@Z 0040dd80 f i Button.obj
 0001:0000cda0       ?deallocate@?$_Default_allocator_traits@V?$allocator@U_Container_proxy@std@@@std@@@std@@SAXAAV?$allocator@U_Container_proxy@std@@@2@QAU_Container_proxy@2@I@Z 0040dda0 f i Button.obj
 0001:0000cdc0       ?deallocate@?$allocator@D@std@@QAEXQADI@Z 0040ddc0 f i Button.obj
 0001:0000ce60       ?deallocate@?$allocator@U?$_Tree_node@U?$pair@$$CBV?$basic_string@DU?$char_traits@D@std@@V?$allocator@D@2@@std@@V?$shared_ptr@VRawImageData@@@2@@std@@PAX@std@@@std@@QAEXQAU?$_Tree_node@U?$pair@$$CBV?$basic_string@DU?$char_traits@D@std@@V?$allocator@D@2@@std@@V?$shared_ptr@VRawImageData@@@2@@std@@PAX@2@I@Z 0040de60 f i Button.obj
 0001:0000cf00       ?deallocate@?$allocator@U?$_Tree_node@U?$pair@$$CBV?$basic_string@DU?$char_traits@D@std@@V?$allocator@D@2@@std@@V?$weak_ptr@VRawImageData@@@2@@std@@PAX@std@@@std@@QAEXQAU?$_Tree_node@U?$pair@$$CBV?$basic_string@DU?$char_traits@D@std@@V?$allocator@D@2@@std@@V?$weak_ptr@VRawImageData@@@2@@std@@PAX@2@I@Z 0040df00 f i Button.obj
 0001:0000cfa0       ?deleteOnRemoval@DisplayableObject@@UBE_NXZ 0040dfa0 f i Button.obj
 0001:0000cfc0       ?drawForegroundString@BaseEngine@@QAEXHHPBDIPAVFont@@@Z 0040dfc0 f i Button.obj
 0001:0000d000       ?end@?$_Tree@V?$_Tmap_traits@V?$basic_string@DU?$char_traits@D@std@@V?$allocator@D@2@@std@@V?$weak_ptr@VRawImageData@@@2@U?$less@V?$basic_string@DU?$char_traits@D@std@@V?$allocator@D@2@@std@@@2@V?$allocator@U?$pair@$$CBV?$basic_string@DU?$char_traits@D@std@@V?$allocator@D@2@@std@@V?$weak_ptr@VRawImageData@@@2@@std@@@2@$0A@@std@@@std@@QAE?AV?$_Tree_iterator@V?$_Tree_val@U?$_Tree_simple_types@U?$pair@$$CBV?$basic_string@DU?$char_traits@D@std@@V?$allocator@D@2@@std@@V?$weak_ptr@VRawImageData@@@2@@std@@@std@@@std@@@2@XZ 0040e000 f i Button.obj
 0001:0000d040       ?eof@?$_Narrow_char_traits@DH@std@@SAHXZ 0040e040 f i Button.obj
 0001:0000d050       ?eq_int_type@?$_Narrow_char_traits@DH@std@@SA_NHH@Z 0040e050 f i Button.obj
 0001:0000d080       ?expired@?$weak_ptr@VRawImageData@@@std@@QBE_NXZ 0040e080 f i Button.obj
 0001:0000d0c0       ?find@?$_Tree@V?$_Tmap_traits@V?$basic_string@DU?$char_traits@D@std@@V?$allocator@D@2@@std@@V?$weak_ptr@VRawImageData@@@2@U?$less@V?$basic_string@DU?$char_traits@D@std@@V?$allocator@D@2@@std@@@2@V?$allocator@U?$pair@$$CBV?$basic_string@DU?$char_traits@D@std@@V?$allocator@D@2@@std@@V?$weak_ptr@VRawImageData@@@2@@std@@@2@$0A@@std@@@std@@QAE?AV?$_Tree_iterator@V?$_Tree_val@U?$_Tree_simple_types@U?$pair@$$CBV?$basic_string@DU?$char_traits@D@std@@V?$allocator@D@2@@std@@V?$weak_ptr@VRawImageData@@@2@@std@@@std@@@std@@@2@ABV?$basic_string@DU?$char_traits@D@std@@V?$allocator@D@2@@2@@Z 0040e0c0 f i Button.obj
 0001:0000d110       ?freeSurface@RawImageData@@QAEXXZ 0040e110 f i Button.obj
 0001:0000d190       ?get@?$_Ptr_base@VRawImageData@@@std@@IBEPAVRawImageData@@XZ 0040e190 f i Button.obj
 0001:0000d1b0       ?get@ImageManager@@SAPAV1@XZ 0040e1b0 f i Button.obj
 0001:0000d260       ?getDrawingRegionLeft@DisplayableObject@@QBEHXZ 0040e260 f i Button.obj
 0001:0000d280       ?getDrawingRegionTop@DisplayableObject@@QBEHXZ 0040e280 f i Button.obj
 0001:0000d2a0       ?getFont@BaseEngine@@QAEPAVFont@@PBDH@Z 0040e2a0 f i Button.obj
 0001:0000d2d0       ?getForegroundSurface@BaseEngine@@QAEPAVDrawingSurface@@XZ 0040e2d0 f i Button.obj
 0001:0000d2f0       ?getHeight@RawImageData@@QBEHXZ 0040e2f0 f i Button.obj
 0001:0000d310       ?getHeight@SimpleImage@@QBEHXZ 0040e310 f i Button.obj
 0001:0000d340       ?getImagePtrbyURL@ImageManager@@QAE?AV?$shared_ptr@VRawImageData@@@std@@V?$basic_string@DU?$char_traits@D@std@@V?$allocator@D@2@@3@_N1@Z 0040e340 f i Button.obj
 0001:0000d780       ?getImagebyURL@ImageManager@@QAE?AVSimpleImage@@V?$basic_string@DU?$char_traits@D@std@@V?$allocator@D@2@@std@@_N1@Z 0040e780 f i Button.obj
 0001:0000d850       ?getWidth@RawImageData@@QBEHXZ 0040e850 f i Button.obj
 0001:0000d870       ?getWidth@SimpleImage@@QBEHXZ 0040e870 f i Button.obj
 0001:0000d8a0       ?getXCentre@DisplayableObject@@QBEHXZ 0040e8a0 f i Button.obj
 0001:0000d8d0       ?getXForRotationAndCrop@RawImageData@@SAHHHHHHH@Z 0040e8d0 f i Button.obj
 0001:0000d940       ?getYForRotationAndCrop@RawImageData@@SAHHHHHHH@Z 0040e940 f i Button.obj
 0001:0000d9b0       ?length@?$_Narrow_char_traits@DH@std@@SAIQBD@Z 0040e9b0 f i Button.obj
 0001:0000d9d0       ?loadAsNew@ImageManager@@QAE?AV?$shared_ptr@VRawImageData@@@std@@V?$basic_string@DU?$char_traits@D@std@@V?$allocator@D@2@@3@@Z 0040e9d0 f i Button.obj
 0001:0000dba0       ?loadImage@ImageManager@@SA?AVSimpleImage@@V?$basic_string@DU?$char_traits@D@std@@V?$allocator@D@2@@std@@_N@Z 0040eba0 f i Button.obj
 0001:0000dc60       ?loadImage@RawImageData@@QAE_NV?$basic_string@DU?$char_traits@D@std@@V?$allocator@D@2@@std@@HHHHH_N@Z 0040ec60 f i Button.obj
 0001:0000df70       ?lock@?$weak_ptr@VRawImageData@@@std@@QBE?AV?$shared_ptr@VRawImageData@@@2@XZ 0040ef70 f i Button.obj
 0001:0000dfc0       ?max@?$numeric_limits@H@std@@SAHXZ 0040efc0 f i Button.obj
 0001:0000dfd0       ?max_size@?$_Default_allocator_traits@V?$allocator@D@std@@@std@@SAIABV?$allocator@D@2@@Z 0040efd0 f i Button.obj
 0001:0000dfe0       ?max_size@?$_Default_allocator_traits@V?$allocator@U?$_Tree_node@U?$pair@$$CBV?$basic_string@DU?$char_traits@D@std@@V?$allocator@D@2@@std@@V?$shared_ptr@VRawImageData@@@2@@std@@PAX@std@@@std@@@std@@SAIABV?$allocator@U?$_Tree_node@U?$pair@$$CBV?$basic_string@DU?$char_traits@D@std@@V?$allocator@D@2@@std@@V?$shared_ptr@VRawImageData@@@2@@std@@PAX@std@@@2@@Z 0040efe0 f i Button.obj
 0001:0000dff0       ?max_size@?$_Default_allocator_traits@V?$allocator@U?$_Tree_node@U?$pair@$$CBV?$basic_string@DU?$char_traits@D@std@@V?$allocator@D@2@@std@@V?$weak_ptr@VRawImageData@@@2@@std@@PAX@std@@@std@@@std@@SAIABV?$allocator@U?$_Tree_node@U?$pair@$$CBV?$basic_string@DU?$char_traits@D@std@@V?$allocator@D@2@@std@@V?$weak_ptr@VRawImageData@@@2@@std@@PAX@std@@@2@@Z 0040eff0 f i Button.obj
 0001:0000e000       ?max_size@?$_Tree@V?$_Tmap_traits@V?$basic_string@DU?$char_traits@D@std@@V?$allocator@D@2@@std@@V?$shared_ptr@VRawImageData@@@2@U?$less@V?$basic_string@DU?$char_traits@D@std@@V?$allocator@D@2@@std@@@2@V?$allocator@U?$pair@$$CBV?$basic_string@DU?$char_traits@D@std@@V?$allocator@D@2@@std@@V?$shared_ptr@VRawImageData@@@2@@std@@@2@$0A@@std@@@std@@QBEIXZ 0040f000 f i Button.obj
 0001:0000e050       ?max_size@?$_Tree@V?$_Tmap_traits@V?$basic_string@DU?$char_traits@D@std@@V?$allocator@D@2@@std@@V?$weak_ptr@VRawImageData@@@2@U?$less@V?$basic_string@DU?$char_traits@D@std@@V?$allocator@D@2@@std@@@2@V?$allocator@U?$pair@$$CBV?$basic_string@DU?$char_traits@D@std@@V?$allocator@D@2@@std@@V?$weak_ptr@VRawImageData@@@2@@std@@@2@$0A@@std@@@std@@QBEIXZ 0040f050 f i Button.obj
 0001:0000e0a0       ?max_size@?$basic_string@DU?$char_traits@D@std@@V?$allocator@D@2@@std@@QBEIXZ 0040f0a0 f i Button.obj
 0001:0000e120       ?pointer_to@?$pointer_traits@PAU?$pair@$$CBV?$basic_string@DU?$char_traits@D@std@@V?$allocator@D@2@@std@@V?$weak_ptr@VRawImageData@@@2@@std@@@std@@SAPAU?$pair@$$CBV?$basic_string@DU?$char_traits@D@std@@V?$allocator@D@2@@std@@V?$weak_ptr@VRawImageData@@@2@@2@AAU32@@Z 0040f120 f i Button.obj
 0001:0000e140       ?select_on_container_copy_construction@?$_Default_allocator_traits@V?$allocator@D@std@@@std@@SA?AV?$allocator@D@2@ABV32@@Z 0040f140 f i Button.obj
 0001:0000e150       ?setPosition@DisplayableObject@@UAEXHH@Z 0040f150 f i Button.obj
 0001:0000e190       ?size@?$basic_string@DU?$char_traits@D@std@@V?$allocator@D@2@@std@@QBEIXZ 0040f190 f i Button.obj
 0001:0000e1b0       ?swap@?$shared_ptr@VRawImageData@@@std@@QAEXAAV12@@Z 0040f1b0 f i Button.obj
 0001:0000e1d0       ?use_count@?$_Ptr_base@VRawImageData@@@std@@QBEJXZ 0040f1d0 f i Button.obj
 0001:0000e210       ?virtIsPositionWithinObject@DisplayableObject@@UAE_NHH@Z 0040f210 f i Button.obj
 0001:0000e2a0       ?virtKeyDown@DisplayableObject@@UAEXH@Z 0040f2a0 f i Button.obj
 0001:0000e2b0       ?virtKeyUp@DisplayableObject@@UAEXH@Z 0040f2b0 f i Button.obj
 0001:0000e2c0       ?virtMouseDown@DisplayableObject@@UAEXHHH@Z 0040f2c0 f i Button.obj
 0001:0000e2d0       ?virtMouseMoved@DisplayableObject@@UAEXHH@Z 0040f2d0 f i Button.obj
 0001:0000e2e0       ?virtMouseUp@DisplayableObject@@UAEXHHH@Z 0040f2e0 f i Button.obj
 0001:0000e2f0       ?virtNotify@DisplayableObject@@UAEJHHH@Z 0040f2f0 f i Button.obj
 0001:0000e310       ?virtSingleItemMouseDown@DisplayableObject@@UAE_NHHH@Z 0040f310 f i Button.obj
 0001:0000e330       ?what@exception@std@@UBEPBDXZ 0040f330 f i Button.obj
 0001:0000e370       ___local_stdio_printf_options 0040f370 f i Button.obj
 0001:0000e380       __vfprintf_l               0040f380 f i Button.obj
 0001:0000e3c0       _printf                    0040f3c0 f i Button.obj
 0001:0000e410       ?virtDrawTileAt@ColourPicker@@UBEXPAVBaseEngine@@PAVDrawingSurface@@HHHH@Z 0040f410 f   ColourPicker.obj
 0001:0000e560       ?getPixelColour@SimpleImage@@QBEHHH@Z 0040f560 f i ColourPicker.obj
 0001:0000e590       ?getRawPixelColour@RawImageData@@QBEHHH@Z 0040f590 f i ColourPicker.obj
 0001:0000e5e0       ?virtSetupBackgroundBuffer@DraggingDemo@@UAEXXZ 0040f5e0 f   DraggingDemo.obj
 0001:0000e720       ?virtInitialiseObjects@DraggingDemo@@UAEHXZ 0040f720 f   DraggingDemo.obj
 0001:0000e970       ?virtKeyDown@DraggingDemo@@UAEXH@Z 0040f970 f   DraggingDemo.obj
 0001:0000ea90       ??$_Allocate_at_least_helper@V?$allocator@PAVDisplayableObject@@@std@@@std@@YAPAPAVDisplayableObject@@AAV?$allocator@PAVDisplayableObject@@@0@AAI@Z 0040fa90 f i DraggingDemo.obj
 0001:0000eab0       ??$_Copy_memmove@PAPAVDisplayableObject@@PAPAV1@@std@@YAPAPAVDisplayableObject@@PAPAV1@00@Z 0040fab0 f i DraggingDemo.obj
 0001:0000eb40       ??$_Destroy_range@V?$allocator@PAVDisplayableObject@@@std@@@std@@YAXPAPAVDisplayableObject@@QAPAV1@AAV?$allocator@PAVDisplayableObject@@@0@@Z 0040fb40 f i DraggingDemo.obj
 0001:0000eb50       ??$_Emplace_back@$$V@?$_Uninitialized_backout_al@V?$allocator@PAVDisplayableObject@@@std@@@std@@QAEXXZ 0040fb50 f i DraggingDemo.obj
 0001:0000eba0       ??$_Emplace_back@PAVDisplayableObject@@@?$_Uninitialized_backout_al@V?$allocator@PAVDisplayableObject@@@std@@@std@@QAEX$$QAPAVDisplayableObject@@@Z 0040fba0 f i DraggingDemo.obj
 0001:0000ec00       ??$_Get_size_of_n@$03@std@@YAII@Z 0040fc00 f i DraggingDemo.obj
 0001:0000ec40       ??$_Get_unwrapped@ABQAPAVDisplayableObject@@@std@@YA?A_TABQAPAVDisplayableObject@@@Z 0040fc40 f i DraggingDemo.obj
 0001:0000ec50       ??$_Resize@U_Value_init_tag@std@@@?$vector@PAVDisplayableObject@@V?$allocator@PAVDisplayableObject@@@std@@@std@@AAEXIABU_Value_init_tag@1@@Z 0040fc50 f i DraggingDemo.obj
 0001:0000ed80       ??$_Resize_reallocate@U_Value_init_tag@std@@@?$vector@PAVDisplayableObject@@V?$allocator@PAVDisplayableObject@@@std@@@std@@AAEXIABU_Value_init_tag@1@@Z 0040fd80 f i DraggingDemo.obj
 0001:0000ef40       ??$_To_address@PAPAVDisplayableObject@@@std@@YA?A_PABQAPAVDisplayableObject@@@Z 0040ff40 f i DraggingDemo.obj
 0001:0000ef50       ??$_Unfancy@PAVDisplayableObject@@@std@@YAPAPAVDisplayableObject@@PAPAV1@@Z 0040ff50 f i DraggingDemo.obj
 0001:0000ef60       ??$_Uninitialized_move@PAPAVDisplayableObject@@V?$allocator@PAVDisplayableObject@@@std@@@std@@YAPAPAVDisplayableObject@@QAPAV1@0PAPAV1@AAV?$allocator@PAVDisplayableObject@@@0@@Z 0040ff60 f i DraggingDemo.obj
 0001:0000f080       ??$_Uninitialized_value_construct_n@V?$allocator@PAVDisplayableObject@@@std@@@std@@YAPAPAVDisplayableObject@@PAPAV1@IAAV?$allocator@PAVDisplayableObject@@@0@@Z 00410080 f i DraggingDemo.obj
 0001:0000f160       ??$_Zero_range@PAPAVDisplayableObject@@@std@@YAPAPAVDisplayableObject@@QAPAV1@0@Z 00410160 f i DraggingDemo.obj
 0001:0000f1b0       ??$construct@PAVDisplayableObject@@$$V@?$_Default_allocator_traits@V?$allocator@PAVDisplayableObject@@@std@@@std@@SAXAAV?$allocator@PAVDisplayableObject@@@1@QAPAVDisplayableObject@@@Z 004101b0 f i DraggingDemo.obj
 0001:0000f200       ??$construct@PAVDisplayableObject@@PAV1@@?$_Default_allocator_traits@V?$allocator@PAVDisplayableObject@@@std@@@std@@SAXAAV?$allocator@PAVDisplayableObject@@@1@QAPAVDisplayableObject@@$$QAPAV3@@Z 00410200 f i DraggingDemo.obj
 0001:0000f240       ??$forward@PAVDisplayableObject@@@std@@YA$$QAPAVDisplayableObject@@AAPAV1@@Z 00410240 f i DraggingDemo.obj
 0001:0000f250       ??$move@AAPAVDisplayableObject@@@std@@YA$$QAPAVDisplayableObject@@AAPAV1@@Z 00410250 f i DraggingDemo.obj
 0001:0000f260       ??0?$_Uninitialized_backout_al@V?$allocator@PAVDisplayableObject@@@std@@@std@@QAE@PAPAVDisplayableObject@@AAV?$allocator@PAVDisplayableObject@@@1@@Z 00410260 f i DraggingDemo.obj
 0001:0000f2a0       ??0DragableBaseClassObject@@QAE@HHPAVBaseEngine@@HH_N@Z 004102a0 f i DraggingDemo.obj
 0001:0000f330       ??0DragableBaseClassObject@@QAE@PAVBaseEngine@@HH_N@Z 00410330 f i DraggingDemo.obj
 0001:0000f3b0       ??0DragableImageObject@@QAE@HHPAVBaseEngine@@V?$basic_string@DU?$char_traits@D@std@@V?$allocator@D@2@@std@@_N2@Z 004103b0 f i DraggingDemo.obj
 0001:0000f550       ??0DragableObject@@QAE@HHPAVBaseEngine@@HH_N1@Z 00410550 f i DraggingDemo.obj
 0001:0000f600       ??0DragableObject@@QAE@PAVBaseEngine@@HH_N1@Z 00410600 f i DraggingDemo.obj
 0001:0000f6b0       ??0ImageObject@@QAE@HHPAVBaseEngine@@V?$basic_string@DU?$char_traits@D@std@@V?$allocator@D@2@@std@@_N2@Z 004106b0 f i DraggingDemo.obj
 0001:0000f840       ??1?$_Uninitialized_backout_al@V?$allocator@PAVDisplayableObject@@@std@@@std@@QAE@XZ 00410840 f i DraggingDemo.obj
 0001:0000f870       ??1DragableBaseClassObject@@UAE@XZ 00410870 f i DraggingDemo.obj
 0001:0000f890       ??1DragableImageObject@@UAE@XZ 00410890 f i DraggingDemo.obj
 0001:0000f8c0       ??1DragableObject@@UAE@XZ  004108c0 f i DraggingDemo.obj
 0001:0000f8e0       ??1ImageObject@@UAE@XZ     004108e0 f i DraggingDemo.obj
 0001:0000f910       ??A?$vector@PAVDisplayableObject@@V?$allocator@PAVDisplayableObject@@@std@@@std@@QAEAAPAVDisplayableObject@@I@Z 00410910 f i DraggingDemo.obj
 0001:0000f9c0       ??_EDragableBaseClassObject@@UAEPAXI@Z 004109c0 f i DraggingDemo.obj
 0001:0000f9c0       ??_GDragableBaseClassObject@@UAEPAXI@Z 004109c0 f i DraggingDemo.obj
 0001:0000fa00       ??_EDragableImageObject@@UAEPAXI@Z 00410a00 f i DraggingDemo.obj
 0001:0000fa00       ??_GDragableImageObject@@UAEPAXI@Z 00410a00 f i DraggingDemo.obj
 0001:0000fa40       ??_EDragableObject@@UAEPAXI@Z 00410a40 f i DraggingDemo.obj
 0001:0000fa40       ??_GDragableObject@@UAEPAXI@Z 00410a40 f i DraggingDemo.obj
 0001:0000fa80       ??_EImageObject@@UAEPAXI@Z 00410a80 f i DraggingDemo.obj
 0001:0000fa80       ??_GImageObject@@UAEPAXI@Z 00410a80 f i DraggingDemo.obj
 0001:0000fac0       ?_Calculate_growth@?$vector@PAVDisplayableObject@@V?$allocator@PAVDisplayableObject@@@std@@@std@@ABEII@Z 00410ac0 f i DraggingDemo.obj
 0001:0000fb30       ?_Change_array@?$vector@PAVDisplayableObject@@V?$allocator@PAVDisplayableObject@@@std@@@std@@AAEXQAPAVDisplayableObject@@II@Z 00410b30 f i DraggingDemo.obj
 0001:0000fc00       ?_Get_first@?$_Compressed_pair@V?$allocator@PAVDisplayableObject@@@std@@V?$_Vector_val@U?$_Simple_types@PAVDisplayableObject@@@std@@@2@$00@std@@QAEAAV?$allocator@PAVDisplayableObject@@@2@XZ 00410c00 f i DraggingDemo.obj
 0001:0000fc20       ?_Get_first@?$_Compressed_pair@V?$allocator@PAVDisplayableObject@@@std@@V?$_Vector_val@U?$_Simple_types@PAVDisplayableObject@@@std@@@2@$00@std@@QBEABV?$allocator@PAVDisplayableObject@@@2@XZ 00410c20 f i DraggingDemo.obj
 0001:0000fc40       ?_Getal@?$vector@PAVDisplayableObject@@V?$allocator@PAVDisplayableObject@@@std@@@std@@AAEAAV?$allocator@PAVDisplayableObject@@@2@XZ 00410c40 f i DraggingDemo.obj
 0001:0000fc60       ?_Getal@?$vector@PAVDisplayableObject@@V?$allocator@PAVDisplayableObject@@@std@@@std@@ABEABV?$allocator@PAVDisplayableObject@@@2@XZ 00410c60 f i DraggingDemo.obj
 0001:0000fc80       ?_Orphan_range@?$vector@PAVDisplayableObject@@V?$allocator@PAVDisplayableObject@@@std@@@std@@ABEXPAPAVDisplayableObject@@0@Z 00410c80 f i DraggingDemo.obj
 0001:0000fcb0       ?_Orphan_range_locked@?$vector@PAVDisplayableObject@@V?$allocator@PAVDisplayableObject@@@std@@@std@@ABEXPAPAVDisplayableObject@@0@Z 00410cb0 f i DraggingDemo.obj
 0001:0000fd40       ?_Orphan_range_unlocked@?$vector@PAVDisplayableObject@@V?$allocator@PAVDisplayableObject@@@std@@@std@@ABEXPAPAVDisplayableObject@@0@Z 00410d40 f i DraggingDemo.obj
 0001:0000fdc0       ?_Release@?$_Uninitialized_backout_al@V?$allocator@PAVDisplayableObject@@@std@@@std@@QAEPAPAVDisplayableObject@@XZ 00410dc0 f i DraggingDemo.obj
 0001:0000fdf0       ?_Xlength@?$vector@PAVDisplayableObject@@V?$allocator@PAVDisplayableObject@@@std@@@std@@CAXXZ 00410df0 f i DraggingDemo.obj
 0001:0000fe10       ?allocate@?$allocator@PAVDisplayableObject@@@std@@QAEPAPAVDisplayableObject@@I@Z 00410e10 f i DraggingDemo.obj
 0001:0000fe40       ?capacity@?$vector@PAVDisplayableObject@@V?$allocator@PAVDisplayableObject@@@std@@@std@@QBEIXZ 00410e40 f i DraggingDemo.obj
 0001:0000fe70       ?checkDoDrag@DragableBaseClassObject@@UAEXHH@Z 00410e70 f i DraggingDemo.obj
 0001:0000fef0       ?checkFinishDrag@DragableBaseClassObject@@UAEXHH@Z 00410ef0 f i DraggingDemo.obj
 0001:0000ff30       ?checkStartDrag@DragableBaseClassObject@@UAEXHH@Z 00410f30 f i DraggingDemo.obj
 0001:0000ffb0       ?checkWritable@DrawingSurface@@QAEXXZ 00410fb0 f i DraggingDemo.obj
 0001:00010000       ?createObjectArray@DisplayableObjectContainer@@QAEXH@Z 00411000 f i DraggingDemo.obj
 0001:00010050       ?deallocate@?$allocator@PAVDisplayableObject@@@std@@QAEXQAPAVDisplayableObject@@I@Z 00411050 f i DraggingDemo.obj
 0001:000100f0       ?doDragRedraw@DragableBaseClassObject@@UAEXXZ 004110f0 f i DraggingDemo.obj
 0001:00010110       ?drawableObjectsChanged@DisplayableObjectContainer@@QAEXXZ 00411110 f i DraggingDemo.obj
 0001:00010130       ?getEngine@DisplayableObject@@QBEPAVBaseEngine@@XZ 00411130 f i DraggingDemo.obj
 0001:00010150       ?getIntsPerWindowRow@DrawingSurface@@QBEIXZ 00411150 f i DraggingDemo.obj
 0001:00010170       ?getSurfaceHeight@DrawingSurface@@QBEHXZ 00411170 f i DraggingDemo.obj
 0001:00010190       ?getSurfaceWidth@DrawingSurface@@QBEHXZ 00411190 f i DraggingDemo.obj
 0001:000101b0       ?getWindowHeight@BaseEngine@@QBEHXZ 004111b0 f i DraggingDemo.obj
 0001:000101d0       ?getWindowWidth@BaseEngine@@QBEHXZ 004111d0 f i DraggingDemo.obj
 0001:000101f0       ?isVisible@DisplayableObject@@QBE_NXZ 004111f0 f i DraggingDemo.obj
 0001:00010210       ?max_size@?$_Default_allocator_traits@V?$allocator@PAVDisplayableObject@@@std@@@std@@SAIABV?$allocator@PAVDisplayableObject@@@2@@Z 00411210 f i DraggingDemo.obj
 0001:00010220       ?max_size@?$vector@PAVDisplayableObject@@V?$allocator@PAVDisplayableObject@@@std@@@std@@QBEIXZ 00411220 f i DraggingDemo.obj
 0001:00010270       ?notifyObjectsAboutMouse@BaseEngine@@QAEX_N@Z 00411270 f i DraggingDemo.obj
 0001:00010290       ?rawSetPixel@DrawingSurface@@QAEXHHI@Z 00411290 f i DraggingDemo.obj
 0001:00010340       ?resize@?$vector@PAVDisplayableObject@@V?$allocator@PAVDisplayableObject@@@std@@@std@@QAEXI@Z 00411340 f i DraggingDemo.obj
 0001:00010370       ?setBackgroundPixel@BaseEngine@@QAEXHHI@Z 00411370 f i DraggingDemo.obj
 0001:000103a0       ?setExitWithCode@BaseEngine@@QAEXH@Z 004113a0 f i DraggingDemo.obj
 0001:000103c0       ?setPixel@DrawingSurface@@QAEXHHI@Z 004113c0 f i DraggingDemo.obj
 0001:00010430       ?setVisible@DisplayableObject@@QAEX_N@Z 00411430 f i DraggingDemo.obj
 0001:00010450       ?storeObjectInArray@DisplayableObjectContainer@@QAEXHPAVDisplayableObject@@@Z 00411450 f i DraggingDemo.obj
 0001:00010490       ?virtDraw@DragableImageObject@@UAEXXZ 00411490 f i DraggingDemo.obj
 0001:00010510       ?virtDraw@ImageObject@@UAEXXZ 00411510 f i DraggingDemo.obj
 0001:00010590       ?virtMouseDown@DragableImageObject@@UAEXHHH@Z 00411590 f i DraggingDemo.obj
 0001:000105c0       ?virtMouseDown@DragableObject@@UAEXHHH@Z 004115c0 f i DraggingDemo.obj
 0001:000105f0       ?virtMouseMoved@DragableImageObject@@UAEXHH@Z 004115f0 f i DraggingDemo.obj
 0001:00010620       ?virtMouseMoved@DragableObject@@UAEXHH@Z 00411620 f i DraggingDemo.obj
 0001:00010650       ?virtMouseUp@DragableImageObject@@UAEXHHH@Z 00411650 f i DraggingDemo.obj
 0001:00010680       ?virtMouseUp@DragableObject@@UAEXHHH@Z 00411680 f i DraggingDemo.obj
 0001:000106c0       ??0DrawingSurface@@QAE@PAVBaseEngine@@@Z 004116c0 f   DrawingSurface.obj
 0001:00010760       ?drawLine@DrawingSurface@@QAEXNNNNI@Z 00411760 f   DrawingSurface.obj
 0001:00010940       ?drawThickLine@DrawingSurface@@QAEXNNNNIH@Z 00411940 f   DrawingSurface.obj
 0001:00010de0       ?drawVerticalSidedRegion@DrawingSurface@@QAEXNNNNNNI@Z 00411de0 f   DrawingSurface.obj
 0001:00011180       ?drawRectangle@DrawingSurface@@QAEXHHHHI@Z 00412180 f   DrawingSurface.obj
 0001:00011290       ?drawOval@DrawingSurface@@QAEXHHHHI@Z 00412290 f   DrawingSurface.obj
 0001:00011460       ?rawDrawOval@DrawingSurface@@QAEXHHHHI@Z 00412460 f   DrawingSurface.obj
 0001:000115c0       ?drawHollowOval@DrawingSurface@@QAEXHHHHHHHHI@Z 004125c0 f   DrawingSurface.obj
 0001:000118e0       ?drawPolygon@DrawingSurface@@QAEXHPAN0I@Z 004128e0 f   DrawingSurface.obj
 0001:00012060       ?drawFastString@DrawingSurface@@QAEXHHPBDIPAVFont@@@Z 00413060 f   DrawingSurface.obj
 0001:00012150       ?drawScalableString@DrawingSurface@@QAEXHHPBDIPAVFont@@@Z 00413150 f   DrawingSurface.obj
 0001:00012320       ?drawShortenedArrow@DrawingSurface@@QAEXHHHHHHIHH@Z 00413320 f   DrawingSurface.obj
 0001:000128a0       ?drawShortenedLine@DrawingSurface@@QAEXHHHHHHIH@Z 004138a0 f   DrawingSurface.obj
 0001:00012ca0       ?drawTriangle@DrawingSurface@@QAEXNNNNNNI@Z 00413ca0 f   DrawingSurface.obj
 0001:00012ff0       ?copyEntireSurface@DrawingSurface@@QAEXPAV1@@Z 00413ff0 f   DrawingSurface.obj
 0001:00013040       ?copyRectangleFrom@DrawingSurface@@QAEXPAV1@HHHHHH@Z 00414040 f   DrawingSurface.obj
 0001:00013240       ?getAngle@DrawingSurface@@SANNNNN@Z 00414240 f   DrawingSurface.obj
 0001:000132e0       ?getVirtualRedrawMinX@DrawingSurface@@QAEHXZ 004142e0 f   DrawingSurface.obj
 0001:00013330       ?getVirtualRedrawMinY@DrawingSurface@@QAEHXZ 00414330 f   DrawingSurface.obj
 0001:00013380       ?getVirtualRedrawMaxX@DrawingSurface@@QAEHXZ 00414380 f   DrawingSurface.obj
 0001:000133e0       ?getVirtualRedrawMaxY@DrawingSurface@@QAEHXZ 004143e0 f   DrawingSurface.obj
 0001:00013440       ?getRealRedrawMinX@DrawingSurface@@QAEHXZ 00414440 f   DrawingSurface.obj
 0001:00013490       ?getRealRedrawMinY@DrawingSurface@@QAEHXZ 00414490 f   DrawingSurface.obj
 0001:000134e0       ?getRealRedrawMaxX@DrawingSurface@@QAEHXZ 004144e0 f   DrawingSurface.obj
 0001:00013530       ?getRealRedrawMaxY@DrawingSurface@@QAEHXZ 00414530 f   DrawingSurface.obj
 0001:00014130       ??$move@AAH@std@@YA$$QAHAAH@Z 00415130 f i DrawingSurface.obj
 0001:00014140       ??$move@AAN@std@@YA$$QANAAN@Z 00415140 f i DrawingSurface.obj
 0001:00014150       ??$swap@H$0A@@std@@YAXAAH0@Z 00415150 f i DrawingSurface.obj
 0001:000141a0       ??$swap@N$0A@@std@@YAXAAN0@Z 004151a0 f i DrawingSurface.obj
 0001:00014200       ?checkBlitable@DrawingSurface@@QAEXXZ 00415200 f i DrawingSurface.obj
 0001:00014250       ?convertRealToVirtualXPosition@DrawingSurface@@QAEHH@Z 00415250 f i DrawingSurface.obj
 0001:00014290       ?convertRealToVirtualYPosition@DrawingSurface@@QAEHH@Z 00415290 f i DrawingSurface.obj
 0001:000142d0       ?getDefaultFont@BaseEngine@@QBEPAVFont@@XZ 004152d0 f i DrawingSurface.obj
 0001:000142f0       ?getRedrawAllScreen@BaseEngine@@QAEHXZ 004152f0 f i DrawingSurface.obj
 0001:00014310       ?getRedrawRectRealBottom@BaseEngine@@QAEHXZ 00415310 f i DrawingSurface.obj
 0001:00014330       ?getRedrawRectRealLeft@BaseEngine@@QAEHXZ 00415330 f i DrawingSurface.obj
 0001:00014350       ?getRedrawRectRealRight@BaseEngine@@QAEHXZ 00415350 f i DrawingSurface.obj
 0001:00014370       ?getRedrawRectRealTop@BaseEngine@@QAEHXZ 00415370 f i DrawingSurface.obj
 0001:00014390       ?getRedrawRectVirtualBottom@BaseEngine@@QAEHXZ 00415390 f i DrawingSurface.obj
 0001:000143b0       ?getRedrawRectVirtualLeft@BaseEngine@@QAEHXZ 004153b0 f i DrawingSurface.obj
 0001:000143d0       ?getRedrawRectVirtualRight@BaseEngine@@QAEHXZ 004153d0 f i DrawingSurface.obj
 0001:000143f0       ?getRedrawRectVirtualTop@BaseEngine@@QAEHXZ 004153f0 f i DrawingSurface.obj
 0001:00014410       ?getTTFFont@Font@@QAEPAU_TTF_Font@@XZ 00415410 f i DrawingSurface.obj
 0001:00014430       ?mySDLTempRelockSurface@DrawingSurface@@QAEXXZ 00415430 f i DrawingSurface.obj
 0001:00014480       ?mySDLTempUnlockSurface@DrawingSurface@@QAEXXZ 00415480 f i DrawingSurface.obj
 0001:000144d0       ?setDrawPointsFilter@DrawingSurface@@QAEXPAVFilterPoints@@@Z 004154d0 f i DrawingSurface.obj
 0001:000144f0       ??0EnemySpawner@@QAE@PAVGameEngine@@@Z 004154f0 f   EnemySpawner.obj
 0001:00014560       ?activateSpawner@EnemySpawner@@QAEXXZ 00415560 f   EnemySpawner.obj
 0001:000147b0       ?spawnSEnemy@EnemySpawner@@QAEXXZ 004157b0 f   EnemySpawner.obj
 0001:00014870       ?spawnFEnemy@EnemySpawner@@QAEXXZ 00415870 f   EnemySpawner.obj
 0001:00014930       ?spawnShEnemy@EnemySpawner@@QAEXXZ 00415930 f   EnemySpawner.obj
 0001:000149f0       ?checkLevelChange@EnemySpawner@@QAEXXZ 004159f0 f   EnemySpawner.obj
 0001:00014b80       ??$_Construct_in_place@PAVDisplayableObject@@ABQAV1@@std@@YAXAAPAVDisplayableObject@@ABQAV1@@Z 00415b80 f i EnemySpawner.obj
 0001:00014bd0       ??$_Emplace_back_with_unused_capacity@ABQAVDisplayableObject@@@?$vector@PAVDisplayableObject@@V?$allocator@PAVDisplayableObject@@@std@@@std@@AAEAAPAVDisplayableObject@@ABQAV2@@Z 00415bd0 f i EnemySpawner.obj
 0001:00014c50       ??$_Emplace_one_at_back@ABQAVDisplayableObject@@@?$vector@PAVDisplayableObject@@V?$allocator@PAVDisplayableObject@@@std@@@std@@AAEAAPAVDisplayableObject@@ABQAV2@@Z 00415c50 f i EnemySpawner.obj
 0001:00014cd0       ??$_Emplace_reallocate@ABQAVDisplayableObject@@@?$vector@PAVDisplayableObject@@V?$allocator@PAVDisplayableObject@@@std@@@std@@AAEPAPAVDisplayableObject@@QAPAV2@ABQAV2@@Z 00415cd0 f i EnemySpawner.obj
 0001:00014f30       ??$addressof@PAVDisplayableObject@@@std@@YAPAPAVDisplayableObject@@AAPAV1@@Z 00415f30 f i EnemySpawner.obj
 0001:00014f40       ??$construct@PAVDisplayableObject@@ABQAV1@@?$_Default_allocator_traits@V?$allocator@PAVDisplayableObject@@@std@@@std@@SAXAAV?$allocator@PAVDisplayableObject@@@1@QAPAVDisplayableObject@@ABQAV3@@Z 00415f40 f i EnemySpawner.obj
 0001:00014f80       ??$forward@ABQAVDisplayableObject@@@std@@YAABQAVDisplayableObject@@ABQAV1@@Z 00415f80 f i EnemySpawner.obj
 0001:00014f90       ??A?$vector@PAVDisplayableObject@@V?$allocator@PAVDisplayableObject@@@std@@@std@@QBEABQAVDisplayableObject@@I@Z 00415f90 f i EnemySpawner.obj
 0001:00015040       ?appendObjectToArray@DisplayableObjectContainer@@QAEXPAVDisplayableObject@@@Z 00416040 f i EnemySpawner.obj
 0001:00015080       ?getContentCount@DisplayableObjectContainer@@QBEHXZ 00416080 f i EnemySpawner.obj
 0001:000150a0       ?getDisplayableObject@DisplayableObjectContainer@@QBEPAVDisplayableObject@@H@Z 004160a0 f i EnemySpawner.obj
 0001:000150e0       ?getLevel@GameEngine@@QAEHXZ 004160e0 f i EnemySpawner.obj
 0001:00015100       ?push_back@?$vector@PAVDisplayableObject@@V?$allocator@PAVDisplayableObject@@@std@@@std@@QAEXABQAVDisplayableObject@@@Z 00416100 f i EnemySpawner.obj
 0001:00015120       ?size@?$vector@PAVDisplayableObject@@V?$allocator@PAVDisplayableObject@@@std@@@std@@QBEIXZ 00416120 f i EnemySpawner.obj
 0001:00015150       ?win@MovingPlayerObject@@QAEXXZ 00416150 f i EnemySpawner.obj
 0001:00015170       ??0FlashingDemo@@QAE@XZ    00416170 f   FlashingDemo.obj
 0001:00015230       ??1FlashingDemo@@UAE@XZ    00416230 f   FlashingDemo.obj
 0001:00015280       ?virtSetupBackgroundBuffer@FlashingDemo@@UAEXXZ 00416280 f   FlashingDemo.obj
 0001:00015700       ?virtMainLoopDoBeforeUpdate@FlashingDemo@@UAEXXZ 00416700 f   FlashingDemo.obj
 0001:000157c0       ?virtCreateSurfaces@FlashingDemo@@UAEXXZ 004167c0 f   FlashingDemo.obj
 0001:000159e0       ??1DrawingSurface@@QAE@XZ  004169e0 f i FlashingDemo.obj
 0001:000159f0       ??_EFlashingDemo@@UAEPAXI@Z 004169f0 f i FlashingDemo.obj
 0001:000159f0       ??_GFlashingDemo@@UAEPAXI@Z 004169f0 f i FlashingDemo.obj
 0001:00015a30       ?copyAllBackgroundBuffer@BaseEngine@@UAEXXZ 00416a30 f i FlashingDemo.obj
 0001:00015a60       ?copyBackgroundPixels@BaseEngine@@UAEXHHHH@Z 00416a60 f i FlashingDemo.obj
 0001:00015ab0       ?createSurface@DrawingSurface@@QAEXHH@Z 00416ab0 f i FlashingDemo.obj
 0001:00015b00       ?destroyOldObjects@DisplayableObjectContainer@@UAEX_N@Z 00416b00 f i FlashingDemo.obj
 0001:00015bf0       ?fillBackground@BaseEngine@@UAEXI@Z 00416bf0 f i FlashingDemo.obj
 0001:00015c20       ?fillSurface@DrawingSurface@@QAEXI@Z 00416c20 f i FlashingDemo.obj
 0001:00015cb0       ?filter@BaseEngine@@UAE_NPAVDrawingSurface@@AAH1AAI@Z 00416cb0 f i FlashingDemo.obj
 0001:00015d70       ?filterConvertRealToVirtualXPosition@FilterPoints@@UAEHH@Z 00416d70 f i FlashingDemo.obj
 0001:00015d90       ?filterConvertRealToVirtualYPosition@FilterPoints@@UAEHH@Z 00416d90 f i FlashingDemo.obj
 0001:00015db0       ?filterConvertVirtualToRealXPosition@FilterPoints@@UAEHH@Z 00416db0 f i FlashingDemo.obj
 0001:00015dd0       ?filterConvertVirtualToRealYPosition@FilterPoints@@UAEHH@Z 00416dd0 f i FlashingDemo.obj
 0001:00015df0       ?getModifiedTime@BaseEngine@@UBEHXZ 00416df0 f i FlashingDemo.obj
 0001:00015e30       ?mySDLLockSurface@DrawingSurface@@QAEXXZ 00416e30 f i FlashingDemo.obj
 0001:00015e80       ?mySDLUnlockSurface@DrawingSurface@@QAEXXZ 00416e80 f i FlashingDemo.obj
 0001:00015ed0       ?redrawDisplay@BaseEngine@@QAEXXZ 00416ed0 f i FlashingDemo.obj
 0001:00015ef0       ?virtBackgroundMouseDown@BaseEngine@@UAEXHHHHH@Z 00416ef0 f i FlashingDemo.obj
 0001:00015f00       ?virtMainLoopDoAfterUpdate@BaseEngine@@UAEXXZ 00416f00 f i FlashingDemo.obj
 0001:00015f10       ?virtMainLoopPostUpdate@BaseEngine@@UAEXXZ 00416f10 f i FlashingDemo.obj
 0001:00015f20       ?virtMainLoopPreUpdate@BaseEngine@@UAEXXZ 00416f20 f i FlashingDemo.obj
 0001:00015f30       ?virtMainLoopStartIteration@BaseEngine@@UAEXXZ 00416f30 f i FlashingDemo.obj
 0001:00015f40       ?virtMouseWheel@BaseEngine@@UAEXHHHH@Z 00416f40 f i FlashingDemo.obj
 0001:00015f50       ?virtPostDraw@BaseEngine@@UAEXXZ 00416f50 f i FlashingDemo.obj
 0001:00015f60       ?virtPreDraw@BaseEngine@@UAEXXZ 00416f60 f i FlashingDemo.obj
 0001:00015f70       ?virtRealMouseDown@BaseEngine@@UAEXHHH@Z 00416f70 f i FlashingDemo.obj
 0001:00015f80       ?virtRealMouseUp@BaseEngine@@UAEXHHH@Z 00416f80 f i FlashingDemo.obj
 0001:00015f90       ?virtTouchEvent@BaseEngine@@UAEXHH_J0MMMMM@Z 00416f90 f i FlashingDemo.obj
 0001:00015fa0       ?copyAllBackgroundBuffer@State@@UAEXXZ 00416fa0 f   GameEngine.obj
 0001:00015fd0       ??0GameEngine@@QAE@XZ      00416fd0 f   GameEngine.obj
 0001:000161d0       ??1GameEngine@@UAE@XZ      004171d0 f   GameEngine.obj
 0001:000162f0       ?resetEngine@GameEngine@@QAEXXZ 004172f0 f   GameEngine.obj
 0001:000164b0       ?setState@GameEngine@@QAEXPAVState@@@Z 004174b0 f   GameEngine.obj
 0001:00016520       ?setLevel@GameEngine@@QAEXH@Z 00417520 f   GameEngine.obj
 0001:00016550       ?virtSetupBackgroundBuffer@GameEngine@@UAEXXZ 00417550 f   GameEngine.obj
 0001:00016580       ?virtInitialiseObjects@GameEngine@@UAEHXZ 00417580 f   GameEngine.obj
 0001:000165b0       ?virtMouseDown@GameEngine@@UAEXHHH@Z 004175b0 f   GameEngine.obj
 0001:000165f0       ?virtKeyDown@GameEngine@@UAEXH@Z 004175f0 f   GameEngine.obj
 0001:00016620       ?virtDrawStringsOnTop@GameEngine@@UAEXXZ 00417620 f   GameEngine.obj
 0001:00016650       ?virtMainLoopDoBeforeUpdate@GameEngine@@UAEXXZ 00417650 f   GameEngine.obj
 0001:00016680       ?copyAllBackgroundBuffer@GameEngine@@UAEXXZ 00417680 f   GameEngine.obj
 0001:000166b0       ??0StartState@@QAE@PAVGameEngine@@_N@Z 004176b0 f   GameEngine.obj
 0001:00016790       ?drawBackground@StartState@@UAEXPAVGameTileManager@@@Z 00417790 f   GameEngine.obj
 0001:00016860       ?initialiseObjects@StartState@@UAEXXZ 00417860 f   GameEngine.obj
 0001:00016a70       ?mouseDown@StartState@@UAEXHHH@Z 00417a70 f   GameEngine.obj
 0001:00016f20       ?keyDown@StartState@@UAEXH@Z 00417f20 f   GameEngine.obj
 0001:00016f40       ?virtDrawStringsOnTop@StartState@@UAEXXZ 00417f40 f   GameEngine.obj
 0001:00017000       ?virtMainLoopDoBeforeUpdate@StartState@@UAEXXZ 00418000 f   GameEngine.obj
 0001:00017040       ?copyAllBackgroundBuffer@StartState@@UAEXXZ 00418040 f   GameEngine.obj
 0001:00017110       ??0RunningState@@QAE@PAVGameEngine@@H_N@Z 00418110 f   GameEngine.obj
 0001:00017280       ?drawBackground@RunningState@@UAEXPAVGameTileManager@@@Z 00418280 f   GameEngine.obj
 0001:00017410       ?initialiseObjects@RunningState@@UAEXXZ 00418410 f   GameEngine.obj
 0001:00017470       ?virtDrawStringsOnTop@RunningState@@UAEXXZ 00418470 f   GameEngine.obj
 0001:00017480       ?mouseDown@RunningState@@UAEXHHH@Z 00418480 f   GameEngine.obj
 0001:00017550       ?keyDown@RunningState@@UAEXH@Z 00418550 f   GameEngine.obj
 0001:000175e0       ?resumeGame@RunningState@@QAEXXZ 004185e0 f   GameEngine.obj
 0001:000175f0       ??0PauseState@@QAE@PAVGameEngine@@@Z 004185f0 f   GameEngine.obj
 0001:00017690       ?drawBackground@PauseState@@UAEXPAVGameTileManager@@@Z 00418690 f   GameEngine.obj
 0001:000176a0       ?initialiseObjects@PauseState@@UAEXXZ 004186a0 f   GameEngine.obj
 0001:000178c0       ?virtDrawStringsOnTop@PauseState@@UAEXXZ 004188c0 f   GameEngine.obj
 0001:00017900       ?mouseDown@PauseState@@UAEXHHH@Z 00418900 f   GameEngine.obj
 0001:00017b10       ?keyDown@PauseState@@UAEXH@Z 00418b10 f   GameEngine.obj
 0001:00017ca0       ??0GameOverState@@QAE@PAVGameEngine@@@Z 00418ca0 f   GameEngine.obj
 0001:00017d30       ??1GameOverState@@UAE@XZ   00418d30 f   GameEngine.obj
 0001:00017d50       ?drawBackground@GameOverState@@UAEXPAVGameTileManager@@@Z 00418d50 f   GameEngine.obj
 0001:00017e20       ?initialiseObjects@GameOverState@@UAEXXZ 00418e20 f   GameEngine.obj
 0001:00018040       ?mouseDown@GameOverState@@UAEXHHH@Z 00419040 f   GameEngine.obj
 0001:000181c0       ?keyDown@GameOverState@@UAEXH@Z 004191c0 f   GameEngine.obj
 0001:000181d0       ?virtDrawStringsOnTop@GameOverState@@UAEXXZ 004191d0 f   GameEngine.obj
 0001:00018210       ?virtMainLoopDoBeforeUpdate@GameOverState@@UAEXXZ 00419210 f   GameEngine.obj
 0001:00018250       ?copyAllBackgroundBuffer@GameOverState@@UAEXXZ 00419250 f   GameEngine.obj
 0001:00018320       ??0WinState@@QAE@PAVGameEngine@@@Z 00419320 f   GameEngine.obj
 0001:000183b0       ?drawBackground@WinState@@UAEXPAVGameTileManager@@@Z 004193b0 f   GameEngine.obj
 0001:00018480       ?initialiseObjects@WinState@@UAEXXZ 00419480 f   GameEngine.obj
 0001:00018720       ?mouseDown@WinState@@UAEXHHH@Z 00419720 f   GameEngine.obj
 0001:00018a90       ?keyDown@WinState@@UAEXH@Z 00419a90 f   GameEngine.obj
 0001:00018aa0       ?virtDrawStringsOnTop@WinState@@UAEXXZ 00419aa0 f   GameEngine.obj
 0001:00018ae0       ?virtMainLoopDoBeforeUpdate@WinState@@UAEXXZ 00419ae0 f   GameEngine.obj
 0001:00018b20       ?copyAllBackgroundBuffer@WinState@@UAEXXZ 00419b20 f   GameEngine.obj
 0001:00019700       ??$?0AAPAV_Facet_base@std@@@?$_Compressed_pair@U?$default_delete@V_Facet_base@std@@@std@@PAV_Facet_base@2@$00@std@@QAE@U_Zero_then_variadic_args_t@1@AAPAV_Facet_base@1@@Z 0041a700 f i GameEngine.obj
 0001:00019730       ??$?0U?$default_delete@V_Facet_base@std@@@std@@$0A@@?$unique_ptr@V_Facet_base@std@@U?$default_delete@V_Facet_base@std@@@2@@std@@QAE@PAV_Facet_base@1@@Z 0041a730 f i GameEngine.obj
 0001:00019760       ??$?8DU?$char_traits@D@std@@V?$allocator@D@1@@std@@YA_NABV?$basic_string@DU?$char_traits@D@std@@V?$allocator@D@2@@0@QBD@Z 0041a760 f i GameEngine.obj
 0001:00019780       ??$_Adl_verify_range@V?$_Vector_iterator@V?$_Vector_val@U?$_Simple_types@PAVDisplayableObject@@@std@@@std@@@std@@V12@@std@@YAXABV?$_Vector_iterator@V?$_Vector_val@U?$_Simple_types@PAVDisplayableObject@@@std@@@std@@@0@0@Z 0041a780 f i GameEngine.obj
 0001:000197a0       ??$_Could_compare_equal_to_value_type@PAPAVDisplayableObject@@PAV1@@std@@YA_NABQAVDisplayableObject@@@Z 0041a7a0 f i GameEngine.obj
 0001:000197b0       ??$_Fgetc@D@std@@YA_NAADPAU_iobuf@@@Z 0041a7b0 f i GameEngine.obj
 0001:000197f0       ??$_Find_unchecked@PAPAVDisplayableObject@@PAV1@@std@@YAPAPAVDisplayableObject@@PAPAV1@QAPAV1@ABQAV1@@Z 0041a7f0 f i GameEngine.obj
 0001:00019890       ??$_Fputc@D@std@@YA_NDPAU_iobuf@@@Z 0041a890 f i GameEngine.obj
 0001:000198d0       ??$_Get_unwrapped@AAV?$_Vector_iterator@V?$_Vector_val@U?$_Simple_types@PAVDisplayableObject@@@std@@@std@@@std@@@std@@YA?A_TAAV?$_Vector_iterator@V?$_Vector_val@U?$_Simple_types@PAVDisplayableObject@@@std@@@std@@@0@@Z 0041a8d0 f i GameEngine.obj
 0001:000198e0       ??$_Get_unwrapped@ABV?$_Vector_iterator@V?$_Vector_val@U?$_Simple_types@PAVDisplayableObject@@@std@@@std@@@std@@@std@@YA?A_TABV?$_Vector_iterator@V?$_Vector_val@U?$_Simple_types@PAVDisplayableObject@@@std@@@std@@@0@@Z 0041a8e0 f i GameEngine.obj
 0001:000198f0       ??$_Move_unchecked@PAPAVDisplayableObject@@PAPAV1@@std@@YAPAPAVDisplayableObject@@PAPAV1@00@Z 0041a8f0 f i GameEngine.obj
 0001:00019960       ??$_Pocca@V?$allocator@D@std@@@std@@YAXAAV?$allocator@D@0@ABV10@@Z 0041a960 f i GameEngine.obj
 0001:00019970       ??$_Reallocate_for@V<lambda_9366063389c5f42a00a5088cf24e69de>@@PBD@?$basic_string@DU?$char_traits@D@std@@V?$allocator@D@2@@std@@AAEAAV01@IV<lambda_9366063389c5f42a00a5088cf24e69de>@@PBD@Z 0041a970 f i GameEngine.obj
 0001:00019a70       ??$_Reallocate_grow_by@V<lambda_15711c68e099a15a58f4d77303cb286d>@@D@?$basic_string@DU?$char_traits@D@std@@V?$allocator@D@2@@std@@AAEAAV01@IV<lambda_15711c68e099a15a58f4d77303cb286d>@@D@Z 0041aa70 f i GameEngine.obj
 0001:00019be0       ??$_Refancy@PAPAVDisplayableObject@@$0A@@std@@YAPAPAVDisplayableObject@@PAPAV1@@Z 0041abe0 f i GameEngine.obj
 0001:00019bf0       ??$_Seek_wrapped@V?$_Vector_iterator@V?$_Vector_val@U?$_Simple_types@PAVDisplayableObject@@@std@@@std@@@std@@PAPAVDisplayableObject@@@std@@YAXAAV?$_Vector_iterator@V?$_Vector_val@U?$_Simple_types@PAVDisplayableObject@@@std@@@std@@@0@$$QAPAPAVDisplayableObject@@@Z 0041abf0 f i GameEngine.obj
 0001:00019c20       ??$_Traits_equal@U?$char_traits@D@std@@@std@@YA_NQBDI0I@Z 0041ac20 f i GameEngine.obj
 0001:00019c70       ??$_Ungetc@D@std@@YA_NABDPAU_iobuf@@@Z 0041ac70 f i GameEngine.obj
 0001:00019cc0       ??$__std_find_trivial@PAVDisplayableObject@@I@@YAPAPAVDisplayableObject@@PAPAV0@0I@Z 0041acc0 f i GameEngine.obj
 0001:00019ce0       ??$__std_find_trivial@PAVDisplayableObject@@PAV1@@@YAPAPAVDisplayableObject@@PAPAV0@0QAV0@@Z 0041ace0 f i GameEngine.obj
 0001:00019d00       ??$addressof@$$CBV?$basic_string@DU?$char_traits@D@std@@V?$allocator@D@2@@std@@@std@@YAPBV?$basic_string@DU?$char_traits@D@std@@V?$allocator@D@2@@0@ABV10@@Z 0041ad00 f i GameEngine.obj
 0001:00019d10       ??$addressof@$$CBV?$codecvt@DDU_Mbstatet@@@std@@@std@@YAPBV?$codecvt@DDU_Mbstatet@@@0@ABV10@@Z 0041ad10 f i GameEngine.obj
 0001:00019d20       ??$addressof@V?$_Vector_val@U?$_Simple_types@PAVDisplayableObject@@@std@@@std@@@std@@YAPAV?$_Vector_val@U?$_Simple_types@PAVDisplayableObject@@@std@@@0@AAV10@@Z 0041ad20 f i GameEngine.obj
 0001:00019d30       ??$addressof@V?$basic_filebuf@DU?$char_traits@D@std@@@std@@@std@@YAPAV?$basic_filebuf@DU?$char_traits@D@std@@@0@AAV10@@Z 0041ad30 f i GameEngine.obj
 0001:00019d40       ??$destroy@PAVDisplayableObject@@@?$_Default_allocator_traits@V?$allocator@PAVDisplayableObject@@@std@@@std@@SAXAAV?$allocator@PAVDisplayableObject@@@1@QAPAVDisplayableObject@@@Z 0041ad40 f i GameEngine.obj
 0001:00019d50       ??$exchange@PAV_Facet_base@std@@$$T@std@@YAPAV_Facet_base@0@AAPAV10@$$QA$$T@Z 0041ad50 f i GameEngine.obj
 0001:00019d80       ??$find@V?$_Vector_iterator@V?$_Vector_val@U?$_Simple_types@PAVDisplayableObject@@@std@@@std@@@std@@PAVDisplayableObject@@@std@@YA?AV?$_Vector_iterator@V?$_Vector_val@U?$_Simple_types@PAVDisplayableObject@@@std@@@std@@@0@V10@V10@ABQAVDisplayableObject@@@Z 0041ad80 f i GameEngine.obj
 0001:00019ea0       ??$forward@AAPAV_Facet_base@std@@@std@@YAAAPAV_Facet_base@0@AAPAV10@@Z 0041aea0 f i GameEngine.obj
 0001:00019eb0       ??$forward@PAPAVDisplayableObject@@@std@@YA$$QAPAPAVDisplayableObject@@AAPAPAV1@@Z 0041aeb0 f i GameEngine.obj
 0001:00019ec0       ??$getline@DU?$char_traits@D@std@@V?$allocator@D@2@@std@@YAAAV?$basic_istream@DU?$char_traits@D@std@@@0@$$QAV10@AAV?$basic_string@DU?$char_traits@D@std@@V?$allocator@D@2@@0@D@Z 0041aec0 f i GameEngine.obj
 0001:0001a130       ??$getline@DU?$char_traits@D@std@@V?$allocator@D@2@@std@@YAAAV?$basic_istream@DU?$char_traits@D@std@@@0@AAV10@AAV?$basic_string@DU?$char_traits@D@std@@V?$allocator@D@2@@0@@Z 0041b130 f i GameEngine.obj
 0001:0001a180       ??$move@AAV?$basic_istream@DU?$char_traits@D@std@@@std@@@std@@YA$$QAV?$basic_istream@DU?$char_traits@D@std@@@0@AAV10@@Z 0041b180 f i GameEngine.obj
 0001:0001a190       ??$use_facet@V?$codecvt@DDU_Mbstatet@@@std@@@std@@YAABV?$codecvt@DDU_Mbstatet@@@0@ABVlocale@0@@Z 0041b190 f i GameEngine.obj
 0001:0001a2e0       ??0?$_Vector_const_iterator@V?$_Vector_val@U?$_Simple_types@PAVDisplayableObject@@@std@@@std@@@std@@QAE@$$QAV01@@Z 0041b2e0 f i GameEngine.obj
 0001:0001a320       ??0?$_Vector_const_iterator@V?$_Vector_val@U?$_Simple_types@PAVDisplayableObject@@@std@@@std@@@std@@QAE@ABV01@@Z 0041b320 f i GameEngine.obj
 0001:0001a360       ??0?$_Vector_const_iterator@V?$_Vector_val@U?$_Simple_types@PAVDisplayableObject@@@std@@@std@@@std@@QAE@PAPAVDisplayableObject@@PBU_Container_base12@1@@Z 0041b360 f i GameEngine.obj
 0001:0001a3a0       ??0?$_Vector_iterator@V?$_Vector_val@U?$_Simple_types@PAVDisplayableObject@@@std@@@std@@@std@@QAE@$$QAV01@@Z 0041b3a0 f i GameEngine.obj
 0001:0001a3d0       ??0?$_Vector_iterator@V?$_Vector_val@U?$_Simple_types@PAVDisplayableObject@@@std@@@std@@@std@@QAE@PAPAVDisplayableObject@@PBU_Container_base12@1@@Z 0041b3d0 f i GameEngine.obj
 0001:0001a400       ??0?$basic_filebuf@DU?$char_traits@D@std@@@std@@QAE@XZ 0041b400 f i GameEngine.obj
 0001:0001a440       ??0?$basic_ifstream@DU?$char_traits@D@std@@@std@@QAE@PBDHH@Z 0041b440 f i GameEngine.obj
 0001:0001a590       ??0?$basic_ofstream@DU?$char_traits@D@std@@@std@@QAE@XZ 0041b590 f i GameEngine.obj
 0001:0001a6a0       ??0?$basic_string@DU?$char_traits@D@std@@V?$allocator@D@2@@std@@QAE@XZ 0041b6a0 f i GameEngine.obj
 0001:0001a710       ??0?$fpos@U_Mbstatet@@@std@@QAE@U_Mbstatet@@_J@Z 0041b710 f i GameEngine.obj
 0001:0001a760       ??0?$fpos@U_Mbstatet@@@std@@QAE@_J@Z 0041b760 f i GameEngine.obj
 0001:0001a7b0       ??0ColourPicker@@QAE@XZ    0041b7b0 f i GameEngine.obj
 0001:0001aa40       ??0State@@QAE@XZ           0041ba40 f i GameEngine.obj
 0001:0001aa60       ??0TileManager@@QAE@HHHH@Z 0041ba60 f i GameEngine.obj
 0001:0001aaf0       ??0_Sentry_base@?$basic_istream@DU?$char_traits@D@std@@@std@@QAE@AAV12@@Z 0041baf0 f i GameEngine.obj
 0001:0001ab50       ??0bad_cast@std@@QAE@ABV01@@Z 0041bb50 f i GameEngine.obj
 0001:0001ab80       ??0bad_cast@std@@QAE@XZ    0041bb80 f i GameEngine.obj
 0001:0001abb0       ??0sentry@?$basic_istream@DU?$char_traits@D@std@@@std@@QAE@AAV12@_N@Z 0041bbb0 f i GameEngine.obj
 0001:0001ac40       ??1?$_Vector_const_iterator@V?$_Vector_val@U?$_Simple_types@PAVDisplayableObject@@@std@@@std@@@std@@QAE@XZ 0041bc40 f i GameEngine.obj
 0001:0001ac60       ??1?$_Vector_iterator@V?$_Vector_val@U?$_Simple_types@PAVDisplayableObject@@@std@@@std@@@std@@QAE@XZ 0041bc60 f i GameEngine.obj
 0001:0001ac80       ??1?$basic_filebuf@DU?$char_traits@D@std@@@std@@UAE@XZ 0041bc80 f i GameEngine.obj
 0001:0001ad10       ??1?$basic_ifstream@DU?$char_traits@D@std@@@std@@UAE@XZ 0041bd10 f i GameEngine.obj
 0001:0001ad80       ??1?$basic_ofstream@DU?$char_traits@D@std@@@std@@UAE@XZ 0041bd80 f i GameEngine.obj
 0001:0001adf0       ??1?$unique_ptr@V_Facet_base@std@@U?$default_delete@V_Facet_base@std@@@2@@std@@QAE@XZ 0041bdf0 f i GameEngine.obj
 0001:0001ae30       ??1ColourPicker@@UAE@XZ    0041be30 f i GameEngine.obj
 0001:0001ae90       ??1PauseState@@UAE@XZ      0041be90 f i GameEngine.obj
 0001:0001af00       ??1RunningState@@UAE@XZ    0041bf00 f i GameEngine.obj
 0001:0001af20       ??1StartState@@UAE@XZ      0041bf20 f i GameEngine.obj
 0001:0001af80       ??1State@@UAE@XZ           0041bf80 f i GameEngine.obj
 0001:0001afa0       ??1TileManager@@UAE@XZ     0041bfa0 f i GameEngine.obj
 0001:0001aff0       ??1WinState@@UAE@XZ        0041bff0 f i GameEngine.obj
 0001:0001b020       ??1_Sentry_base@?$basic_istream@DU?$char_traits@D@std@@@std@@QAE@XZ 0041c020 f i GameEngine.obj
 0001:0001b0b0       ??1bad_cast@std@@UAE@XZ    0041c0b0 f i GameEngine.obj
 0001:0001b0d0       ??1locale@std@@QAE@XZ      0041c0d0 f i GameEngine.obj
 0001:0001b130       ??1sentry@?$basic_istream@DU?$char_traits@D@std@@@std@@QAE@XZ 0041c130 f i GameEngine.obj
 0001:0001b150       ??4?$basic_string@DU?$char_traits@D@std@@V?$allocator@D@2@@std@@QAEAAV01@ABV01@@Z 0041c150 f i GameEngine.obj
 0001:0001b1d0       ??4?$basic_string@DU?$char_traits@D@std@@V?$allocator@D@2@@std@@QAEAAV01@QBD@Z 0041c1d0 f i GameEngine.obj
 0001:0001b1f0       ??8?$_Vector_const_iterator@V?$_Vector_val@U?$_Simple_types@PAVDisplayableObject@@@std@@@std@@@std@@QBE_NABV01@@Z 0041c1f0 f i GameEngine.obj
 0001:0001b240       ??9?$_Vector_const_iterator@V?$_Vector_val@U?$_Simple_types@PAVDisplayableObject@@@std@@@std@@@std@@QBE_NABV01@@Z 0041c240 f i GameEngine.obj
 0001:0001b290       ??B?$fpos@U_Mbstatet@@@std@@QBE_JXZ 0041c290 f i GameEngine.obj
 0001:0001b2c0       ??Bsentry@?$basic_istream@DU?$char_traits@D@std@@@std@@QBE_NXZ 0041c2c0 f i GameEngine.obj
 0001:0001b2e0       ??R<lambda_15711c68e099a15a58f4d77303cb286d>@@QBE@QADQBDID@Z 0041c2e0 f i GameEngine.obj
 0001:0001b350       ??R<lambda_9366063389c5f42a00a5088cf24e69de>@@QBE@QADIQBD@Z 0041c350 f i GameEngine.obj
 0001:0001b3a0       ??R?$default_delete@V_Facet_base@std@@@std@@QBEXPAV_Facet_base@1@@Z 0041c3a0 f i GameEngine.obj
 0001:0001b3f0       ??Y?$basic_string@DU?$char_traits@D@std@@V?$allocator@D@2@@std@@QAEAAV01@D@Z 0041c3f0 f i GameEngine.obj
 0001:0001b420       ??_D?$basic_ifstream@DU?$char_traits@D@std@@@std@@QAEXXZ 0041c420 f i GameEngine.obj
 0001:0001b450       ??_D?$basic_ofstream@DU?$char_traits@D@std@@@std@@QAEXXZ 0041c450 f i GameEngine.obj
 0001:0001b47a       ??_E?$basic_ifstream@DU?$char_traits@D@std@@@std@@$4PPPPPPPM@A@AEPAXI@Z 0041c47a f i GameEngine.obj
 0001:0001b484       ??_E?$basic_ofstream@DU?$char_traits@D@std@@@std@@$4PPPPPPPM@A@AEPAXI@Z 0041c484 f i GameEngine.obj
 0001:0001b490       ??_E?$basic_filebuf@DU?$char_traits@D@std@@@std@@UAEPAXI@Z 0041c490 f i GameEngine.obj
 0001:0001b490       ??_G?$basic_filebuf@DU?$char_traits@D@std@@@std@@UAEPAXI@Z 0041c490 f i GameEngine.obj
 0001:0001b4d0       ??_E?$basic_ifstream@DU?$char_traits@D@std@@@std@@UAEPAXI@Z 0041c4d0 f i GameEngine.obj
 0001:0001b4d0       ??_G?$basic_ifstream@DU?$char_traits@D@std@@@std@@UAEPAXI@Z 0041c4d0 f i GameEngine.obj
 0001:0001b520       ??_E?$basic_ofstream@DU?$char_traits@D@std@@@std@@UAEPAXI@Z 0041c520 f i GameEngine.obj
 0001:0001b520       ??_G?$basic_ofstream@DU?$char_traits@D@std@@@std@@UAEPAXI@Z 0041c520 f i GameEngine.obj
 0001:0001b570       ??_EColourPicker@@UAEPAXI@Z 0041c570 f i GameEngine.obj
 0001:0001b570       ??_GColourPicker@@UAEPAXI@Z 0041c570 f i GameEngine.obj
 0001:0001b5b0       ??_EGameEngine@@UAEPAXI@Z  0041c5b0 f i GameEngine.obj
 0001:0001b5b0       ??_GGameEngine@@UAEPAXI@Z  0041c5b0 f i GameEngine.obj
 0001:0001b5f0       ??_EGameOverState@@UAEPAXI@Z 0041c5f0 f i GameEngine.obj
 0001:0001b5f0       ??_GGameOverState@@UAEPAXI@Z 0041c5f0 f i GameEngine.obj
 0001:0001b630       ??_EPauseState@@UAEPAXI@Z  0041c630 f i GameEngine.obj
 0001:0001b630       ??_GPauseState@@UAEPAXI@Z  0041c630 f i GameEngine.obj
 0001:0001b670       ??_ERunningState@@UAEPAXI@Z 0041c670 f i GameEngine.obj
 0001:0001b670       ??_GRunningState@@UAEPAXI@Z 0041c670 f i GameEngine.obj
 0001:0001b6b0       ??_EStartState@@UAEPAXI@Z  0041c6b0 f i GameEngine.obj
 0001:0001b6b0       ??_GStartState@@UAEPAXI@Z  0041c6b0 f i GameEngine.obj
 0001:0001b6f0       ??_EState@@UAEPAXI@Z       0041c6f0 f i GameEngine.obj
 0001:0001b6f0       ??_GState@@UAEPAXI@Z       0041c6f0 f i GameEngine.obj
 0001:0001b730       ??_ETileManager@@UAEPAXI@Z 0041c730 f i GameEngine.obj
 0001:0001b730       ??_GTileManager@@UAEPAXI@Z 0041c730 f i GameEngine.obj
 0001:0001b770       ??_EWinState@@UAEPAXI@Z    0041c770 f i GameEngine.obj
 0001:0001b770       ??_GWinState@@UAEPAXI@Z    0041c770 f i GameEngine.obj
 0001:0001b7b0       ??_Ebad_cast@std@@UAEPAXI@Z 0041c7b0 f i GameEngine.obj
 0001:0001b7b0       ??_Gbad_cast@std@@UAEPAXI@Z 0041c7b0 f i GameEngine.obj
 0001:0001b7f0       ?_Calculate_growth@?$basic_string@DU?$char_traits@D@std@@V?$allocator@D@2@@std@@ABEII@Z 0041c7f0 f i GameEngine.obj
 0001:0001b830       ?_Check_offset@?$_String_val@U?$_Simple_types@D@std@@@std@@QBEXI@Z 0041c830 f i GameEngine.obj
 0001:0001b860       ?_Clamp_suffix_size@?$_String_val@U?$_Simple_types@D@std@@@std@@QBEIII@Z 0041c860 f i GameEngine.obj
 0001:0001b8a0       ?_Compat@?$_Vector_const_iterator@V?$_Vector_val@U?$_Simple_types@PAVDisplayableObject@@@std@@@std@@@std@@QBEXABV12@@Z 0041c8a0 f i GameEngine.obj
 0001:0001b940       ?_Construct_empty@?$basic_string@DU?$char_traits@D@std@@V?$allocator@D@2@@std@@AAEXXZ 0041c940 f i GameEngine.obj
 0001:0001b9d0       ?_Endwrite@?$basic_filebuf@DU?$char_traits@D@std@@@std@@IAE_NXZ 0041c9d0 f i GameEngine.obj
 0001:0001bb20       ?_Eos@?$basic_string@DU?$char_traits@D@std@@V?$allocator@D@2@@std@@AAEXI@Z 0041cb20 f i GameEngine.obj
 0001:0001bb70       ?_Equal@?$basic_string@DU?$char_traits@D@std@@V?$allocator@D@2@@std@@QBE_NQBD@Z 0041cb70 f i GameEngine.obj
 0001:0001bbc0       ?_Erase_noexcept@?$basic_string@DU?$char_traits@D@std@@V?$allocator@D@2@@std@@AAEAAV12@II@Z 0041cbc0 f i GameEngine.obj
 0001:0001bc50       ?_Get_first@?$_Compressed_pair@U?$default_delete@V_Facet_base@std@@@std@@PAV_Facet_base@2@$00@std@@QAEAAU?$default_delete@V_Facet_base@std@@@2@XZ 0041cc50 f i GameEngine.obj
 0001:0001bc70       ?_Getfacet@locale@std@@QBEPBVfacet@12@I@Z 0041cc70 f i GameEngine.obj
 0001:0001bd10       ?_Init@?$basic_filebuf@DU?$char_traits@D@std@@@std@@IAEXPAU_iobuf@@W4_Initfl@12@@Z 0041cd10 f i GameEngine.obj
 0001:0001be10       ?_Initcvt@?$basic_filebuf@DU?$char_traits@D@std@@@std@@IAEXABV?$codecvt@DDU_Mbstatet@@@2@@Z 0041ce10 f i GameEngine.obj
 0001:0001be70       ?_Lock@?$basic_filebuf@DU?$char_traits@D@std@@@std@@UAEXXZ 0041ce70 f i GameEngine.obj
 0001:0001bea0       ?_Myptr@?$_String_val@U?$_Simple_types@D@std@@@std@@QAEPADXZ 0041cea0 f i GameEngine.obj
 0001:0001bef0       ?_Reset_back@?$basic_filebuf@DU?$char_traits@D@std@@@std@@AAEXXZ 0041cef0 f i GameEngine.obj
 0001:0001bf40       ?_Seek_to@?$_Vector_const_iterator@V?$_Vector_val@U?$_Simple_types@PAVDisplayableObject@@@std@@@std@@@std@@QAEXPBQAVDisplayableObject@@@Z 0041cf40 f i GameEngine.obj
 0001:0001bf70       ?_Set_back@?$basic_filebuf@DU?$char_traits@D@std@@@std@@AAEXXZ 0041cf70 f i GameEngine.obj
 0001:0001bfe0       ?_Throw_bad_cast@std@@YAXXZ 0041cfe0 f i GameEngine.obj
 0001:0001c010       ?_Unlock@?$basic_filebuf@DU?$char_traits@D@std@@@std@@UAEXXZ 0041d010 f i GameEngine.obj
 0001:0001c040       ?_Unwrapped@?$_Vector_iterator@V?$_Vector_val@U?$_Simple_types@PAVDisplayableObject@@@std@@@std@@@std@@QBEPAPAVDisplayableObject@@XZ 0041d040 f i GameEngine.obj
 0001:0001c060       ?_Verify_range@std@@YAXABV?$_Vector_const_iterator@V?$_Vector_val@U?$_Simple_types@PAVDisplayableObject@@@std@@@std@@@1@0@Z 0041d060 f i GameEngine.obj
 0001:0001c160       ?_Xran@?$_String_val@U?$_Simple_types@D@std@@@std@@SAXXZ 0041d160 f i GameEngine.obj
 0001:0001c180       ?assign@?$basic_string@DU?$char_traits@D@std@@V?$allocator@D@2@@std@@QAEAAV12@QBD@Z 0041d180 f i GameEngine.obj
 0001:0001c1c0       ?assign@?$basic_string@DU?$char_traits@D@std@@V?$allocator@D@2@@std@@QAEAAV12@QBDI@Z 0041d1c0 f i GameEngine.obj
 0001:0001c260       ?begin@?$vector@PAVDisplayableObject@@V?$allocator@PAVDisplayableObject@@@std@@@std@@QAE?AV?$_Vector_iterator@V?$_Vector_val@U?$_Simple_types@PAVDisplayableObject@@@std@@@std@@@2@XZ 0041d260 f i GameEngine.obj
 0001:0001c2b0       ?close@?$basic_filebuf@DU?$char_traits@D@std@@@std@@QAEPAV12@XZ 0041d2b0 f i GameEngine.obj
 0001:0001c340       ?close@?$basic_ifstream@DU?$char_traits@D@std@@@std@@QAEXXZ 0041d340 f i GameEngine.obj
 0001:0001c380       ?close@?$basic_ofstream@DU?$char_traits@D@std@@@std@@QAEXXZ 0041d380 f i GameEngine.obj
 0001:0001c3c0       ?drawBackgroundString@BaseEngine@@QAEXHHPBDIPAVFont@@@Z 0041d3c0 f i GameEngine.obj
 0001:0001c400       ?end@?$vector@PAVDisplayableObject@@V?$allocator@PAVDisplayableObject@@@std@@@std@@QAE?AV?$_Vector_iterator@V?$_Vector_val@U?$_Simple_types@PAVDisplayableObject@@@std@@@std@@@2@XZ 0041d400 f i GameEngine.obj
 0001:0001c450       ?erase@?$basic_string@DU?$char_traits@D@std@@V?$allocator@D@2@@std@@QAEAAV12@I@Z 0041d450 f i GameEngine.obj
 0001:0001c490       ?erase@?$basic_string@DU?$char_traits@D@std@@V?$allocator@D@2@@std@@QAEAAV12@II@Z 0041d490 f i GameEngine.obj
 0001:0001c4d0       ?erase@?$vector@PAVDisplayableObject@@V?$allocator@PAVDisplayableObject@@@std@@@std@@QAE?AV?$_Vector_iterator@V?$_Vector_val@U?$_Simple_types@PAVDisplayableObject@@@std@@@std@@@2@V?$_Vector_const_iterator@V?$_Vector_val@U?$_Simple_types@PAVDisplayableObject@@@std@@@std@@@2@@Z 0041d4d0 f i GameEngine.obj
 0001:0001c680       ?front@?$basic_string@DU?$char_traits@D@std@@V?$allocator@D@2@@std@@QAEAADXZ 0041d680 f i GameEngine.obj
 0001:0001c720       ?getBackgroundSurface@BaseEngine@@QAEPAVDrawingSurface@@XZ 0041d720 f i GameEngine.obj
 0001:0001c740       ?getColour@ColourPicker@@QAEHXZ 0041d740 f i GameEngine.obj
 0001:0001c760       ?getMapHeight@TileManager@@QBEHXZ 0041d760 f i GameEngine.obj
 0001:0001c780       ?getMapWidth@TileManager@@QBEHXZ 0041d780 f i GameEngine.obj
 0001:0001c7a0       ?getMapXForScreenX@TileManager@@QBEHH@Z 0041d7a0 f i GameEngine.obj
 0001:0001c7d0       ?getName@GameEngine@@QAE?AV?$basic_string@DU?$char_traits@D@std@@V?$allocator@D@2@@std@@XZ 0041d7d0 f i GameEngine.obj
 0001:0001c810       ?getName@TextBox@@QAE?AV?$basic_string@DU?$char_traits@D@std@@V?$allocator@D@2@@std@@XZ 0041d810 f i GameEngine.obj
 0001:0001c850       ?getOffset@GameEngine@@QAEHXZ 0041d850 f i GameEngine.obj
 0001:0001c870       ?getPlayer@GameEngine@@QAEPAVMovingPlayerObject@@XZ 0041d870 f i GameEngine.obj
 0001:0001c890       ?getPlayerColour@GameEngine@@QAEHXZ 0041d890 f i GameEngine.obj
 0001:0001c8b0       ?getState@GameEngine@@QAEPAVState@@XZ 0041d8b0 f i GameEngine.obj
 0001:0001c8d0       ?getStateID@State@@QAEHXZ  0041d8d0 f i GameEngine.obj
 0001:0001c8f0       ?getTileHeight@TileManager@@QBEHXZ 0041d8f0 f i GameEngine.obj
 0001:0001c910       ?getTileManager@GameEngine@@QAEPAVGameTileManager@@XZ 0041d910 f i GameEngine.obj
 0001:0001c930       ?getTileWidth@TileManager@@QBEHXZ 0041d930 f i GameEngine.obj
 0001:0001c950       ?getYCentre@DisplayableObject@@QBEHXZ 0041d950 f i GameEngine.obj
 0001:0001c980       ?imbue@?$basic_filebuf@DU?$char_traits@D@std@@@std@@MAEXABVlocale@2@@Z 0041d980 f i GameEngine.obj
 0001:0001c9b0       ?isValidPosition@TextBox@@QAE_NHH@Z 0041d9b0 f i GameEngine.obj
 0001:0001ca20       ?isValidTilePosition@TileManager@@QBE_NHH@Z 0041da20 f i GameEngine.obj
 0001:0001cab0       ?keyDown@State@@UAEXH@Z    0041dab0 f i GameEngine.obj
 0001:0001cac0       ?lockBackgroundForDrawing@BaseEngine@@QAEXXZ 0041dac0 f i GameEngine.obj
 0001:0001cae0       ?lockForegroundForDrawing@BaseEngine@@QAEXXZ 0041dae0 f i GameEngine.obj
 0001:0001cb00       ?mouseDown@State@@UAEXHHH@Z 0041db00 f i GameEngine.obj
 0001:0001cb10       ?move@?$_Char_traits@DH@std@@SAPADQADQBDI@Z 0041db10 f i GameEngine.obj
 0001:0001cb40       ?not_eof@?$_Narrow_char_traits@DH@std@@SAHH@Z 0041db40 f i GameEngine.obj
 0001:0001cb90       ?open@?$basic_filebuf@DU?$char_traits@D@std@@@std@@QAEPAV12@PBDHH@Z 0041db90 f i GameEngine.obj
 0001:0001cc80       ?open@?$basic_ofstream@DU?$char_traits@D@std@@@std@@QAEXPBDHH@Z 0041dc80 f i GameEngine.obj
 0001:0001cd00       ?overflow@?$basic_filebuf@DU?$char_traits@D@std@@@std@@MAEHH@Z 0041dd00 f i GameEngine.obj
 0001:0001cf50       ?pause@BaseEngine@@QAEXXZ  0041df50 f i GameEngine.obj
 0001:0001cf80       ?pbackfail@?$basic_filebuf@DU?$char_traits@D@std@@@std@@MAEHH@Z 0041df80 f i GameEngine.obj
 0001:0001d120       ?push_back@?$basic_string@DU?$char_traits@D@std@@V?$allocator@D@2@@std@@QAEXD@Z 0041e120 f i GameEngine.obj
 0001:0001d1d0       ?release@?$unique_ptr@V_Facet_base@std@@U?$default_delete@V_Facet_base@std@@@2@@std@@QAEPAV_Facet_base@2@XZ 0041e1d0 f i GameEngine.obj
 0001:0001d200       ?removeDisplayableObject@DisplayableObjectContainer@@QAE_NPAVDisplayableObject@@@Z 0041e200 f i GameEngine.obj
 0001:0001d310       ?seekoff@?$basic_filebuf@DU?$char_traits@D@std@@@std@@MAE?AV?$fpos@U_Mbstatet@@@2@_JHH@Z 0041e310 f i GameEngine.obj
 0001:0001d420       ?seekpos@?$basic_filebuf@DU?$char_traits@D@std@@@std@@MAE?AV?$fpos@U_Mbstatet@@@2@V32@H@Z 0041e420 f i GameEngine.obj
 0001:0001d4f0       ?setColour@ColourPicker@@QAEXH@Z 0041e4f0 f i GameEngine.obj
 0001:0001d510       ?setColour@GameEngine@@QAEXH@Z 0041e510 f i GameEngine.obj
 0001:0001d530       ?setColour@MovingPlayerObject@@QAEXH@Z 0041e530 f i GameEngine.obj
 0001:0001d550       ?setIsClicked@TextBox@@QAEX_N@Z 0041e550 f i GameEngine.obj
 0001:0001d5c0       ?setMapSize@TileManager@@QAEXHH@Z 0041e5c0 f i GameEngine.obj
 0001:0001d670       ?setMapValue@TileManager@@QAEHHHH@Z 0041e670 f i GameEngine.obj
 0001:0001d6b0       ?setName@GameEngine@@QAEXV?$basic_string@DU?$char_traits@D@std@@V?$allocator@D@2@@std@@@Z 0041e6b0 f i GameEngine.obj
 0001:0001d730       ?setOffset@GameEngine@@QAEXH@Z 0041e730 f i GameEngine.obj
 0001:0001d750       ?setTopLeftPositionOnScreen@TileManager@@QAEXHH@Z 0041e750 f i GameEngine.obj
 0001:0001d780       ?setbuf@?$basic_filebuf@DU?$char_traits@D@std@@@std@@MAEPAV?$basic_streambuf@DU?$char_traits@D@std@@@2@PAD_J@Z 0041e780 f i GameEngine.obj
 0001:0001d820       ?state@?$fpos@U_Mbstatet@@@std@@QBE?AU_Mbstatet@@XZ 0041e820 f i GameEngine.obj
 0001:0001d850       ?stoi@std@@YAHABV?$basic_string@DU?$char_traits@D@std@@V?$allocator@D@2@@1@PAIH@Z 0041e850 f i GameEngine.obj
 0001:0001d8f0       ?sync@?$basic_filebuf@DU?$char_traits@D@std@@@std@@MAEHXZ 0041e8f0 f i GameEngine.obj
 0001:0001d960       ?to_char_type@?$_Narrow_char_traits@DH@std@@SADH@Z 0041e960 f i GameEngine.obj
 0001:0001d970       ?to_int_type@?$_Narrow_char_traits@DH@std@@SAHD@Z 0041e970 f i GameEngine.obj
 0001:0001d980       ?uflow@?$basic_filebuf@DU?$char_traits@D@std@@@std@@MAEHXZ 0041e980 f i GameEngine.obj
 0001:0001dca0       ?underflow@?$basic_filebuf@DU?$char_traits@D@std@@@std@@MAEHXZ 0041eca0 f i GameEngine.obj
 0001:0001dd60       ?unlockBackgroundForDrawing@BaseEngine@@QAEXXZ 0041ed60 f i GameEngine.obj
 0001:0001dd80       ?unlockForegroundForDrawing@BaseEngine@@QAEXXZ 0041ed80 f i GameEngine.obj
 0001:0001dda0       ?unpause@BaseEngine@@QAEXXZ 0041eda0 f i GameEngine.obj
 0001:0001ddf0       ?virtDrawStringsOnTop@State@@UAEXXZ 0041edf0 f i GameEngine.obj
 0001:0001de00       ?virtMainLoopDoBeforeUpdate@State@@UAEXXZ 0041ee00 f i GameEngine.obj
 0001:0001de10       ?xsgetn@?$basic_filebuf@DU?$char_traits@D@std@@@std@@MAE_JPAD_J@Z 0041ee10 f i GameEngine.obj
 0001:0001dfd0       ?xsputn@?$basic_filebuf@DU?$char_traits@D@std@@@std@@MAE_JPBD_J@Z 0041efd0 f i GameEngine.obj
 0001:0001e130       __vsnprintf_l              0041f130 f i GameEngine.obj
 0001:0001e1a0       __vsprintf_l               0041f1a0 f i GameEngine.obj
 0001:0001e1d0       _sprintf                   0041f1d0 f i GameEngine.obj
 0001:0001e210       ??0GameTileManager@@QAE@PAVGameEngine@@@Z 0041f210 f   GameTileManager.obj
 0001:0001e6b0       ?setLevel@GameTileManager@@QAEXXZ 0041f6b0 f   GameTileManager.obj
 0001:0001e700       ?solveAStar@GameTileManager@@QAEPAUsNode@1@XZ 0041f700 f   GameTileManager.obj
 0001:0001ea30       ?generateMap@GameTileManager@@QAEXXZ 0041fa30 f   GameTileManager.obj
 0001:0001eb50       ?virtDrawTileAt@GameTileManager@@UBEXPAVBaseEngine@@PAVDrawingSurface@@HHHH@Z 0041fb50 f   GameTileManager.obj
 0001:0001fcc0       ??$?0$$V@?$_Compressed_pair@V?$allocator@PAUsNode@GameTileManager@@@std@@V?$_Vector_val@U?$_Simple_types@PAUsNode@GameTileManager@@@std@@@2@$00@std@@QAE@U_Zero_then_variadic_args_t@1@@Z 00420cc0 f i GameTileManager.obj
 0001:0001fcf0       ??$?0$$V@?$_Compressed_pair@V?$allocator@U?$_List_node@PAUsNode@GameTileManager@@PAX@std@@@std@@V?$_List_val@U?$_List_simple_types@PAUsNode@GameTileManager@@@std@@@2@$00@std@@QAE@U_Zero_then_variadic_args_t@1@@Z 00420cf0 f i GameTileManager.obj
 0001:0001fd20       ??$?0ABQAUsNode@GameTileManager@@@?$_List_node_emplace_op2@V?$allocator@U?$_List_node@PAUsNode@GameTileManager@@PAX@std@@@std@@@std@@QAE@AAV?$allocator@U?$_List_node@PAUsNode@GameTileManager@@PAX@std@@@1@ABQAUsNode@GameTileManager@@@Z 00420d20 f i GameTileManager.obj
 0001:0001fdd0       ??$?0PAUsNode@GameTileManager@@@?$allocator@U_Container_proxy@std@@@std@@QAE@ABV?$allocator@PAUsNode@GameTileManager@@@1@@Z 00420dd0 f i GameTileManager.obj
 0001:0001fdf0       ??$?0U?$_List_node@PAUsNode@GameTileManager@@PAX@std@@@?$allocator@U_Container_proxy@std@@@std@@QAE@ABV?$allocator@U?$_List_node@PAUsNode@GameTileManager@@PAX@std@@@1@@Z 00420df0 f i GameTileManager.obj
 0001:0001fe10       ??$?5DU?$char_traits@D@std@@@std@@YAAAV?$basic_istream@DU?$char_traits@D@std@@@0@AAV10@AAD@Z 00420e10 f i GameTileManager.obj
 0001:0001ff80       ??$_Allocate_at_least_helper@V?$allocator@PAUsNode@GameTileManager@@@std@@@std@@YAPAPAUsNode@GameTileManager@@AAV?$allocator@PAUsNode@GameTileManager@@@0@AAI@Z 00420f80 f i GameTileManager.obj
 0001:0001ffa0       ??$_Construct_in_place@PAU?$_List_node@PAUsNode@GameTileManager@@PAX@std@@AAPAU12@@std@@YAXAAPAU?$_List_node@PAUsNode@GameTileManager@@PAX@0@0@Z 00420fa0 f i GameTileManager.obj
 0001:0001fff0       ??$_Construct_in_place@PAU?$_List_node@PAUsNode@GameTileManager@@PAX@std@@ABQAU12@@std@@YAXAAPAU?$_List_node@PAUsNode@GameTileManager@@PAX@0@ABQAU10@@Z 00420ff0 f i GameTileManager.obj
 0001:00020040       ??$_Construct_in_place@PAUsNode@GameTileManager@@PAU12@@std@@YAXAAPAUsNode@GameTileManager@@$$QAPAU12@@Z 00421040 f i GameTileManager.obj
 0001:00020090       ??$_Copy_memmove@PAPAUsNode@GameTileManager@@PAPAU12@@std@@YAPAPAUsNode@GameTileManager@@PAPAU12@00@Z 00421090 f i GameTileManager.obj
 0001:000201e0       ??$_Destroy_in_place@PAU?$_List_node@PAUsNode@GameTileManager@@PAX@std@@@std@@YAXAAPAU?$_List_node@PAUsNode@GameTileManager@@PAX@0@@Z 004211e0 f i GameTileManager.obj
 0001:000201f0       ??$_Destroy_range@V?$allocator@PAUsNode@GameTileManager@@@std@@@std@@YAXPAPAUsNode@GameTileManager@@QAPAU12@AAV?$allocator@PAUsNode@GameTileManager@@@0@@Z 004211f0 f i GameTileManager.obj
 0001:00020200       ??$_Emplace@ABQAUsNode@GameTileManager@@@?$list@PAUsNode@GameTileManager@@V?$allocator@PAUsNode@GameTileManager@@@std@@@std@@QAEPAU?$_List_node@PAUsNode@GameTileManager@@PAX@1@QAU21@ABQAUsNode@GameTileManager@@@Z 00421200 f i GameTileManager.obj
 0001:000202b0       ??$_Emplace_back@PAUsNode@GameTileManager@@@?$_Uninitialized_backout_al@V?$allocator@PAUsNode@GameTileManager@@@std@@@std@@QAEX$$QAPAUsNode@GameTileManager@@@Z 004212b0 f i GameTileManager.obj
 0001:00020310       ??$_Emplace_back_with_unused_capacity@PAUsNode@GameTileManager@@@?$vector@PAUsNode@GameTileManager@@V?$allocator@PAUsNode@GameTileManager@@@std@@@std@@AAEAAPAUsNode@GameTileManager@@$$QAPAU23@@Z 00421310 f i GameTileManager.obj
 0001:00020390       ??$_Emplace_one_at_back@PAUsNode@GameTileManager@@@?$vector@PAUsNode@GameTileManager@@V?$allocator@PAUsNode@GameTileManager@@@std@@@std@@AAEAAPAUsNode@GameTileManager@@$$QAPAU23@@Z 00421390 f i GameTileManager.obj
 0001:00020410       ??$_Emplace_reallocate@PAUsNode@GameTileManager@@@?$vector@PAUsNode@GameTileManager@@V?$allocator@PAUsNode@GameTileManager@@@std@@@std@@AAEPAPAUsNode@GameTileManager@@QAPAU23@$$QAPAU23@@Z 00421410 f i GameTileManager.obj
 0001:00020670       ??$_Erase_head@V?$allocator@U?$_Tree_node@U?$pair@$$CBV?$basic_string@DU?$char_traits@D@std@@V?$allocator@D@2@@std@@V?$shared_ptr@VRawImageData@@@2@@std@@PAX@std@@@std@@@?$_Tree_val@U?$_Tree_simple_types@U?$pair@$$CBV?$basic_string@DU?$char_traits@D@std@@V?$allocator@D@2@@std@@V?$shared_ptr@VRawImageData@@@2@@std@@@std@@@std@@QAEXAAV?$allocator@U?$_Tree_node@U?$pair@$$CBV?$basic_string@DU?$char_traits@D@std@@V?$allocator@D@2@@std@@V?$shared_ptr@VRawImageData@@@2@@std@@PAX@std@@@1@@Z 00421670 f i GameTileManager.obj
 0001:000206c0       ??$_Erase_tree@V?$allocator@U?$_Tree_node@U?$pair@$$CBV?$basic_string@DU?$char_traits@D@std@@V?$allocator@D@2@@std@@V?$shared_ptr@VRawImageData@@@2@@std@@PAX@std@@@std@@@?$_Tree_val@U?$_Tree_simple_types@U?$pair@$$CBV?$basic_string@DU?$char_traits@D@std@@V?$allocator@D@2@@std@@V?$shared_ptr@VRawImageData@@@2@@std@@@std@@@std@@QAEXAAV?$allocator@U?$_Tree_node@U?$pair@$$CBV?$basic_string@DU?$char_traits@D@std@@V?$allocator@D@2@@std@@V?$shared_ptr@VRawImageData@@@2@@std@@PAX@std@@@1@PAU?$_Tree_node@U?$pair@$$CBV?$basic_string@DU?$char_traits@D@std@@V?$allocator@D@2@@std@@V?$shared_ptr@VRawImageData@@@2@@std@@PAX@1@@Z 004216c0 f i GameTileManager.obj
 0001:00020720       ??$_Free_non_head@V?$allocator@U?$_List_node@PAUsNode@GameTileManager@@PAX@std@@@std@@@?$_List_node@PAUsNode@GameTileManager@@PAX@std@@SAXAAV?$allocator@U?$_List_node@PAUsNode@GameTileManager@@PAX@std@@@1@PAU01@@Z 00421720 f i GameTileManager.obj
 0001:00020780       ??$_Freenode0@V?$allocator@U?$_List_node@PAUsNode@GameTileManager@@PAX@std@@@std@@@?$_List_node@PAUsNode@GameTileManager@@PAX@std@@SAXAAV?$allocator@U?$_List_node@PAUsNode@GameTileManager@@PAX@std@@@1@PAU01@@Z 00421780 f i GameTileManager.obj
 0001:00020800       ??$_Freenode0@V?$allocator@U?$_Tree_node@U?$pair@$$CBV?$basic_string@DU?$char_traits@D@std@@V?$allocator@D@2@@std@@V?$shared_ptr@VRawImageData@@@2@@std@@PAX@std@@@std@@@?$_Tree_node@U?$pair@$$CBV?$basic_string@DU?$char_traits@D@std@@V?$allocator@D@2@@std@@V?$shared_ptr@VRawImageData@@@2@@std@@PAX@std@@SAXAAV?$allocator@U?$_Tree_node@U?$pair@$$CBV?$basic_string@DU?$char_traits@D@std@@V?$allocator@D@2@@std@@V?$shared_ptr@VRawImageData@@@2@@std@@PAX@std@@@1@PAU01@@Z 00421800 f i GameTileManager.obj
 0001:00020890       ??$_Freenode@V?$allocator@U?$_List_node@PAUsNode@GameTileManager@@PAX@std@@@std@@@?$_List_node@PAUsNode@GameTileManager@@PAX@std@@SAXAAV?$allocator@U?$_List_node@PAUsNode@GameTileManager@@PAX@std@@@1@PAU01@@Z 00421890 f i GameTileManager.obj
 0001:00020910       ??$_Freenode@V?$allocator@U?$_Tree_node@U?$pair@$$CBV?$basic_string@DU?$char_traits@D@std@@V?$allocator@D@2@@std@@V?$shared_ptr@VRawImageData@@@2@@std@@PAX@std@@@std@@@?$_Tree_node@U?$pair@$$CBV?$basic_string@DU?$char_traits@D@std@@V?$allocator@D@2@@std@@V?$shared_ptr@VRawImageData@@@2@@std@@PAX@std@@SAXAAV?$allocator@U?$_Tree_node@U?$pair@$$CBV?$basic_string@DU?$char_traits@D@std@@V?$allocator@D@2@@std@@V?$shared_ptr@VRawImageData@@@2@@std@@PAX@std@@@1@PAU01@@Z 00421910 f i GameTileManager.obj
 0001:00020990       ??$_Get_size_of_n@$0M@@std@@YAII@Z 00421990 f i GameTileManager.obj
 0001:000209c0       ??$_Get_unwrapped@ABQAPAUsNode@GameTileManager@@@std@@YA?A_TABQAPAUsNode@GameTileManager@@@Z 004219c0 f i GameTileManager.obj
 0001:00020bf0       ??$_To_address@PAPAUsNode@GameTileManager@@@std@@YA?A_PABQAPAUsNode@GameTileManager@@@Z 00421bf0 f i GameTileManager.obj
 0001:00020c00       ??$_Unfancy@PAUsNode@GameTileManager@@@std@@YAPAPAUsNode@GameTileManager@@PAPAU12@@Z 00421c00 f i GameTileManager.obj
 0001:00020c10       ??$_Uninitialized_move@PAPAUsNode@GameTileManager@@V?$allocator@PAUsNode@GameTileManager@@@std@@@std@@YAPAPAUsNode@GameTileManager@@QAPAU12@0PAPAU12@AAV?$allocator@PAUsNode@GameTileManager@@@0@@Z 00421c10 f i GameTileManager.obj
 0001:00020d30       ??$addressof@PAU?$_List_node@PAUsNode@GameTileManager@@PAX@std@@@std@@YAPAPAU?$_List_node@PAUsNode@GameTileManager@@PAX@0@AAPAU10@@Z 00421d30 f i GameTileManager.obj
 0001:00020d40       ??$addressof@PAUsNode@GameTileManager@@@std@@YAPAPAUsNode@GameTileManager@@AAPAU12@@Z 00421d40 f i GameTileManager.obj
 0001:00020d50       ??$construct@PAUsNode@GameTileManager@@ABQAU12@@?$_Default_allocator_traits@V?$allocator@U?$_List_node@PAUsNode@GameTileManager@@PAX@std@@@std@@@std@@SAXAAV?$allocator@U?$_List_node@PAUsNode@GameTileManager@@PAX@std@@@1@QAPAUsNode@GameTileManager@@ABQAU34@@Z 00421d50 f i GameTileManager.obj
 0001:00020d90       ??$construct@PAUsNode@GameTileManager@@PAU12@@?$_Default_allocator_traits@V?$allocator@PAUsNode@GameTileManager@@@std@@@std@@SAXAAV?$allocator@PAUsNode@GameTileManager@@@1@QAPAUsNode@GameTileManager@@$$QAPAU34@@Z 00421d90 f i GameTileManager.obj
 0001:00020dd0       ??$destroy@PAUsNode@GameTileManager@@@?$_Default_allocator_traits@V?$allocator@U?$_List_node@PAUsNode@GameTileManager@@PAX@std@@@std@@@std@@SAXAAV?$allocator@U?$_List_node@PAUsNode@GameTileManager@@PAX@std@@@1@QAPAUsNode@GameTileManager@@@Z 00421dd0 f i GameTileManager.obj
 0001:00020de0       ??$exchange@PAU?$_Tree_node@U?$pair@$$CBV?$basic_string@DU?$char_traits@D@std@@V?$allocator@D@2@@std@@V?$shared_ptr@VRawImageData@@@2@@std@@PAX@std@@AAPAU12@@std@@YAPAU?$_Tree_node@U?$pair@$$CBV?$basic_string@DU?$char_traits@D@std@@V?$allocator@D@2@@std@@V?$shared_ptr@VRawImageData@@@2@@std@@PAX@0@AAPAU10@0@Z 00421de0 f i GameTileManager.obj
 0001:00020e10       ??$exchange@PAU_Container_proxy@std@@$$T@std@@YAPAU_Container_proxy@0@AAPAU10@$$QA$$T@Z 00421e10 f i GameTileManager.obj
 0001:00020e40       ??$forward@AAPAU?$_List_node@PAUsNode@GameTileManager@@PAX@std@@@std@@YAAAPAU?$_List_node@PAUsNode@GameTileManager@@PAX@0@AAPAU10@@Z 00421e40 f i GameTileManager.obj
 0001:00020e50       ??$forward@ABQAU?$_List_node@PAUsNode@GameTileManager@@PAX@std@@@std@@YAABQAU?$_List_node@PAUsNode@GameTileManager@@PAX@0@ABQAU10@@Z 00421e50 f i GameTileManager.obj
 0001:00020e60       ??$forward@ABQAUsNode@GameTileManager@@@std@@YAABQAUsNode@GameTileManager@@ABQAU12@@Z 00421e60 f i GameTileManager.obj
 0001:00020e70       ??$forward@PAUsNode@GameTileManager@@@std@@YA$$QAPAUsNode@GameTileManager@@AAPAU12@@Z 00421e70 f i GameTileManager.obj
 0001:00020e80       ??$move@AAPAUsNode@GameTileManager@@@std@@YA$$QAPAUsNode@GameTileManager@@AAPAU12@@Z 00421e80 f i GameTileManager.obj
 0001:00020ef0       ??0?$_Alloc_construct_ptr@V?$allocator@U?$_List_node@PAUsNode@GameTileManager@@PAX@std@@@std@@@std@@QAE@AAV?$allocator@U?$_List_node@PAUsNode@GameTileManager@@PAX@std@@@1@@Z 00421ef0 f i GameTileManager.obj
 0001:00020f20       ??0?$_List_val@U?$_List_simple_types@PAUsNode@GameTileManager@@@std@@@std@@QAE@XZ 00421f20 f i GameTileManager.obj
 0001:00020f60       ??0?$_Uninitialized_backout_al@V?$allocator@PAUsNode@GameTileManager@@@std@@@std@@QAE@PAPAUsNode@GameTileManager@@AAV?$allocator@PAUsNode@GameTileManager@@@1@@Z 00421f60 f i GameTileManager.obj
 0001:00020fa0       ??0?$_Vector_val@U?$_Simple_types@PAUsNode@GameTileManager@@@std@@@std@@QAE@XZ 00421fa0 f i GameTileManager.obj
 0001:00020ff0       ??0?$allocator@PAUsNode@GameTileManager@@@std@@QAE@XZ 00421ff0 f i GameTileManager.obj
 0001:00021010       ??0?$allocator@U?$_List_node@PAUsNode@GameTileManager@@PAX@std@@@std@@QAE@XZ 00422010 f i GameTileManager.obj
 0001:00021030       ??0?$basic_ifstream@DU?$char_traits@D@std@@@std@@QAE@ABV?$basic_string@DU?$char_traits@D@std@@V?$allocator@D@2@@1@HH@Z 00422030 f i GameTileManager.obj
 0001:000210a0       ??0?$list@PAUsNode@GameTileManager@@V?$allocator@PAUsNode@GameTileManager@@@std@@@std@@QAE@XZ 004220a0 f i GameTileManager.obj
 0001:000210d0       ??0?$vector@PAUsNode@GameTileManager@@V?$allocator@PAUsNode@GameTileManager@@@std@@@std@@QAE@XZ 004220d0 f i GameTileManager.obj
 0001:00021150       ??0sNode@GameTileManager@@QAE@XZ 00422150 f i GameTileManager.obj
 0001:00021190       ??1?$_Alloc_construct_ptr@V?$allocator@U?$_List_node@PAUsNode@GameTileManager@@PAX@std@@@std@@@std@@QAE@XZ 00422190 f i GameTileManager.obj
 0001:00021200       ??1?$_List_node_emplace_op2@V?$allocator@U?$_List_node@PAUsNode@GameTileManager@@PAX@std@@@std@@@std@@QAE@XZ 00422200 f i GameTileManager.obj
 0001:00021290       ??1?$_Tree@V?$_Tmap_traits@V?$basic_string@DU?$char_traits@D@std@@V?$allocator@D@2@@std@@V?$shared_ptr@VRawImageData@@@2@U?$less@V?$basic_string@DU?$char_traits@D@std@@V?$allocator@D@2@@std@@@2@V?$allocator@U?$pair@$$CBV?$basic_string@DU?$char_traits@D@std@@V?$allocator@D@2@@std@@V?$shared_ptr@VRawImageData@@@2@@std@@@2@$0A@@std@@@std@@QAE@XZ 00422290 f i GameTileManager.obj
 0001:00021300       ??1?$_Uninitialized_backout_al@V?$allocator@PAUsNode@GameTileManager@@@std@@@std@@QAE@XZ 00422300 f i GameTileManager.obj
 0001:00021330       ??1?$list@PAUsNode@GameTileManager@@V?$allocator@PAUsNode@GameTileManager@@@std@@@std@@QAE@XZ 00422330 f i GameTileManager.obj
 0001:00021380       ??1?$map@V?$basic_string@DU?$char_traits@D@std@@V?$allocator@D@2@@std@@V?$shared_ptr@VRawImageData@@@2@U?$less@V?$basic_string@DU?$char_traits@D@std@@V?$allocator@D@2@@std@@@2@V?$allocator@U?$pair@$$CBV?$basic_string@DU?$char_traits@D@std@@V?$allocator@D@2@@std@@V?$shared_ptr@VRawImageData@@@2@@std@@@2@@std@@QAE@XZ 00422380 f i GameTileManager.obj
 0001:000213a0       ??1?$vector@PAUsNode@GameTileManager@@V?$allocator@PAUsNode@GameTileManager@@@std@@@std@@QAE@XZ 004223a0 f i GameTileManager.obj
 0001:00021410       ??1GameTileManager@@UAE@XZ 00422410 f i GameTileManager.obj
 0001:00021560       ??1ImageManager@@QAE@XZ    00422560 f i GameTileManager.obj
 0001:00021590       ??1sNode@GameTileManager@@QAE@XZ 00422590 f i GameTileManager.obj
 0001:000215b0       ??_EsNode@GameTileManager@@QAEPAXI@Z 004225b0 f i GameTileManager.obj
 0001:00021680       ??_EGameTileManager@@UAEPAXI@Z 00422680 f i GameTileManager.obj
 0001:00021680       ??_GGameTileManager@@UAEPAXI@Z 00422680 f i GameTileManager.obj
 0001:000216c0       ??_GImageManager@@QAEPAXI@Z 004226c0 f i GameTileManager.obj
 0001:00021700       ?_Alloc_sentinel_and_proxy@?$list@PAUsNode@GameTileManager@@V?$allocator@PAUsNode@GameTileManager@@@std@@@std@@AAEXXZ 00422700 f i GameTileManager.obj
 0001:000217f0       ?_Allocate@?$_Alloc_construct_ptr@V?$allocator@U?$_List_node@PAUsNode@GameTileManager@@PAX@std@@@std@@@std@@QAEXXZ 004227f0 f i GameTileManager.obj
 0001:00021820       ?_Calculate_growth@?$vector@PAUsNode@GameTileManager@@V?$allocator@PAUsNode@GameTileManager@@@std@@@std@@ABEII@Z 00422820 f i GameTileManager.obj
 0001:00021890       ?_Change_array@?$vector@PAUsNode@GameTileManager@@V?$allocator@PAUsNode@GameTileManager@@@std@@@std@@AAEXQAPAUsNode@GameTileManager@@II@Z 00422890 f i GameTileManager.obj
 0001:00021960       ?_Get_first@?$_Compressed_pair@V?$allocator@PAUsNode@GameTileManager@@@std@@V?$_Vector_val@U?$_Simple_types@PAUsNode@GameTileManager@@@std@@@2@$00@std@@QAEAAV?$allocator@PAUsNode@GameTileManager@@@2@XZ 00422960 f i GameTileManager.obj
 0001:00021980       ?_Get_first@?$_Compressed_pair@V?$allocator@PAUsNode@GameTileManager@@@std@@V?$_Vector_val@U?$_Simple_types@PAUsNode@GameTileManager@@@std@@@2@$00@std@@QBEABV?$allocator@PAUsNode@GameTileManager@@@2@XZ 00422980 f i GameTileManager.obj
 0001:000219a0       ?_Get_first@?$_Compressed_pair@V?$allocator@U?$_List_node@PAUsNode@GameTileManager@@PAX@std@@@std@@V?$_List_val@U?$_List_simple_types@PAUsNode@GameTileManager@@@std@@@2@$00@std@@QAEAAV?$allocator@U?$_List_node@PAUsNode@GameTileManager@@PAX@std@@@2@XZ 004229a0 f i GameTileManager.obj
 0001:000219c0       ?_Get_first@?$_Compressed_pair@V?$allocator@U?$_List_node@PAUsNode@GameTileManager@@PAX@std@@@std@@V?$_List_val@U?$_List_simple_types@PAUsNode@GameTileManager@@@std@@@2@$00@std@@QBEABV?$allocator@U?$_List_node@PAUsNode@GameTileManager@@PAX@std@@@2@XZ 004229c0 f i GameTileManager.obj
 0001:000219e0       ?_Getal@?$list@PAUsNode@GameTileManager@@V?$allocator@PAUsNode@GameTileManager@@@std@@@std@@AAEAAV?$allocator@U?$_List_node@PAUsNode@GameTileManager@@PAX@std@@@2@XZ 004229e0 f i GameTileManager.obj
 0001:00021a00       ?_Getal@?$list@PAUsNode@GameTileManager@@V?$allocator@PAUsNode@GameTileManager@@@std@@@std@@ABEABV?$allocator@U?$_List_node@PAUsNode@GameTileManager@@PAX@std@@@2@XZ 00422a00 f i GameTileManager.obj
 0001:00021a20       ?_Getal@?$vector@PAUsNode@GameTileManager@@V?$allocator@PAUsNode@GameTileManager@@@std@@@std@@AAEAAV?$allocator@PAUsNode@GameTileManager@@@2@XZ 00422a20 f i GameTileManager.obj
 0001:00021a40       ?_Getal@?$vector@PAUsNode@GameTileManager@@V?$allocator@PAUsNode@GameTileManager@@@std@@@std@@ABEABV?$allocator@PAUsNode@GameTileManager@@@2@XZ 00422a40 f i GameTileManager.obj
 0001:00021a60       ?_Orphan_ptr2@?$_List_val@U?$_List_simple_types@PAUsNode@GameTileManager@@@std@@@std@@QAEXPAU?$_List_node@PAUsNode@GameTileManager@@PAX@2@@Z 00422a60 f i GameTileManager.obj
 0001:00021b10       ?_Orphan_range@?$vector@PAUsNode@GameTileManager@@V?$allocator@PAUsNode@GameTileManager@@@std@@@std@@ABEXPAPAUsNode@GameTileManager@@0@Z 00422b10 f i GameTileManager.obj
 0001:00021b40       ?_Orphan_range_locked@?$vector@PAUsNode@GameTileManager@@V?$allocator@PAUsNode@GameTileManager@@@std@@@std@@ABEXPAPAUsNode@GameTileManager@@0@Z 00422b40 f i GameTileManager.obj
 0001:00021bd0       ?_Orphan_range_unlocked@?$vector@PAUsNode@GameTileManager@@V?$allocator@PAUsNode@GameTileManager@@@std@@@std@@ABEXPAPAUsNode@GameTileManager@@0@Z 00422bd0 f i GameTileManager.obj
 0001:00021c50       ?_Release@?$_Uninitialized_backout_al@V?$allocator@PAUsNode@GameTileManager@@@std@@@std@@QAEPAPAUsNode@GameTileManager@@XZ 00422c50 f i GameTileManager.obj
 0001:00021c80       ?_Tidy@?$list@PAUsNode@GameTileManager@@V?$allocator@PAUsNode@GameTileManager@@@std@@@std@@AAEXXZ 00422c80 f i GameTileManager.obj
 0001:00021ce0       ?_Tidy@?$vector@PAUsNode@GameTileManager@@V?$allocator@PAUsNode@GameTileManager@@@std@@@std@@AAEXXZ 00422ce0 f i GameTileManager.obj
 0001:00021de0       ?_Transfer_before@?$_List_node_emplace_op2@V?$allocator@U?$_List_node@PAUsNode@GameTileManager@@PAX@std@@@std@@@std@@QAEPAU?$_List_node@PAUsNode@GameTileManager@@PAX@2@QAU32@@Z 00422de0 f i GameTileManager.obj
 0001:00021e70       ?_Unchecked_begin@?$vector@PAUsNode@GameTileManager@@V?$allocator@PAUsNode@GameTileManager@@@std@@@std@@QAEPAPAUsNode@GameTileManager@@XZ 00422e70 f i GameTileManager.obj
 0001:00021e90       ?_Unchecked_end@?$vector@PAUsNode@GameTileManager@@V?$allocator@PAUsNode@GameTileManager@@@std@@@std@@QAEPAPAUsNode@GameTileManager@@XZ 00422e90 f i GameTileManager.obj
 0001:00021eb0       ?_Unchecked_erase@?$list@PAUsNode@GameTileManager@@V?$allocator@PAUsNode@GameTileManager@@@std@@@std@@AAEPAU?$_List_node@PAUsNode@GameTileManager@@PAX@2@QAU32@@Z 00422eb0 f i GameTileManager.obj
 0001:00021f30       ?_Unchecked_splice@?$_List_val@U?$_List_simple_types@PAUsNode@GameTileManager@@@std@@@std@@SAPAU?$_List_node@PAUsNode@GameTileManager@@PAX@2@QAU32@00@Z 00422f30 f i GameTileManager.obj
 0001:00021fb0       ?_Xlength@?$vector@PAUsNode@GameTileManager@@V?$allocator@PAUsNode@GameTileManager@@@std@@@std@@CAXXZ 00422fb0 f i GameTileManager.obj
 0001:00021fd0       ?allocate@?$allocator@PAUsNode@GameTileManager@@@std@@QAEPAPAUsNode@GameTileManager@@I@Z 00422fd0 f i GameTileManager.obj
 0001:00022000       ?allocate@?$allocator@U?$_List_node@PAUsNode@GameTileManager@@PAX@std@@@std@@QAEPAU?$_List_node@PAUsNode@GameTileManager@@PAX@2@I@Z 00423000 f i GameTileManager.obj
 0001:00022030       ?capacity@?$vector@PAUsNode@GameTileManager@@V?$allocator@PAUsNode@GameTileManager@@@std@@@std@@QBEIXZ 00423030 f i GameTileManager.obj
 0001:00022060       ?deallocate@?$_Default_allocator_traits@V?$allocator@U?$_List_node@PAUsNode@GameTileManager@@PAX@std@@@std@@@std@@SAXAAV?$allocator@U?$_List_node@PAUsNode@GameTileManager@@PAX@std@@@2@QAU?$_List_node@PAUsNode@GameTileManager@@PAX@2@I@Z 00423060 f i GameTileManager.obj
 0001:00022080       ?deallocate@?$_Default_allocator_traits@V?$allocator@U?$_Tree_node@U?$pair@$$CBV?$basic_string@DU?$char_traits@D@std@@V?$allocator@D@2@@std@@V?$shared_ptr@VRawImageData@@@2@@std@@PAX@std@@@std@@@std@@SAXAAV?$allocator@U?$_Tree_node@U?$pair@$$CBV?$basic_string@DU?$char_traits@D@std@@V?$allocator@D@2@@std@@V?$shared_ptr@VRawImageData@@@2@@std@@PAX@std@@@2@QAU?$_Tree_node@U?$pair@$$CBV?$basic_string@DU?$char_traits@D@std@@V?$allocator@D@2@@std@@V?$shared_ptr@VRawImageData@@@2@@std@@PAX@2@I@Z 00423080 f i GameTileManager.obj
 0001:000220a0       ?deallocate@?$allocator@PAUsNode@GameTileManager@@@std@@QAEXQAPAUsNode@GameTileManager@@I@Z 004230a0 f i GameTileManager.obj
 0001:00022140       ?deallocate@?$allocator@U?$_List_node@PAUsNode@GameTileManager@@PAX@std@@@std@@QAEXQAU?$_List_node@PAUsNode@GameTileManager@@PAX@2@I@Z 00423140 f i GameTileManager.obj
 0001:000221e0       ?empty@?$list@PAUsNode@GameTileManager@@V?$allocator@PAUsNode@GameTileManager@@@std@@@std@@QBE_NXZ 004231e0 f i GameTileManager.obj
 0001:00022220       ?front@?$list@PAUsNode@GameTileManager@@V?$allocator@PAUsNode@GameTileManager@@@std@@@std@@QAEAAPAUsNode@GameTileManager@@XZ 00423220 f i GameTileManager.obj
 0001:000222b0       ?max_size@?$_Default_allocator_traits@V?$allocator@PAUsNode@GameTileManager@@@std@@@std@@SAIABV?$allocator@PAUsNode@GameTileManager@@@2@@Z 004232b0 f i GameTileManager.obj
 0001:000222c0       ?max_size@?$_Default_allocator_traits@V?$allocator@U?$_List_node@PAUsNode@GameTileManager@@PAX@std@@@std@@@std@@SAIABV?$allocator@U?$_List_node@PAUsNode@GameTileManager@@PAX@std@@@2@@Z 004232c0 f i GameTileManager.obj
 0001:000222d0       ?max_size@?$list@PAUsNode@GameTileManager@@V?$allocator@PAUsNode@GameTileManager@@@std@@@std@@QBEIXZ 004232d0 f i GameTileManager.obj
 0001:00022320       ?max_size@?$vector@PAUsNode@GameTileManager@@V?$allocator@PAUsNode@GameTileManager@@@std@@@std@@QBEIXZ 00423320 f i GameTileManager.obj
 0001:00022370       ?pop_front@?$list@PAUsNode@GameTileManager@@V?$allocator@PAUsNode@GameTileManager@@@std@@@std@@QAEXXZ 00423370 f i GameTileManager.obj
 0001:00022410       ?push_back@?$list@PAUsNode@GameTileManager@@V?$allocator@PAUsNode@GameTileManager@@@std@@@std@@QAEXABQAUsNode@GameTileManager@@@Z 00423410 f i GameTileManager.obj
 0001:00022440       ?push_back@?$vector@PAUsNode@GameTileManager@@V?$allocator@PAUsNode@GameTileManager@@@std@@@std@@QAEX$$QAPAUsNode@GameTileManager@@@Z 00423440 f i GameTileManager.obj
 0001:00022470       _sqrtf                     00423470 f i GameTileManager.obj
 0001:000224a0       ?virtSetupBackgroundBuffer@ImageMappingDemo@@UAEXXZ 004234a0 f   ImageMappingDemo.obj
 0001:000225a0       ?virtInitialiseObjects@ImageMappingDemo@@UAEHXZ 004235a0 f   ImageMappingDemo.obj
 0001:00022910       ?virtKeyDown@ImageMappingDemo@@UAEXH@Z 00423910 f   ImageMappingDemo.obj
 0001:00022940       ?virtMainLoopDoBeforeUpdate@ImageMappingDemo@@UAEXXZ 00423940 f   ImageMappingDemo.obj
 0001:000229d0       ?mapCoordinates@ImageMappingDemo@@UAE_NAAN0ABVSimpleImage@@@Z 004239d0 f   ImageMappingDemo.obj
 0001:00022e40       ??0MappableImageObject@@QAE@PAVImagePixelMapping@@HHPAVBaseEngine@@V?$basic_string@DU?$char_traits@D@std@@V?$allocator@D@2@@std@@_N3@Z 00423e40 f i ImageMappingDemo.obj
 0001:00022f00       ??1MappableImageObject@@UAE@XZ 00423f00 f i ImageMappingDemo.obj
 0001:00022f20       ??_EMappableImageObject@@UAEPAXI@Z 00423f20 f i ImageMappingDemo.obj
 0001:00022f20       ??_GMappableImageObject@@UAEPAXI@Z 00423f20 f i ImageMappingDemo.obj
 0001:00022f60       ?getPixelColour@MappableImageObject@@QAEHHH@Z 00423f60 f i ImageMappingDemo.obj
 0001:00022f90       ?getTheData@SimpleImage@@QBEABV?$shared_ptr@VRawImageData@@@std@@XZ 00423f90 f i ImageMappingDemo.obj
 0001:00022fb0       ?setOpaque@RawImageData@@QAEXXZ 00423fb0 f i ImageMappingDemo.obj
 0001:00023020       ?setRotation@ImagePixelMappingRotate@@QAEXN@Z 00424020 f i ImageMappingDemo.obj
 0001:00023040       ?setTransparencyColour@MappableImageObject@@QAEXH@Z 00424040 f i ImageMappingDemo.obj
 0001:00023070       ?setTransparencyColour@SimpleImage@@QAEXH@Z 00424070 f i ImageMappingDemo.obj
 0001:000230e0       ?setTransparentColour@RawImageData@@QAEXI@Z 004240e0 f i ImageMappingDemo.obj
 0001:00023200       ?setXShift@ImagePixelMappingShiftXY@@QAEXN@Z 00424200 f i ImageMappingDemo.obj
 0001:00023220       ?setYShift@ImagePixelMappingShiftXY@@QAEXN@Z 00424220 f i ImageMappingDemo.obj
 0001:00023240       ?virtDraw@MappableImageObject@@UAEXXZ 00424240 f i ImageMappingDemo.obj
 0001:000232d0       _SDL_main                  004242d0 f   mainfunction.obj
 0001:00023330       ?doProgram@@YAHHQAPAD@Z    00424330 f   mainfunction.obj
 0001:00023470       ?destroyImageManager@ImageManager@@SAXXZ 00424470 f i mainfunction.obj
 0001:000234d0       ??0BaseEngine@@QAE@XZ      004244d0 f   BaseEngine.obj
 0001:00023710       ??1BaseEngine@@UAE@XZ      00424710 f   BaseEngine.obj
 0001:00023760       ?initialise@BaseEngine@@QAEHPBDHH0H@Z 00424760 f   BaseEngine.obj
 0001:00023890       ?deinitialise@BaseEngine@@QAEXXZ 00424890 f   BaseEngine.obj
 0001:000238c0       ?mainLoop@BaseEngine@@QAEHXZ 004248c0 f   BaseEngine.obj
 0001:000239f0       ?handleEvent@BaseEngine@@QAE_NPATSDL_Event@@@Z 004249f0 f   BaseEngine.obj
 0001:00024030       ?isKeyPressed@BaseEngine@@QBE_NH@Z 00425030 f   BaseEngine.obj
 0001:00024060       ?virtKeyUp@BaseEngine@@UAEXH@Z 00425060 f   BaseEngine.obj
 0001:00024070       ?virtKeyDown@BaseEngine@@UAEXH@Z 00425070 f   BaseEngine.obj
 0001:00024080       ?virtMouseMoved@BaseEngine@@UAEXHH@Z 00425080 f   BaseEngine.obj
 0001:00024090       ?virtMouseDown@BaseEngine@@UAEXHHH@Z 00425090 f   BaseEngine.obj
 0001:000240a0       ?virtMouseUp@BaseEngine@@UAEXHHH@Z 004250a0 f   BaseEngine.obj
 0001:000240b0       ?virtInitialise@BaseEngine@@UAEHXZ 004250b0 f   BaseEngine.obj
 0001:00024100       ?virtCreateWindows@BaseEngine@@UAEXPBD@Z 00425100 f   BaseEngine.obj
 0001:00024190       ?virtCreateSurfaces@BaseEngine@@UAEXXZ 00425190 f   BaseEngine.obj
 0001:000241e0       ?virtCleanUp@BaseEngine@@UAEXXZ 004251e0 f   BaseEngine.obj
 0001:000241f0       ?virtSetupBackgroundBuffer@BaseEngine@@UAEXXZ 004251f0 f   BaseEngine.obj
 0001:00024210       ?virtDrawStringsUnderneath@BaseEngine@@UAEXXZ 00425210 f   BaseEngine.obj
 0001:00024220       ?virtDrawStringsOnTop@BaseEngine@@UAEXXZ 00425220 f   BaseEngine.obj
 0001:00024230       ?virtCheckForUpdateTime@BaseEngine@@UAE_NXZ 00425230 f   BaseEngine.obj
 0001:00024280       ?virtRenderScreen@BaseEngine@@UAEXXZ 00425280 f   BaseEngine.obj
 0001:00024410       ?getColour@BaseEngine@@QBEIH@Z 00425410 f   BaseEngine.obj
 0001:00024650       ?virtInitialiseObjects@BaseEngine@@UAEHXZ 00425650 f   BaseEngine.obj
 0001:00024680       ?drawAllObjects@BaseEngine@@UAEXXZ 00425680 f   BaseEngine.obj
 0001:00024840       ?updateAllObjects@BaseEngine@@UAEXH@Z 00425840 f   BaseEngine.obj
 0001:00024a00       _mydebug                   00425a00 f   BaseEngine.obj
 0001:000251c0       ??$?0ABV?$allocator@PAVDisplayableObject@@@std@@$$V@?$_Compressed_pair@V?$allocator@PAVDisplayableObject@@@std@@V?$_Vector_val@U?$_Simple_types@PAVDisplayableObject@@@std@@@2@$00@std@@QAE@U_One_then_variadic_args_t@1@ABV?$allocator@PAVDisplayableObject@@@1@@Z 004261c0 f i BaseEngine.obj
 0001:000251f0       ??$?0PAVDisplayableObject@@@?$allocator@U_Container_proxy@std@@@std@@QAE@ABV?$allocator@PAVDisplayableObject@@@1@@Z 004261f0 f i BaseEngine.obj
 0001:00025210       ??$_Construct_n@$$V@?$vector@PAVDisplayableObject@@V?$allocator@PAVDisplayableObject@@@std@@@std@@AAEXI@Z 00426210 f i BaseEngine.obj
 0001:000257a0       ??$forward@ABV?$allocator@PAVDisplayableObject@@@std@@@std@@YAABV?$allocator@PAVDisplayableObject@@@0@ABV10@@Z 004267a0 f i BaseEngine.obj
 0001:000257b0       ??0?$_Vector_iterator@V?$_Vector_val@U?$_Simple_types@PAVDisplayableObject@@@std@@@std@@@std@@QAE@ABV01@@Z 004267b0 f i BaseEngine.obj
 0001:000257e0       ??0?$_Vector_val@U?$_Simple_types@PAVDisplayableObject@@@std@@@std@@QAE@XZ 004267e0 f i BaseEngine.obj
 0001:00025830       ??0?$allocator@PAVDisplayableObject@@@std@@QAE@XZ 00426830 f i BaseEngine.obj
 0001:00025850       ??0?$vector@PAVDisplayableObject@@V?$allocator@PAVDisplayableObject@@@std@@@std@@QAE@IABV?$allocator@PAVDisplayableObject@@@1@@Z 00426850 f i BaseEngine.obj
 0001:00025890       ??0DisplayableObjectContainer@@QAE@H@Z 00426890 f i BaseEngine.obj
 0001:000258f0       ??0FilterPoints@@QAE@XZ    004268f0 f i BaseEngine.obj
 0001:00025910       ??1?$_Tidy_guard@V?$vector@PAVDisplayableObject@@V?$allocator@PAVDisplayableObject@@@std@@@std@@@std@@QAE@XZ 00426910 f i BaseEngine.obj
 0001:00025940       ??1?$vector@PAVDisplayableObject@@V?$allocator@PAVDisplayableObject@@@std@@@std@@QAE@XZ 00426940 f i BaseEngine.obj
 0001:000259b0       ??1DisplayableObjectContainer@@UAE@XZ 004269b0 f i BaseEngine.obj
 0001:00025a20       ??D?$_Vector_const_iterator@V?$_Vector_val@U?$_Simple_types@PAVDisplayableObject@@@std@@@std@@@std@@QBEABQAVDisplayableObject@@XZ 00426a20 f i BaseEngine.obj
 0001:00025b90       ??D?$_Vector_iterator@V?$_Vector_val@U?$_Simple_types@PAVDisplayableObject@@@std@@@std@@@std@@QBEAAPAVDisplayableObject@@XZ 00426b90 f i BaseEngine.obj
 0001:00025bb0       ??E?$_Vector_const_iterator@V?$_Vector_val@U?$_Simple_types@PAVDisplayableObject@@@std@@@std@@@std@@QAEAAV01@XZ 00426bb0 f i BaseEngine.obj
 0001:00025d20       ??E?$_Vector_iterator@V?$_Vector_val@U?$_Simple_types@PAVDisplayableObject@@@std@@@std@@@std@@QAE?AV01@H@Z 00426d20 f i BaseEngine.obj
 0001:00025d70       ??_EBaseEngine@@UAEPAXI@Z  00426d70 f i BaseEngine.obj
 0001:00025d70       ??_GBaseEngine@@UAEPAXI@Z  00426d70 f i BaseEngine.obj
 0001:00025db0       ??_EDisplayableObjectContainer@@UAEPAXI@Z 00426db0 f i BaseEngine.obj
 0001:00025db0       ??_GDisplayableObjectContainer@@UAEPAXI@Z 00426db0 f i BaseEngine.obj
 0001:00025df0       ?_Buy_nonzero@?$vector@PAVDisplayableObject@@V?$allocator@PAVDisplayableObject@@@std@@@std@@AAEXI@Z 00426df0 f i BaseEngine.obj
 0001:00025e30       ?_Buy_raw@?$vector@PAVDisplayableObject@@V?$allocator@PAVDisplayableObject@@@std@@@std@@AAEXI@Z 00426e30 f i BaseEngine.obj
 0001:00025eb0       ?_Tidy@?$vector@PAVDisplayableObject@@V?$allocator@PAVDisplayableObject@@@std@@@std@@AAEXXZ 00426eb0 f i BaseEngine.obj
 0001:00025fb0       ?getHasActed@DisplayableObject@@QBE_NXZ 00426fb0 f i BaseEngine.obj
 0001:00025fd0       ?isTimeToAct@BaseEngine@@QBE_NXZ 00426fd0 f i BaseEngine.obj
 0001:00026010       ?mySDLUpdateTexture@DrawingSurface@@QAEXPAUSDL_Texture@@@Z 00427010 f i BaseEngine.obj
 0001:00026050       ?setHasActed@DisplayableObject@@QAEX_N@Z 00427050 f i BaseEngine.obj
 0001:00026070       ?setTimeToAct@BaseEngine@@QAEXH@Z 00427070 f i BaseEngine.obj
 0001:000260a0       ?symbolToKeycode@BaseEngine@@SAHH@Z 004270a0 f i BaseEngine.obj
 0001:00026590       ?virtMainLoopDoBeforeUpdate@BaseEngine@@UAEXXZ 00427590 f i BaseEngine.obj
 0001:000265a0       _fprintf                   004275a0 f i BaseEngine.obj
 0001:000265e0       ??0DisplayableObject@@QAE@PAVBaseEngine@@HH_N@Z 004275e0 f   DisplayableObject.obj
 0001:000266a0       ??0DisplayableObject@@QAE@HHPAVBaseEngine@@HH_N@Z 004276a0 f   DisplayableObject.obj
 0001:00026760       ??1DisplayableObject@@UAE@XZ 00427760 f   DisplayableObject.obj
 0001:00026780       ?virtDraw@DisplayableObject@@UAEXXZ 00427780 f   DisplayableObject.obj
 0001:00026820       ?virtDoUpdate@DisplayableObject@@UAEXH@Z 00427820 f   DisplayableObject.obj
 0001:00026830       ?redrawDisplay@DisplayableObject@@QAEXXZ 00427830 f   DisplayableObject.obj
 0001:00026850       ?redrawRectangle@DisplayableObject@@QAEXXZ 00427850 f   DisplayableObject.obj
 0001:00026890       ?virtIsObjectInRedrawArea@DisplayableObject@@QAE_NXZ 00427890 f   DisplayableObject.obj
 0001:00026930       ?fixPosition@DisplayableObject@@QAEXXZ 00427930 f   DisplayableObject.obj
 0001:00026b00       ??_EDisplayableObject@@UAEPAXI@Z 00427b00 f i DisplayableObject.obj
 0001:00026b00       ??_GDisplayableObject@@UAEPAXI@Z 00427b00 f i DisplayableObject.obj
 0001:00026b40       ?convertVirtualPixelToClickedXPosition@BaseEngine@@QAEHH@Z 00427b40 f i DisplayableObject.obj
 0001:00026b70       ?convertVirtualPixelToClickedYPosition@BaseEngine@@QAEHH@Z 00427b70 f i DisplayableObject.obj
 0001:00026ba0       ?convertVirtualToRealXPosition@DrawingSurface@@QAEHH@Z 00427ba0 f i DisplayableObject.obj
 0001:00026be0       ?convertVirtualToRealYPosition@DrawingSurface@@QAEHH@Z 00427be0 f i DisplayableObject.obj
 0001:00026c20       ?redrawRectangle@BaseEngine@@QAEXHHHH@Z 00427c20 f i DisplayableObject.obj
 0001:00026d90       ?setForegroundPixel@BaseEngine@@QAEXHHI@Z 00427d90 f i DisplayableObject.obj
 0001:00026dc0       ??0FontManager@@QAE@XZ     00427dc0 f   FontManager.obj
 0001:00026e30       ??1FontManager@@QAE@XZ     00427e30 f   FontManager.obj
 0001:00026ea0       ?getFont@FontManager@@QAEPAVFont@@PBDH@Z 00427ea0 f   FontManager.obj
 0001:00027040       ?loadFonts@FontManager@@QAEXXZ 00428040 f   FontManager.obj
 0001:00027170       ??$growArrayOfObjects@PAVFont@@@@YAPAPAVFont@@PAPAV0@AAHH@Z 00428170 f i FontManager.obj
 0001:00027230       ??0Font@@QAE@PBDH@Z        00428230 f i FontManager.obj
 0001:000272b0       ??1Font@@QAE@XZ            004282b0 f i FontManager.obj
 0001:00027330       ??_GFont@@QAEPAXI@Z        00428330 f i FontManager.obj
 0001:00027370       ?getName@Font@@QAEPBDXZ    00428370 f i FontManager.obj
 0001:00027390       ?getSize@Font@@QAEHXZ      00428390 f i FontManager.obj
 0001:000273b0       ??0MenuBackdrop@@QAE@HHPAVBaseEngine@@@Z 004283b0 f   MenuBackdrop.obj
 0001:00027480       ?virtDraw@MenuBackdrop@@UAEXXZ 00428480 f   MenuBackdrop.obj
 0001:00027530       ??1MenuBackdrop@@UAE@XZ    00428530 f i MenuBackdrop.obj
 0001:00027560       ??_EMenuBackdrop@@UAEPAXI@Z 00428560 f i MenuBackdrop.obj
 0001:00027560       ??_GMenuBackdrop@@UAEPAXI@Z 00428560 f i MenuBackdrop.obj
 0001:000275a0       ??0MovingObject@@QAE@HHPAVBaseEngine@@HHH@Z 004285a0 f   MovingObject.obj
 0001:000276e0       ??0MovingPlayerObject@@QAE@PAVBaseEngine@@PAVEnemySpawner@@H@Z 004286e0 f   MovingObject.obj
 0001:000277c0       ?checkCoverTop@MovingPlayerObject@@QAE_NH@Z 004287c0 f   MovingObject.obj
 0001:00027870       ?checkCoverBottom@MovingPlayerObject@@QAE_NH@Z 00428870 f   MovingObject.obj
 0001:00027920       ?checkCoverLeft@MovingPlayerObject@@QAE_NH@Z 00428920 f   MovingObject.obj
 0001:000279d0       ?checkCoverRight@MovingPlayerObject@@QAE_NH@Z 004289d0 f   MovingObject.obj
 0001:00027a80       ?virtDraw@MovingPlayerObject@@UAEXXZ 00428a80 f   MovingObject.obj
 0001:000280d0       ?virtDoUpdate@MovingPlayerObject@@UAEXH@Z 004290d0 f   MovingObject.obj
 0001:00028420       ?setPlayerPosition@EnemyObject@@QAEXXZ 00429420 f   MovingObject.obj
 0001:00028460       ?checkKill@EnemyObject@@QAEXXZ 00429460 f   MovingObject.obj
 0001:000284e0       ?killEnemy@EnemyObject@@QAEXXZ 004294e0 f   MovingObject.obj
 0001:00028550       ??0FlyingEnemyObject@@QAE@PAVBaseEngine@@H@Z 00429550 f   MovingObject.obj
 0001:00028620       ?virtDraw@FlyingEnemyObject@@UAEXXZ 00429620 f   MovingObject.obj
 0001:000289b0       ?virtDoUpdate@FlyingEnemyObject@@UAEXH@Z 004299b0 f   MovingObject.obj
 0001:00028d00       ??0StandardEnemyObject@@QAE@PAVBaseEngine@@H@Z 00429d00 f   MovingObject.obj
 0001:00028d40       ?virtDraw@StandardEnemyObject@@UAEXXZ 00429d40 f   MovingObject.obj
 0001:000290d0       ?virtDoUpdate@StandardEnemyObject@@UAEXH@Z 0042a0d0 f   MovingObject.obj
 0001:00029530       ??0ShooterEnemyObject@@QAE@PAVBaseEngine@@H@Z 0042a530 f   MovingObject.obj
 0001:000295d0       ?virtDraw@ShooterEnemyObject@@UAEXXZ 0042a5d0 f   MovingObject.obj
 0001:00029b20       ?virtDoUpdate@ShooterEnemyObject@@UAEXH@Z 0042ab20 f   MovingObject.obj
 0001:0002a140       ?checkPlayerInView@ShooterEnemyObject@@QAEXXZ 0042b140 f   MovingObject.obj
 0001:0002ac40       ??$?HDU?$char_traits@D@std@@V?$allocator@D@1@@std@@YA?AV?$basic_string@DU?$char_traits@D@std@@V?$allocator@D@2@@0@$$QAV10@ABV10@@Z 0042bc40 f i MovingObject.obj
 0001:0002ac90       ??$?HDU?$char_traits@D@std@@V?$allocator@D@1@@std@@YA?AV?$basic_string@DU?$char_traits@D@std@@V?$allocator@D@2@@0@$$QAV10@QBD@Z 0042bc90 f i MovingObject.obj
 0001:0002ace0       ??$?HDU?$char_traits@D@std@@V?$allocator@D@1@@std@@YA?AV?$basic_string@DU?$char_traits@D@std@@V?$allocator@D@2@@0@QBDABV10@@Z 0042bce0 f i MovingObject.obj
 0001:0002ad90       ??$_Reallocate_grow_by@V<lambda_ab246b20b9526e2ef7792587e4298a77>@@PBDI@?$basic_string@DU?$char_traits@D@std@@V?$allocator@D@2@@std@@AAEAAV01@IV<lambda_ab246b20b9526e2ef7792587e4298a77>@@PBDI@Z 0042bd90 f i MovingObject.obj
 0001:0002af00       ??$atan2@HH$0A@@@YANHH@Z   0042bf00 f i MovingObject.obj
 0001:0002af30       ??$move@AAV?$basic_string@DU?$char_traits@D@std@@V?$allocator@D@2@@std@@@std@@YA$$QAV?$basic_string@DU?$char_traits@D@std@@V?$allocator@D@2@@0@AAV10@@Z 0042bf30 f i MovingObject.obj
 0001:0002af40       ??0?$basic_string@DU?$char_traits@D@std@@V?$allocator@D@2@@std@@QAE@U_String_constructor_concat_tag@1@ABV01@QBDI2I@Z 0042bf40 f i MovingObject.obj
 0001:0002b120       ??0EnemyObject@@QAE@PAVBaseEngine@@HHHHH@Z 0042c120 f i MovingObject.obj
 0001:0002b380       ??1EnemyObject@@UAE@XZ     0042c380 f i MovingObject.obj
 0001:0002b3b0       ??1FlyingEnemyObject@@UAE@XZ 0042c3b0 f i MovingObject.obj
 0001:0002b440       ??1MovingObject@@UAE@XZ    0042c440 f i MovingObject.obj
 0001:0002b4b0       ??1MovingPlayerObject@@UAE@XZ 0042c4b0 f i MovingObject.obj
 0001:0002b4f0       ??1ShooterEnemyObject@@UAE@XZ 0042c4f0 f i MovingObject.obj
 0001:0002b580       ??1StandardEnemyObject@@UAE@XZ 0042c580 f i MovingObject.obj
 0001:0002b610       ??R<lambda_ab246b20b9526e2ef7792587e4298a77>@@QBE@QADQBDI1I@Z 0042c610 f i MovingObject.obj
 0001:0002b680       ??_EEnemyObject@@UAEPAXI@Z 0042c680 f i MovingObject.obj
 0001:0002b680       ??_GEnemyObject@@UAEPAXI@Z 0042c680 f i MovingObject.obj
 0001:0002b6c0       ??_EFlyingEnemyObject@@UAEPAXI@Z 0042c6c0 f i MovingObject.obj
 0001:0002b6c0       ??_GFlyingEnemyObject@@UAEPAXI@Z 0042c6c0 f i MovingObject.obj
 0001:0002b700       ??_EMovingObject@@UAEPAXI@Z 0042c700 f i MovingObject.obj
 0001:0002b700       ??_GMovingObject@@UAEPAXI@Z 0042c700 f i MovingObject.obj
 0001:0002b740       ??_EMovingPlayerObject@@UAEPAXI@Z 0042c740 f i MovingObject.obj
 0001:0002b740       ??_GMovingPlayerObject@@UAEPAXI@Z 0042c740 f i MovingObject.obj
 0001:0002b780       ??_EShooterEnemyObject@@UAEPAXI@Z 0042c780 f i MovingObject.obj
 0001:0002b780       ??_GShooterEnemyObject@@UAEPAXI@Z 0042c780 f i MovingObject.obj
 0001:0002b7c0       ??_EStandardEnemyObject@@UAEPAXI@Z 0042c7c0 f i MovingObject.obj
 0001:0002b7c0       ??_GStandardEnemyObject@@UAEPAXI@Z 0042c7c0 f i MovingObject.obj
 0001:0002b800       ?append@?$basic_string@DU?$char_traits@D@std@@V?$allocator@D@2@@std@@QAEAAV12@ABV12@@Z 0042c800 f i MovingObject.obj
 0001:0002b830       ?append@?$basic_string@DU?$char_traits@D@std@@V?$allocator@D@2@@std@@QAEAAV12@QBD@Z 0042c830 f i MovingObject.obj
 0001:0002b870       ?append@?$basic_string@DU?$char_traits@D@std@@V?$allocator@D@2@@std@@QAEAAV12@QBDI@Z 0042c870 f i MovingObject.obj
 0001:0002b930       ?checkRectangles@CollisionDetection@@SA_NHHHHHHHH@Z 0042c930 f i MovingObject.obj
 0001:0002b980       ?cos@@YAMM@Z               0042c980 f i MovingObject.obj
 0001:0002b9a0       ?getCurrentMouseX@BaseEngine@@QBEHXZ 0042c9a0 f i MovingObject.obj
 0001:0002b9c0       ?getDead@EnemyObject@@QAE_NXZ 0042c9c0 f i MovingObject.obj
 0001:0002b9e0       ?getDrawingRegionBottom@DisplayableObject@@QBEHXZ 0042c9e0 f i MovingObject.obj
 0001:0002ba10       ?getDrawingRegionRight@DisplayableObject@@QBEHXZ 0042ca10 f i MovingObject.obj
 0001:0002ba40       ?getEndNode@GameTileManager@@QAEPAUsNode@1@XZ 0042ca40 f i MovingObject.obj
 0001:0002ba60       ?getEnemySpawner@GameEngine@@QAEPAVEnemySpawner@@XZ 0042ca60 f i MovingObject.obj
 0001:0002ba80       ?getEnemyType@EnemyObject@@QAEHXZ 0042ca80 f i MovingObject.obj
 0001:0002baa0       ?getMapValue@TileManager@@QBEHHH@Z 0042caa0 f i MovingObject.obj
 0001:0002bad0       ?getMapYForScreenY@TileManager@@QBEHH@Z 0042cad0 f i MovingObject.obj
 0001:0002bb00       ?getRawTime@BaseEngine@@QBEHXZ 0042cb00 f i MovingObject.obj
 0001:0002bb20       ?kill@MovingObject@@QAEXXZ 0042cb20 f i MovingObject.obj
 0001:0002bb40       ?killEnemy@EnemySpawner@@QAEXXZ 0042cb40 f i MovingObject.obj
 0001:0002bb60       ?nodeList@GameTileManager@@QAEPAUsNode@1@XZ 0042cb60 f i MovingObject.obj
 0001:0002bb80       ?setStartAndEndNodes@GameTileManager@@QAEXHHHH@Z 0042cb80 f i MovingObject.obj
 0001:0002bbe0       ?setTrueSides@MovingPlayerObject@@QAEXXZ 0042cbe0 f i MovingObject.obj
 0001:0002bd40       ?sin@@YAMM@Z               0042cd40 f i MovingObject.obj
 0001:0002bd60       _cosf                      0042cd60 f i MovingObject.obj
 0001:0002bd90       _sinf                      0042cd90 f i MovingObject.obj
 0001:0002bdc0       ??0Projectile@@QAE@PAVBaseEngine@@HHHHH@Z 0042cdc0 f   Projectile.obj
 0001:0002bf10       ?kill@Projectile@@QAEXXZ   0042cf10 f   Projectile.obj
 0001:0002bf60       ?virtDraw@Projectile@@UAEXXZ 0042cf60 f   Projectile.obj
 0001:0002bfc0       ?virtDoUpdate@Projectile@@UAEXH@Z 0042cfc0 f   Projectile.obj
 0001:0002c200       ?isOnCoverTile@Projectile@@QAE_NXZ 0042d200 f   Projectile.obj
 0001:0002c260       ??0BossProjectile@@QAE@PAVBaseEngine@@HHHH_NPAVShooterEnemyObject@@@Z 0042d260 f   Projectile.obj
 0001:0002c2c0       ?virtDraw@BossProjectile@@UAEXXZ 0042d2c0 f   Projectile.obj
 0001:0002c320       ?virtDoUpdate@BossProjectile@@UAEXH@Z 0042d320 f   Projectile.obj
 0001:0002c510       ?activate@BossProjectile@@QAEXXZ 0042d510 f   Projectile.obj
 0001:0002c520       ?deActivate@BossProjectile@@QAEXXZ 0042d520 f   Projectile.obj
 0001:0002c710       ??$sqrt@H$0A@@@YANH@Z      0042d710 f i Projectile.obj
 0001:0002c730       ??1BossProjectile@@UAE@XZ  0042d730 f i Projectile.obj
 0001:0002c750       ??1Projectile@@UAE@XZ      0042d750 f i Projectile.obj
 0001:0002c790       ??_EBossProjectile@@UAEPAXI@Z 0042d790 f i Projectile.obj
 0001:0002c790       ??_GBossProjectile@@UAEPAXI@Z 0042d790 f i Projectile.obj
 0001:0002c7d0       ??_EProjectile@@UAEPAXI@Z  0042d7d0 f i Projectile.obj
 0001:0002c7d0       ??_GProjectile@@UAEPAXI@Z  0042d7d0 f i Projectile.obj
 0001:0002c810       ?drawForegroundRectangle@BaseEngine@@QAEXHHHHI@Z 0042d810 f i Projectile.obj
 0001:0002c850       ?getHealth@MovingObject@@QAEHXZ 0042d850 f i Projectile.obj
 0001:0002c870       ?setHealth@MovingObject@@QAEXH@Z 0042d870 f i Projectile.obj
 0001:0002c890       ?setPlayerInView@ShooterEnemyObject@@QAEX_N@Z 0042d890 f i Projectile.obj
 0001:0002c8b0       ?changePixelColour@ImagePixelMapping@@UAE_NHHAAHPAVDrawingSurface@@@Z 0042d8b0 f i SimpleImage.obj
 0001:0002c8d0       ?mapCoordinates@CroppedImagePixelMapping@@UAE_NAAN0ABVSimpleImage@@@Z 0042d8d0 f i SimpleImage.obj
 0001:0002c970       ??0SimpleImage@@QAE@XZ     0042d970 f   SimpleImage.obj
 0001:0002c9a0       ??0SimpleImage@@QAE@V?$shared_ptr@VRawImageData@@@std@@@Z 0042d9a0 f   SimpleImage.obj
 0001:0002c9e0       ?exists@SimpleImage@@QBE_NXZ 0042d9e0 f   SimpleImage.obj
 0001:0002ca00       ?renderImage@SimpleImage@@QBEXPAVDrawingSurface@@HHHHHH@Z 0042da00 f   SimpleImage.obj
 0001:0002cb10       ?renderImageWithMask@SimpleImage@@QBEXPAVDrawingSurface@@HHHHHHH@Z 0042db10 f   SimpleImage.obj
 0001:0002cc50       ?renderImageWithMaskAndTransparency@SimpleImage@@QBEXPAVDrawingSurface@@HHHHHHHH@Z 0042dc50 f   SimpleImage.obj
 0001:0002ce20       ?renderImageBlit@SimpleImage@@QAEXPAVBaseEngine@@PAVDrawingSurface@@HHHHHHHH@Z 0042de20 f   SimpleImage.obj
 0001:0002d0d0       ?adjustXYWidthHeight@SimpleImage@@SA_NPAVDrawingSurface@@AAH11111@Z 0042e0d0 f   SimpleImage.obj
 0001:0002d2d0       ?renderImageApplyingMapping@SimpleImage@@QBEXPAVBaseEngine@@PAVDrawingSurface@@HHHHPAVImagePixelMapping@@@Z 0042e2d0 f   SimpleImage.obj
 0001:0002d8e0       ??BDrawingSurface@@QAEPAUSDL_Surface@@XZ 0042e8e0 f i SimpleImage.obj
 0001:0002d900       ?convertClickedToVirtualPixelXPosition@BaseEngine@@QAEHH@Z 0042e900 f i SimpleImage.obj
 0001:0002d930       ?convertClickedToVirtualPixelYPosition@BaseEngine@@QAEHH@Z 0042e930 f i SimpleImage.obj
 0001:0002d960       ?getSurface@RawImageData@@QAEPAUSDL_Surface@@XZ 0042e960 f i SimpleImage.obj
 0001:0002d980       ?rawGetPixel@DrawingSurface@@QBEIHH@Z 0042e980 f i SimpleImage.obj
 0001:0002d9f0       ?virtSetupBackgroundBuffer@SimpleDemo@@UAEXXZ 0042e9f0 f   SimpleDemo.obj
 0001:0002db30       ?virtInitialiseObjects@SimpleDemo@@UAEHXZ 0042eb30 f   SimpleDemo.obj
 0001:0002dcb0       ?virtDrawStringsUnderneath@SimpleDemo@@UAEXXZ 0042ecb0 f   SimpleDemo.obj
 0001:0002dd30       ?virtDrawStringsOnTop@SimpleDemo@@UAEXXZ 0042ed30 f   SimpleDemo.obj
 0001:0002ddf0       ?virtMouseDown@SimpleDemo@@UAEXHHH@Z 0042edf0 f   SimpleDemo.obj
 0001:0002de10       ?virtKeyDown@SimpleDemo@@UAEXH@Z 0042ee10 f   SimpleDemo.obj
 0001:0002df80       ??0BouncingObject@@QAE@PAVBaseEngine@@HHNNNN@Z 0042ef80 f i SimpleDemo.obj
 0001:0002e050       ??1BouncingObject@@UAE@XZ  0042f050 f i SimpleDemo.obj
 0001:0002e070       ??_EBouncingObject@@UAEPAXI@Z 0042f070 f i SimpleDemo.obj
 0001:0002e070       ??_GBouncingObject@@UAEPAXI@Z 0042f070 f i SimpleDemo.obj
 0001:0002e0b0       ?isPaused@BaseEngine@@QAE_NXZ 0042f0b0 f i SimpleDemo.obj
 0001:0002e0f0       ?lockAndSetupBackground@BaseEngine@@QAEXXZ 0042f0f0 f i SimpleDemo.obj
 0001:0002e130       ?virtDoUpdate@BouncingObject@@UAEXH@Z 0042f130 f i SimpleDemo.obj
 0001:0002e530       ?virtDraw@BouncingObject@@UAEXXZ 0042f530 f i SimpleDemo.obj
 0001:0002e5d0       ??0StarfieldDemo@@QAE@XZ   0042f5d0 f   StarfieldDemo.obj
 0001:0002e610       ??1StarfieldDemo@@UAE@XZ   0042f610 f   StarfieldDemo.obj
 0001:0002e640       ?virtSetupBackgroundBuffer@StarfieldDemo@@UAEXXZ 0042f640 f   StarfieldDemo.obj
 0001:0002e780       ?virtMainLoopDoBeforeUpdate@StarfieldDemo@@UAEXXZ 0042f780 f   StarfieldDemo.obj
 0001:0002e7c0       ?copyAllBackgroundBuffer@StarfieldDemo@@UAEXXZ 0042f7c0 f   StarfieldDemo.obj
 0001:0002e900       ??_EStarfieldDemo@@UAEPAXI@Z 0042f900 f i StarfieldDemo.obj
 0001:0002e900       ??_GStarfieldDemo@@UAEPAXI@Z 0042f900 f i StarfieldDemo.obj
 0001:0002e940       ??0TextBox@@QAE@HHPAVBaseEngine@@HH@Z 0042f940 f   TextBox.obj
 0001:0002ea30       ?virtDraw@TextBox@@UAEXXZ  0042fa30 f   TextBox.obj
 0001:0002eb10       ?virtDoUpdate@TextBox@@UAEXH@Z 0042fb10 f   TextBox.obj
 0001:0002f340       ??1TextBox@@UAE@XZ         00430340 f i TextBox.obj
 0001:0002f370       ??_ETextBox@@UAEPAXI@Z     00430370 f i TextBox.obj
 0001:0002f370       ??_GTextBox@@UAEPAXI@Z     00430370 f i TextBox.obj
 0001:0002f3b0       ?pop_back@?$basic_string@DU?$char_traits@D@std@@V?$allocator@D@2@@std@@QAEXXZ 004303b0 f i TextBox.obj
 0001:0002f450       ?drawAllTiles@TileManager@@QBEXPAVBaseEngine@@PAVDrawingSurface@@@Z 00430450 f   TileManager.obj
 0001:0002f4f0       ?drawSomeTiles@TileManager@@QBEXPAVBaseEngine@@PAVDrawingSurface@@HHHH@Z 004304f0 f   TileManager.obj
 0001:0002f590       ?virtDrawTileAt@TileManager@@UBEXPAVBaseEngine@@PAVDrawingSurface@@HHHH@Z 00430590 f   TileManager.obj
 0001:0002f680       ??0BouncingBall@@QAE@PAVBouncingBallMain@@HHHHPBDHH@Z 00430680 f   BouncingBall.obj
 0001:0002f750       ??1BouncingBall@@UAE@XZ    00430750 f   BouncingBall.obj
 0001:0002f770       ?virtDraw@BouncingBall@@UAEXXZ 00430770 f   BouncingBall.obj
 0001:0002fa40       ?virtDoUpdate@BouncingBall@@UAEXH@Z 00430a40 f   BouncingBall.obj
 0001:0002fa60       ??0BouncingBall1@@QAE@PAVBouncingBallMain@@HHHHPBDHHPAVTileManager@@@Z 00430a60 f   BouncingBall.obj
 0001:0002fb00       ?setMovement@BouncingBall1@@QAEXHHHHHHH@Z 00430b00 f   BouncingBall.obj
 0001:0002fb70       ?virtDoUpdate@BouncingBall1@@UAEXH@Z 00430b70 f   BouncingBall.obj
 0001:0002fce0       ??0BouncingBall2@@QAE@PAVBouncingBallMain@@HHHHPBDHH@Z 00430ce0 f   BouncingBall.obj
 0001:0002fd60       ?setPosition@BouncingBall2@@QAEXNN@Z 00430d60 f   BouncingBall.obj
 0001:0002fd90       ?setSpeed@BouncingBall2@@QAEXNN@Z 00430d90 f   BouncingBall.obj
 0001:0002fdc0       ?virtDoUpdate@BouncingBall2@@UAEXH@Z 00430dc0 f   BouncingBall.obj
 0001:000303b0       ??0MovementPosition@@QAE@XZ 004313b0 f i BouncingBall.obj
 0001:00030430       ??1BouncingBall1@@UAE@XZ   00431430 f i BouncingBall.obj
 0001:00030450       ??1BouncingBall2@@UAE@XZ   00431450 f i BouncingBall.obj
 0001:00030470       ??_EBouncingBall1@@UAEPAXI@Z 00431470 f i BouncingBall.obj
 0001:00030470       ??_GBouncingBall1@@UAEPAXI@Z 00431470 f i BouncingBall.obj
 0001:000304b0       ??_EBouncingBall2@@UAEPAXI@Z 004314b0 f i BouncingBall.obj
 0001:000304b0       ??_GBouncingBall2@@UAEPAXI@Z 004314b0 f i BouncingBall.obj
 0001:000304f0       ??_EBouncingBall@@UAEPAXI@Z 004314f0 f i BouncingBall.obj
 0001:000304f0       ??_GBouncingBall@@UAEPAXI@Z 004314f0 f i BouncingBall.obj
 0001:00030530       ?calculate@MovementPosition@@QAEXH@Z 00431530 f i BouncingBall.obj
 0001:00030620       ?getX@MovementPosition@@QBEHXZ 00431620 f i BouncingBall.obj
 0001:00030640       ?getY@MovementPosition@@QBEHXZ 00431640 f i BouncingBall.obj
 0001:00030660       ?hasMovementFinished@MovementPosition@@QBE_NH@Z 00431660 f i BouncingBall.obj
 0001:000306a0       ?reverse@MovementPosition@@QAEXXZ 004316a0 f i BouncingBall.obj
 0001:00030730       ?setAndRedrawMapValueAt@TileManager@@QAEXHHHPAVBaseEngine@@PAVDrawingSurface@@@Z 00431730 f i BouncingBall.obj
 0001:000307d0       ?setup@MovementPosition@@QAEXHHHHHH@Z 004317d0 f i BouncingBall.obj
 0001:00030840       ?virtMouseDown@BouncingBall@@UAEXHHH@Z 00431840 f i BouncingBall.obj
 0001:00030880       ?virtSetupBackgroundBuffer@BouncingBallMain@@UAEXXZ 00431880 f   BouncingBallMain.obj
 0001:000310c0       ?virtInitialiseObjects@BouncingBallMain@@UAEHXZ 004320c0 f   BouncingBallMain.obj
 0001:00031390       ?virtDrawStringsUnderneath@BouncingBallMain@@UAEXXZ 00432390 f   BouncingBallMain.obj
 0001:000313d0       ?virtMouseDown@BouncingBallMain@@UAEXHHH@Z 004323d0 f   BouncingBallMain.obj
 0001:00031410       ?virtKeyDown@BouncingBallMain@@UAEXH@Z 00432410 f   BouncingBallMain.obj
 0001:00031730       ?drawBackgroundLine@BaseEngine@@QAEXHHHHI@Z 00432730 f i BouncingBallMain.obj
 0001:000317a0       ?drawBackgroundPolygon@BaseEngine@@QAEXNNNNNNNNI@Z 004327a0 f i BouncingBallMain.obj
 0001:00031860       ?drawBackgroundPolygon@BaseEngine@@QAEXNNNNNNNNNNI@Z 00432860 f i BouncingBallMain.obj
 0001:00031930       ?drawBackgroundPolygon@BaseEngine@@QAEXNNNNNNNNNNNNI@Z 00432930 f i BouncingBallMain.obj
 0001:00031a20       ?drawBackgroundPolygon@BaseEngine@@QAEXNNNNNNNNNNNNNNI@Z 00432a20 f i BouncingBallMain.obj
 0001:00031b20       ?drawBackgroundPolygon@BaseEngine@@QAEXNNNNNNNNNNNNNNNNI@Z 00432b20 f i BouncingBallMain.obj
 0001:00031c60       ?drawBackgroundTriangle@BaseEngine@@QAEXHHHHHHI@Z 00432c60 f i BouncingBallMain.obj
 0001:00031cf0       ?drawBackgroundVerticalSidedRegion@BaseEngine@@QAEXNNNNNNI@Z 00432cf0 f i BouncingBallMain.obj
 0001:00031d80       ?virtInitialise@ZoomingDemo@@UAEHXZ 00432d80 f   ZoomingDemo.obj
 0001:00031dd0       ?virtSetupBackgroundBuffer@ZoomingDemo@@UAEXXZ 00432dd0 f   ZoomingDemo.obj
 0001:00031df0       ?virtInitialiseObjects@ZoomingDemo@@UAEHXZ 00432df0 f   ZoomingDemo.obj
 0001:00031fb0       ?virtDrawStringsUnderneath@ZoomingDemo@@UAEXXZ 00432fb0 f   ZoomingDemo.obj
 0001:00032060       ?virtDrawStringsOnTop@ZoomingDemo@@UAEXXZ 00433060 f   ZoomingDemo.obj
 0001:000320e0       ?virtMouseDown@ZoomingDemo@@UAEXHHH@Z 004330e0 f   ZoomingDemo.obj
 0001:00032130       ?virtKeyDown@ZoomingDemo@@UAEXH@Z 00433130 f   ZoomingDemo.obj
 0001:00032230       ?virtMouseWheel@ZoomingDemo@@UAEXHHHH@Z 00433230 f   ZoomingDemo.obj
 0001:00032430       ??0SimpleFlashingDragableImageObject@@QAE@HHPAVBaseEngine@@V?$basic_string@DU?$char_traits@D@std@@V?$allocator@D@2@@std@@1_N2@Z 00433430 f i ZoomingDemo.obj
 0001:00032630       ??1SimpleFlashingDragableImageObject@@UAE@XZ 00433630 f i ZoomingDemo.obj
 0001:00032670       ??_ESimpleFlashingDragableImageObject@@UAEPAXI@Z 00433670 f i ZoomingDemo.obj
 0001:00032670       ??_GSimpleFlashingDragableImageObject@@UAEPAXI@Z 00433670 f i ZoomingDemo.obj
 0001:000326b0       ?changeOffset@FilterPointsTranslation@@QAEXHH@Z 004336b0 f i ZoomingDemo.obj
 0001:000326f0       ?compress@FilterPointsScaling@@QAEXXZ 004336f0 f i ZoomingDemo.obj
 0001:00032720       ?compressX@FilterPointsScaling@@QAEXXZ 00433720 f i ZoomingDemo.obj
 0001:00032770       ?compressY@FilterPointsScaling@@QAEXXZ 00433770 f i ZoomingDemo.obj
 0001:000327c0       ?setOffset@FilterPointsTranslation@@QAEXHH@Z 004337c0 f i ZoomingDemo.obj
 0001:000327f0       ?stretch@FilterPointsScaling@@QAEXXZ 004337f0 f i ZoomingDemo.obj
 0001:00032820       ?stretchX@FilterPointsScaling@@QAEXXZ 00433820 f i ZoomingDemo.obj
 0001:00032870       ?stretchY@FilterPointsScaling@@QAEXXZ 00433870 f i ZoomingDemo.obj
 0001:000328c0       ?virtDoUpdate@SimpleFlashingDragableImageObject@@UAEXH@Z 004338c0 f i ZoomingDemo.obj
 0001:00032920       ?virtDraw@SimpleFlashingDragableImageObject@@UAEXXZ 00433920 f i ZoomingDemo.obj
 0001:00032a10       ?virtMouseDown@SimpleFlashingDragableImageObject@@UAEXHHH@Z 00433a10 f i ZoomingDemo.obj
 0001:00032a80       ?virtMouseMoved@SimpleFlashingDragableImageObject@@UAEXHH@Z 00433a80 f i ZoomingDemo.obj
 0001:00032ae0       ?virtMouseUp@SimpleFlashingDragableImageObject@@UAEXHHH@Z 00433ae0 f i ZoomingDemo.obj
 0001:00032b00       ??0MazeDemoMain@@QAE@XZ    00433b00 f   MazeDemoMain.obj
 0001:00032b80       ??1MazeDemoMain@@UAE@XZ    00433b80 f   MazeDemoMain.obj
 0001:00032bc0       ?virtSetupBackgroundBuffer@MazeDemoMain@@UAEXXZ 00433bc0 f   MazeDemoMain.obj
 0001:00032db0       ?virtInitialiseObjects@MazeDemoMain@@UAEHXZ 00433db0 f   MazeDemoMain.obj
 0001:00032fb0       ?virtDrawStringsUnderneath@MazeDemoMain@@UAEXXZ 00433fb0 f   MazeDemoMain.obj
 0001:00033040       ?virtMouseDown@MazeDemoMain@@UAEXHHH@Z 00434040 f   MazeDemoMain.obj
 0001:00033050       ?virtKeyDown@MazeDemoMain@@UAEXH@Z 00434050 f   MazeDemoMain.obj
 0001:000332a0       ??$addressof@$$CBV?$_Vector_val@U?$_Simple_types@PAVDisplayableObject@@@std@@@std@@@std@@YAPBV?$_Vector_val@U?$_Simple_types@PAVDisplayableObject@@@std@@@0@ABV10@@Z 004342a0 f i MazeDemoMain.obj
 0001:000332b0       ??0MazeDemoTileManager@@QAE@XZ 004342b0 f i MazeDemoMain.obj
 0001:000332e0       ??0TileManager@@QAE@HH@Z   004342e0 f i MazeDemoMain.obj
 0001:00033360       ??1MazeDemoTileManager@@UAE@XZ 00434360 f i MazeDemoMain.obj
 0001:00033390       ??E?$_Vector_const_iterator@V?$_Vector_val@U?$_Simple_types@PAVDisplayableObject@@@std@@@std@@@std@@QAE?AV01@H@Z 00434390 f i MazeDemoMain.obj
 0001:000333e0       ??_EMazeDemoMain@@UAEPAXI@Z 004343e0 f i MazeDemoMain.obj
 0001:000333e0       ??_GMazeDemoMain@@UAEPAXI@Z 004343e0 f i MazeDemoMain.obj
 0001:00033420       ??_EMazeDemoTileManager@@UAEPAXI@Z 00434420 f i MazeDemoMain.obj
 0001:00033420       ??_GMazeDemoTileManager@@UAEPAXI@Z 00434420 f i MazeDemoMain.obj
 0001:00033460       ?begin@?$vector@PAVDisplayableObject@@V?$allocator@PAVDisplayableObject@@@std@@@std@@QBE?AV?$_Vector_const_iterator@V?$_Vector_val@U?$_Simple_types@PAVDisplayableObject@@@std@@@std@@@2@XZ 00434460 f i MazeDemoMain.obj
 0001:000334b0       ?end@?$vector@PAVDisplayableObject@@V?$allocator@PAVDisplayableObject@@@std@@@std@@QBE?AV?$_Vector_const_iterator@V?$_Vector_val@U?$_Simple_types@PAVDisplayableObject@@@std@@@std@@@2@XZ 004344b0 f i MazeDemoMain.obj
 0001:00033500       ?setAllObjectsVisible@DisplayableObjectContainer@@QBEX_N@Z 00434500 f i MazeDemoMain.obj
 0001:00033600       ??0MazeDemoObject@@QAE@PAVMazeDemoMain@@HH@Z 00434600 f   MazeDemoObject.obj
 0001:000336e0       ??1MazeDemoObject@@UAE@XZ  004346e0 f   MazeDemoObject.obj
 0001:00033700       ?virtDraw@MazeDemoObject@@UAEXXZ 00434700 f   MazeDemoObject.obj
 0001:000337b0       ?virtDoUpdate@MazeDemoObject@@UAEXH@Z 004347b0 f   MazeDemoObject.obj
 0001:00033e50       ??_EMazeDemoObject@@UAEPAXI@Z 00434e50 f i MazeDemoObject.obj
 0001:00033e50       ??_GMazeDemoObject@@UAEPAXI@Z 00434e50 f i MazeDemoObject.obj
 0001:00033e90       ?GetTileManager@MazeDemoMain@@QAEAAVMazeDemoTileManager@@XZ 00434e90 f i MazeDemoObject.obj
 0001:00033eb0       ?checkCircles@CollisionDetection@@SA_NHHHHH@Z 00434eb0 f i MazeDemoObject.obj
 0001:00033f10       ?drawForegroundOval@BaseEngine@@QAEXHHHHI@Z 00434f10 f i MazeDemoObject.obj
 0001:00033f50       ?getXDiffForDirection@MazeDemoObject@@QAEHH@Z 00434f50 f i MazeDemoObject.obj
 0001:00033fc0       ?getYDiffForDirection@MazeDemoObject@@QAEHH@Z 00434fc0 f i MazeDemoObject.obj
 0001:00034030       ?virtDrawTileAt@MazeDemoTileManager@@UBEXPAVBaseEngine@@PAVDrawingSurface@@HHHH@Z 00435030 f   MazeDemoTileManager.obj
 0001:00034215       _SDL_CreateRGBSurface      00435215 f   SDL2:SDL2.dll
 0001:0003421b       _SDL_FreeSurface           0043521b f   SDL2:SDL2.dll
 0001:00034221       _SDL_UpperBlit             00435221 f   SDL2:SDL2.dll
 0001:00034227       _SDL_LockSurface           00435227 f   SDL2:SDL2.dll
 0001:0003422d       _SDL_UnlockSurface         0043522d f   SDL2:SDL2.dll
 0001:00034233       _SDL_FillRect              00435233 f   SDL2:SDL2.dll
 0001:00034239       _SDL_GetError              00435239 f   SDL2:SDL2.dll
 0001:0003423f       _SDL_CreateWindow          0043523f f   SDL2:SDL2.dll
 0001:00034245       _SDL_PollEvent             00435245 f   SDL2:SDL2.dll
 0001:0003424b       _SDL_WaitEvent             0043524b f   SDL2:SDL2.dll
 0001:00034251       _SDL_CreateRenderer        00435251 f   SDL2:SDL2.dll
 0001:00034257       _SDL_CreateTexture         00435257 f   SDL2:SDL2.dll
 0001:0003425d       _SDL_UpdateTexture         0043525d f   SDL2:SDL2.dll
 0001:00034263       _SDL_RenderCopy            00435263 f   SDL2:SDL2.dll
 0001:00034269       _SDL_RenderPresent         00435269 f   SDL2:SDL2.dll
 0001:0003426f       _SDL_GetTicks              0043526f f   SDL2:SDL2.dll
 0001:00034275       _SDL_Init                  00435275 f   SDL2:SDL2.dll
 0001:0003427b       _SDL_Quit                  0043527b f   SDL2:SDL2.dll
 0001:00034281       _SDL_SetClipRect           00435281 f   SDL2:SDL2.dll
 0001:00034287       _SDL_UpperBlitScaled       00435287 f   SDL2:SDL2.dll
 0001:0003428d       _IMG_Load                  0043528d f   SDL2_image:SDL2_image.dll
 0001:00034293       _TTF_RenderText_Solid      00435293 f   SDL2_ttf:SDL2_ttf.dll
 0001:00034299       _TTF_Init                  00435299 f   SDL2_ttf:SDL2_ttf.dll
 0001:0003429f       _TTF_Quit                  0043529f f   SDL2_ttf:SDL2_ttf.dll
 0001:000342a5       _TTF_OpenFont              004352a5 f   SDL2_ttf:SDL2_ttf.dll
 0001:000342ab       _TTF_CloseFont             004352ab f   SDL2_ttf:SDL2_ttf.dll
 0001:000342b1       ??0_Lockit@std@@QAE@H@Z    004352b1 f   msvcprtd:MSVCP140D.dll
 0001:000342b7       ??1_Lockit@std@@QAE@XZ     004352b7 f   msvcprtd:MSVCP140D.dll
 0001:000342bd       ?_Xlength_error@std@@YAXPBD@Z 004352bd f   msvcprtd:MSVCP140D.dll
 0001:000342c3       ?uncaught_exception@std@@YA_NXZ 004352c3 f   msvcprtd:MSVCP140D.dll
 0001:000342c9       ?good@ios_base@std@@QBE_NXZ 004352c9 f   msvcprtd:MSVCP140D.dll
 0001:000342cf       ?flags@ios_base@std@@QBEHXZ 004352cf f   msvcprtd:MSVCP140D.dll
 0001:000342d5       ?width@ios_base@std@@QBE_JXZ 004352d5 f   msvcprtd:MSVCP140D.dll
 0001:000342db       ?width@ios_base@std@@QAE_J_J@Z 004352db f   msvcprtd:MSVCP140D.dll
 0001:000342e1       ?sputc@?$basic_streambuf@DU?$char_traits@D@std@@@std@@QAEHD@Z 004352e1 f   msvcprtd:MSVCP140D.dll
 0001:000342e7       ?sputn@?$basic_streambuf@DU?$char_traits@D@std@@@std@@QAE_JPBD_J@Z 004352e7 f   msvcprtd:MSVCP140D.dll
 0001:000342ed       ?setstate@?$basic_ios@DU?$char_traits@D@std@@@std@@QAEXH_N@Z 004352ed f   msvcprtd:MSVCP140D.dll
 0001:000342f3       ?tie@?$basic_ios@DU?$char_traits@D@std@@@std@@QBEPAV?$basic_ostream@DU?$char_traits@D@std@@@2@XZ 004352f3 f   msvcprtd:MSVCP140D.dll
 0001:000342f9       ?rdbuf@?$basic_ios@DU?$char_traits@D@std@@@std@@QBEPAV?$basic_streambuf@DU?$char_traits@D@std@@@2@XZ 004352f9 f   msvcprtd:MSVCP140D.dll
 0001:000342ff       ?fill@?$basic_ios@DU?$char_traits@D@std@@@std@@QBEDXZ 004352ff f   msvcprtd:MSVCP140D.dll
 0001:00034305       ?widen@?$basic_ios@DU?$char_traits@D@std@@@std@@QBEDD@Z 00435305 f   msvcprtd:MSVCP140D.dll
 0001:0003430b       ?_Osfx@?$basic_ostream@DU?$char_traits@D@std@@@std@@QAEXXZ 0043530b f   msvcprtd:MSVCP140D.dll
 0001:00034311       ??6?$basic_ostream@DU?$char_traits@D@std@@@std@@QAEAAV01@P6AAAV01@AAV01@@Z@Z 00435311 f   msvcprtd:MSVCP140D.dll
 0001:00034317       ?put@?$basic_ostream@DU?$char_traits@D@std@@@std@@QAEAAV12@D@Z 00435317 f   msvcprtd:MSVCP140D.dll
 0001:0003431d       ?flush@?$basic_ostream@DU?$char_traits@D@std@@@std@@QAEAAV12@XZ 0043531d f   msvcprtd:MSVCP140D.dll
 0001:0003ebf0       ___std_count_trivial_1@12  0043fbf0 f   msvcprtd:vector_algorithms.obj
 0001:0003ec10       ___std_count_trivial_2@12  0043fc10 f   msvcprtd:vector_algorithms.obj
 0001:0003ec30       ___std_count_trivial_4@12  0043fc30 f   msvcprtd:vector_algorithms.obj
 0001:0003ec50       ___std_count_trivial_8@16  0043fc50 f   msvcprtd:vector_algorithms.obj
 0001:0003ec80       ___std_find_last_trivial_1@12 0043fc80 f   msvcprtd:vector_algorithms.obj
 0001:0003eca0       ___std_find_last_trivial_2@12 0043fca0 f   msvcprtd:vector_algorithms.obj
 0001:0003ecc0       ___std_find_last_trivial_4@12 0043fcc0 f   msvcprtd:vector_algorithms.obj
 0001:0003ece0       ___std_find_last_trivial_8@16 0043fce0 f   msvcprtd:vector_algorithms.obj
 0001:0003ed10       ___std_find_trivial_1@12   0043fd10 f   msvcprtd:vector_algorithms.obj
 0001:0003ed30       ___std_find_trivial_2@12   0043fd30 f   msvcprtd:vector_algorithms.obj
 0001:0003ed50       ___std_find_trivial_4@12   0043fd50 f   msvcprtd:vector_algorithms.obj
 0001:0003ed70       ___std_find_trivial_8@16   0043fd70 f   msvcprtd:vector_algorithms.obj
 0001:0003eda0       ___std_find_trivial_unsized_1@8 0043fda0 f   msvcprtd:vector_algorithms.obj
 0001:0003edc0       ___std_find_trivial_unsized_2@8 0043fdc0 f   msvcprtd:vector_algorithms.obj
 0001:0003ede0       ___std_find_trivial_unsized_4@8 0043fde0 f   msvcprtd:vector_algorithms.obj
 0001:0003ee00       ___std_find_trivial_unsized_8@12 0043fe00 f   msvcprtd:vector_algorithms.obj
 0001:0003ee20       ___std_max_element_1@12    0043fe20 f   msvcprtd:vector_algorithms.obj
 0001:0003ee40       ___std_max_element_2@12    0043fe40 f   msvcprtd:vector_algorithms.obj
 0001:0003ee60       ___std_max_element_4@12    0043fe60 f   msvcprtd:vector_algorithms.obj
 0001:0003ee80       ___std_max_element_8@12    0043fe80 f   msvcprtd:vector_algorithms.obj
 0001:0003eea0       ___std_min_element_1@12    0043fea0 f   msvcprtd:vector_algorithms.obj
 0001:0003eec0       ___std_min_element_2@12    0043fec0 f   msvcprtd:vector_algorithms.obj
 0001:0003eee0       ___std_min_element_4@12    0043fee0 f   msvcprtd:vector_algorithms.obj
 0001:0003ef00       ___std_min_element_8@12    0043ff00 f   msvcprtd:vector_algorithms.obj
 0001:0003ef20       ___std_minmax_element_1@12 0043ff20 f   msvcprtd:vector_algorithms.obj
 0001:0003ef60       ___std_minmax_element_2@12 0043ff60 f   msvcprtd:vector_algorithms.obj
 0001:0003efa0       ___std_minmax_element_4@12 0043ffa0 f   msvcprtd:vector_algorithms.obj
 0001:0003efe0       ___std_minmax_element_8@12 0043ffe0 f   msvcprtd:vector_algorithms.obj
 0001:0003f020       ___std_reverse_copy_trivially_copyable_1 00440020 f   msvcprtd:vector_algorithms.obj
 0001:0003f2b0       ___std_reverse_copy_trivially_copyable_2 004402b0 f   msvcprtd:vector_algorithms.obj
 0001:0003f540       ___std_reverse_copy_trivially_copyable_4 00440540 f   msvcprtd:vector_algorithms.obj
 0001:0003f770       ___std_reverse_copy_trivially_copyable_8 00440770 f   msvcprtd:vector_algorithms.obj
 0001:0003f970       ___std_reverse_trivially_swappable_1 00440970 f   msvcprtd:vector_algorithms.obj
 0001:0003fcf0       ___std_reverse_trivially_swappable_2 00440cf0 f   msvcprtd:vector_algorithms.obj
 0001:00040070       ___std_reverse_trivially_swappable_4 00441070 f   msvcprtd:vector_algorithms.obj
 0001:00040360       ___std_reverse_trivially_swappable_8 00441360 f   msvcprtd:vector_algorithms.obj
 0001:00040620       ___std_swap_ranges_trivially_swappable 00441620 f   msvcprtd:vector_algorithms.obj
 0001:00040650       ___std_swap_ranges_trivially_swappable_noalias 00441650 f   msvcprtd:vector_algorithms.obj
 0001:0004096d       ?_Xinvalid_argument@std@@YAXPBD@Z 0044196d f   msvcprtd:MSVCP140D.dll
 0001:00040973       ?_Xout_of_range@std@@YAXPBD@Z 00441973 f   msvcprtd:MSVCP140D.dll
 0001:00040980       ??0_Fac_node@std@@QAE@PAU01@PAV_Facet_base@1@@Z 00441980 f i msvcprtd:locale0_implib.obj
 0001:000409b0       ??1_Fac_node@std@@QAE@XZ   004419b0 f i msvcprtd:locale0_implib.obj
 0001:00040a30       ??1_Fac_tidy_reg_t@std@@QAE@XZ 00441a30 f i msvcprtd:locale0_implib.obj
 0001:00040a90       ??2_Fac_node@std@@SAPAXI@Z 00441a90 f i msvcprtd:locale0_implib.obj
 0001:00040af0       ??3_Fac_node@std@@SAXPAX@Z 00441af0 f i msvcprtd:locale0_implib.obj
 0001:00040b10       ??_G_Fac_node@std@@QAEPAXI@Z 00441b10 f i msvcprtd:locale0_implib.obj
 0001:00040b70       ?_Facet_Register@std@@YAXPAV_Facet_base@1@@Z 00441b70 f   msvcprtd:locale0_implib.obj
 0001:00040c20       ?__empty_global_delete@@YAXPAXIW4align_val_t@std@@@Z 00441c20 f i msvcprtd:locale0_implib.obj
 0001:00040c30       ?__empty_global_delete@@YAXPAXW4align_val_t@std@@@Z 00441c30 f i msvcprtd:locale0_implib.obj
 0001:00040c35       ??Bid@locale@std@@QAEIXZ   00441c35 f   msvcprtd:MSVCP140D.dll
 0001:00040c3b       ?_Getgloballocale@locale@std@@CAPAV_Locimp@12@XZ 00441c3b f   msvcprtd:MSVCP140D.dll
 0001:00040c41       ?always_noconv@codecvt_base@std@@QBE_NXZ 00441c41 f   msvcprtd:MSVCP140D.dll
 0001:00040c47       ?in@?$codecvt@DDU_Mbstatet@@@std@@QBEHAAU_Mbstatet@@PBD1AAPBDPAD3AAPAD@Z 00441c47 f   msvcprtd:MSVCP140D.dll
 0001:00040c4d       ?out@?$codecvt@DDU_Mbstatet@@@std@@QBEHAAU_Mbstatet@@PBD1AAPBDPAD3AAPAD@Z 00441c4d f   msvcprtd:MSVCP140D.dll
 0001:00040c53       ?unshift@?$codecvt@DDU_Mbstatet@@@std@@QBEHAAU_Mbstatet@@PAD1AAPAD@Z 00441c53 f   msvcprtd:MSVCP140D.dll
 0001:00040c59       ?_Getcat@?$codecvt@DDU_Mbstatet@@@std@@SAIPAPBVfacet@locale@2@PBV42@@Z 00441c59 f   msvcprtd:MSVCP140D.dll
 0001:00040c5f       ??0?$basic_streambuf@DU?$char_traits@D@std@@@std@@IAE@XZ 00441c5f f   msvcprtd:MSVCP140D.dll
 0001:00040c65       ??1?$basic_streambuf@DU?$char_traits@D@std@@@std@@UAE@XZ 00441c65 f   msvcprtd:MSVCP140D.dll
 0001:00040c6b       ?getloc@?$basic_streambuf@DU?$char_traits@D@std@@@std@@QBE?AVlocale@2@XZ 00441c6b f   msvcprtd:MSVCP140D.dll
 0001:00040c71       ?sbumpc@?$basic_streambuf@DU?$char_traits@D@std@@@std@@QAEHXZ 00441c71 f   msvcprtd:MSVCP140D.dll
 0001:00040c77       ?sgetc@?$basic_streambuf@DU?$char_traits@D@std@@@std@@QAEHXZ 00441c77 f   msvcprtd:MSVCP140D.dll
 0001:00040c7d       ?snextc@?$basic_streambuf@DU?$char_traits@D@std@@@std@@QAEHXZ 00441c7d f   msvcprtd:MSVCP140D.dll
 0001:00040c83       ?eback@?$basic_streambuf@DU?$char_traits@D@std@@@std@@IBEPADXZ 00441c83 f   msvcprtd:MSVCP140D.dll
 0001:00040c89       ?gptr@?$basic_streambuf@DU?$char_traits@D@std@@@std@@IBEPADXZ 00441c89 f   msvcprtd:MSVCP140D.dll
 0001:00040c8f       ?pptr@?$basic_streambuf@DU?$char_traits@D@std@@@std@@IBEPADXZ 00441c8f f   msvcprtd:MSVCP140D.dll
 0001:00040c95       ?egptr@?$basic_streambuf@DU?$char_traits@D@std@@@std@@IBEPADXZ 00441c95 f   msvcprtd:MSVCP140D.dll
 0001:00040c9b       ?gbump@?$basic_streambuf@DU?$char_traits@D@std@@@std@@IAEXH@Z 00441c9b f   msvcprtd:MSVCP140D.dll
 0001:00040ca1       ?setg@?$basic_streambuf@DU?$char_traits@D@std@@@std@@IAEXPAD00@Z 00441ca1 f   msvcprtd:MSVCP140D.dll
 0001:00040ca7       ?epptr@?$basic_streambuf@DU?$char_traits@D@std@@@std@@IBEPADXZ 00441ca7 f   msvcprtd:MSVCP140D.dll
 0001:00040cad       ?_Gndec@?$basic_streambuf@DU?$char_traits@D@std@@@std@@IAEPADXZ 00441cad f   msvcprtd:MSVCP140D.dll
 0001:00040cb3       ?_Gninc@?$basic_streambuf@DU?$char_traits@D@std@@@std@@IAEPADXZ 00441cb3 f   msvcprtd:MSVCP140D.dll
 0001:00040cb9       ?_Gnavail@?$basic_streambuf@DU?$char_traits@D@std@@@std@@IBE_JXZ 00441cb9 f   msvcprtd:MSVCP140D.dll
 0001:00040cbf       ?pbump@?$basic_streambuf@DU?$char_traits@D@std@@@std@@IAEXH@Z 00441cbf f   msvcprtd:MSVCP140D.dll
 0001:00040cc5       ?_Pninc@?$basic_streambuf@DU?$char_traits@D@std@@@std@@IAEPADXZ 00441cc5 f   msvcprtd:MSVCP140D.dll
 0001:00040ccb       ?_Pnavail@?$basic_streambuf@DU?$char_traits@D@std@@@std@@IBE_JXZ 00441ccb f   msvcprtd:MSVCP140D.dll
 0001:00040cd1       ?_Init@?$basic_streambuf@DU?$char_traits@D@std@@@std@@IAEXXZ 00441cd1 f   msvcprtd:MSVCP140D.dll
 0001:00040cd7       ?_Init@?$basic_streambuf@DU?$char_traits@D@std@@@std@@IAEXPAPAD0PAH001@Z 00441cd7 f   msvcprtd:MSVCP140D.dll
 0001:00040cdd       ?xsgetn@?$basic_streambuf@DU?$char_traits@D@std@@@std@@MAE_JPAD_J@Z 00441cdd f   msvcprtd:MSVCP140D.dll
 0001:00040ce3       ?xsputn@?$basic_streambuf@DU?$char_traits@D@std@@@std@@MAE_JPBD_J@Z 00441ce3 f   msvcprtd:MSVCP140D.dll
 0001:00040ce9       ??1?$basic_ios@DU?$char_traits@D@std@@@std@@UAE@XZ 00441ce9 f   msvcprtd:MSVCP140D.dll
 0001:00040cef       ?clear@?$basic_ios@DU?$char_traits@D@std@@@std@@QAEXH_N@Z 00441cef f   msvcprtd:MSVCP140D.dll
 0001:00040cf5       ??0?$basic_ios@DU?$char_traits@D@std@@@std@@IAE@XZ 00441cf5 f   msvcprtd:MSVCP140D.dll
 0001:00040cfb       ??0?$basic_ostream@DU?$char_traits@D@std@@@std@@QAE@PAV?$basic_streambuf@DU?$char_traits@D@std@@@1@_N@Z 00441cfb f   msvcprtd:MSVCP140D.dll
 0001:00040d01       ??1?$basic_ostream@DU?$char_traits@D@std@@@std@@UAE@XZ 00441d01 f   msvcprtd:MSVCP140D.dll
 0001:00040d07       ??6?$basic_ostream@DU?$char_traits@D@std@@@std@@QAEAAV01@H@Z 00441d07 f   msvcprtd:MSVCP140D.dll
 0001:00040d0d       ??0?$basic_istream@DU?$char_traits@D@std@@@std@@QAE@PAV?$basic_streambuf@DU?$char_traits@D@std@@@1@_N@Z 00441d0d f   msvcprtd:MSVCP140D.dll
 0001:00040d13       ??1?$basic_istream@DU?$char_traits@D@std@@@std@@UAE@XZ 00441d13 f   msvcprtd:MSVCP140D.dll
 0001:00040d19       ?_Ipfx@?$basic_istream@DU?$char_traits@D@std@@@std@@QAE_N_N@Z 00441d19 f   msvcprtd:MSVCP140D.dll
 0001:00040d1f       ??5?$basic_istream@DU?$char_traits@D@std@@@std@@QAEAAV01@AAH@Z 00441d1f f   msvcprtd:MSVCP140D.dll
 0001:00040d25       ?_Fiopen@std@@YAPAU_iobuf@@PBDHH@Z 00441d25 f   msvcprtd:MSVCP140D.dll
 0001:00040d2b       ?showmanyc@?$basic_streambuf@DU?$char_traits@D@std@@@std@@MAE_JXZ 00441d2b f   msvcprtd:MSVCP140D.dll
 0001:00040d31       ?_Xbad_alloc@std@@YAXXZ    00441d31 f   msvcprtd:MSVCP140D.dll
 0001:00041110       ?configure_argv@__scrt_narrow_argv_policy@@SAHXZ 00442110 f i MSVCRTD:exe_main.obj
 0001:00041130       ?initialize_environment@__scrt_narrow_environment_policy@@SAHXZ 00442130 f i MSVCRTD:exe_main.obj
 0001:00041190       ?set_app_type@__scrt_main_policy@@SAXXZ 00442190 f i MSVCRTD:exe_main.obj
 0001:000411b0       ?set_commode@__scrt_file_policy@@SAXXZ 004421b0 f i MSVCRTD:exe_main.obj
 0001:000411d0       ?set_fmode@__scrt_file_policy@@SAXXZ 004421d0 f i MSVCRTD:exe_main.obj
 0001:000411f0       _mainCRTStartup            004421f0 f   MSVCRTD:exe_main.obj
 0001:00041200       ??2@YAPAXI@Z               00442200 f   MSVCRTD:new_scalar.obj
 0001:00041260       ??3@YAXPAXI@Z              00442260 f   MSVCRTD:delete_scalar_size.obj
 0001:00041280       ??_V@YAXPAX@Z              00442280 f   MSVCRTD:delete_array.obj
 0001:000412a0       @__security_check_cookie@4 004422a0 f   MSVCRTD:secchk.obj
 0001:000412c0       ??1type_info@@UAE@XZ       004422c0 f   MSVCRTD:std_type_info_static.obj
 0001:000412e0       ??_Etype_info@@UAEPAXI@Z   004422e0 f i MSVCRTD:std_type_info_static.obj
 0001:000412e0       ??_Gtype_info@@UAEPAXI@Z   004422e0 f i MSVCRTD:std_type_info_static.obj
 0001:00041320       ??_U@YAPAXI@Z              00442320 f   MSVCRTD:new_array.obj
 0001:00041340       ??_L@YGXPAXIHP6EX0@Z1@Z    00442340 f   MSVCRTD:ehvecctr.obj
 0001:00041370       ??_L@YGXPAXIIP6EX0@Z1@Z    00442370 f   MSVCRTD:ehvecctr.obj
 0001:00041460       ??_M@YGXPAXIHP6EX0@Z@Z     00442460 f   MSVCRTD:ehvecdtr.obj
 0001:00041490       ??_M@YGXPAXIIP6EX0@Z@Z     00442490 f   MSVCRTD:ehvecdtr.obj
 0001:000415f0       ?__ArrayUnwind@@YGXPAXIIP6EX0@Z@Z 004425f0 f   MSVCRTD:ehvecdtr.obj
 0001:000416d0       ??_V@YAXPAXI@Z             004426d0 f   MSVCRTD:delete_array_size.obj
 0001:00041830       _NtCurrentTeb              00442830 f i MSVCRTD:utility.obj
 0001:00041840       ___scrt_acquire_startup_lock 00442840 f   MSVCRTD:utility.obj
 0001:000418a0       ___scrt_dllmain_after_initialize_c 004428a0 f   MSVCRTD:utility.obj
 0001:000418e0       ___scrt_dllmain_before_initialize_c 004428e0 f   MSVCRTD:utility.obj
 0001:00041910       ___scrt_dllmain_crt_thread_attach 00442910 f   MSVCRTD:utility.obj
 0001:00041950       ___scrt_dllmain_crt_thread_detach 00442950 f   MSVCRTD:utility.obj
 0001:00041970       ___scrt_dllmain_exception_filter 00442970 f   MSVCRTD:utility.obj
 0001:000419d0       ___scrt_dllmain_uninitialize_c 004429d0 f   MSVCRTD:utility.obj
 0001:00041a10       ___scrt_dllmain_uninitialize_critical 00442a10 f   MSVCRTD:utility.obj
 0001:00041a30       ___scrt_initialize_crt     00442a30 f   MSVCRTD:utility.obj
 0001:00041a90       ___scrt_initialize_onexit_tables 00442a90 f   MSVCRTD:utility.obj
 0001:00041ba0       ___scrt_is_nonwritable_in_current_image 00442ba0 f   MSVCRTD:utility.obj
 0001:00041d20       ___scrt_release_startup_lock 00442d20 f   MSVCRTD:utility.obj
 0001:00041d50       ___scrt_uninitialize_crt   00442d50 f   MSVCRTD:utility.obj
 0001:00041da0       __onexit                   00442da0 f   MSVCRTD:utility.obj
 0001:00041e20       _at_quick_exit             00442e20 f   MSVCRTD:utility.obj
 0001:00041e70       _atexit                    00442e70 f   MSVCRTD:utility.obj
 0001:00041eb0       __allshl                   00442eb0 f   MSVCRTD:llshl.obj
 0001:00041ee0       ___isa_available_init      00442ee0 f   MSVCRTD:cpu_disp.obj
 0001:000422e0       @_guard_check_icall_nop@4  004432e0 f i MSVCRTD:guard_support.obj
 0001:000422f0       _ReadNoFence               004432f0 f i MSVCRTD:guard_support.obj
 0001:00042310       _ReadPointerNoFence        00443310 f i MSVCRTD:guard_support.obj
 0001:00042330       __InlineInterlockedExchangePointer 00443330 f i MSVCRTD:guard_support.obj
 0001:00042340       ___castguard_check_failure_debugbreak 00443340 f i MSVCRTD:guard_support.obj
 0001:00042360       ___castguard_check_failure_fastfail 00443360 f i MSVCRTD:guard_support.obj
 0001:00042390       ___castguard_check_failure_nop 00443390 f i MSVCRTD:guard_support.obj
 0001:000423a0       ___castguard_check_failure_os_handled 004433a0 f i MSVCRTD:guard_support.obj
 0001:00042410       ___castguard_check_failure_user_handled 00443410 f i MSVCRTD:guard_support.obj
 0001:000424e0       ___castguard_set_user_handler 004434e0 f i MSVCRTD:guard_support.obj
 0001:00042510       ___castguard_slow_path_check_debugbreak 00443510 f i MSVCRTD:guard_support.obj
 0001:00042550       ___castguard_slow_path_check_fastfail 00443550 f i MSVCRTD:guard_support.obj
 0001:000425a0       ___castguard_slow_path_check_nop 004435a0 f i MSVCRTD:guard_support.obj
 0001:000425b0       ___castguard_slow_path_check_os_handled 004435b0 f i MSVCRTD:guard_support.obj
 0001:00042600       ___castguard_slow_path_check_user_handled 00443600 f i MSVCRTD:guard_support.obj
 0001:000426a0       __guard_icall_checks_enforced 004436a0 f i MSVCRTD:guard_support.obj
 0001:00042770       ___security_init_cookie    00443770 f   MSVCRTD:gs_support.obj
 0001:00042810       __matherr                  00443810 f   MSVCRTD:matherr.obj
 0001:00042820       __get_startup_argv_mode    00443820 f   MSVCRTD:argv_mode.obj
 0001:00042830       __get_startup_commit_mode  00443830 f   MSVCRTD:commit_mode.obj
 0001:00042840       __get_startup_file_mode    00443840 f   MSVCRTD:file_mode.obj
 0001:00042850       __get_startup_new_mode     00443850 f   MSVCRTD:new_mode.obj
 0001:00042860       __get_startup_thread_locale_mode 00443860 f   MSVCRTD:thread_locale.obj
 0001:00042870       ?__scrt_initialize_type_info@@YAXXZ 00443870 f   MSVCRTD:tncleanup.obj
 0001:00042890       ?__scrt_uninitialize_type_info@@YAXXZ 00443890 f   MSVCRTD:tncleanup.obj
 0001:000428b0       __should_initialize_environment 004438b0 f   MSVCRTD:env_mode.obj
 0001:000428c0       __initialize_default_precision 004438c0 f   MSVCRTD:default_precision.obj
 0001:000428f0       __initialize_invalid_parameter_handler 004438f0 f   MSVCRTD:invalid_parameter_handler.obj
 0001:00042900       __initialize_denormal_control 00443900 f   MSVCRTD:denormal_control.obj
 0001:00042910       ___local_stdio_scanf_options 00443910 f i MSVCRTD:default_local_stdio_options.obj
 0001:00042920       ___scrt_initialize_default_local_stdio_options 00443920 f   MSVCRTD:default_local_stdio_options.obj
 0001:00042970       ___scrt_is_user_matherr_present 00443970 f   MSVCRTD:matherr_detection.obj
 0001:000429a0       ___scrt_get_dyn_tls_init_callback 004439a0 f   MSVCRTD:dyn_tls_init.obj
 0001:000429b0       ___scrt_get_dyn_tls_dtor_callback 004439b0 f   MSVCRTD:dyn_tls_dtor.obj
 0001:000429c0       ___scrt_fastfail           004439c0 f   MSVCRTD:utility_desktop.obj
 0001:00042b50       ___scrt_get_show_window_mode 00443b50 f   MSVCRTD:utility_desktop.obj
 0001:00042ba0       ___scrt_initialize_mta     00443ba0 f   MSVCRTD:utility_desktop.obj
 0001:00042bb0       ___scrt_initialize_winrt   00443bb0 f   MSVCRTD:utility_desktop.obj
 0001:00042bc0       ___scrt_is_managed_app     00443bc0 f   MSVCRTD:utility_desktop.obj
 0001:00042c70       ___scrt_set_unhandled_exception_filter 00443c70 f   MSVCRTD:utility_desktop.obj
 0001:00042c90       ___scrt_exe_initialize_mta 00443c90 f   MSVCRTD:utility_desktop.obj
 0001:00042c90       ___scrt_stub_for_initialize_mta 00443c90 f   MSVCRTD:utility_desktop.obj
 0001:00042ca0       ___scrt_unhandled_exception_filter@4 00443ca0 f   MSVCRTD:utility_desktop.obj
 0001:00042d40       __crt_debugger_hook        00443d40 f   MSVCRTD:utility_desktop.obj
 0001:00042d60       __RTC_Initialize           00443d60 f   MSVCRTD:initsect.obj
 0001:00042da0       __RTC_Terminate            00443da0 f   MSVCRTD:initsect.obj
 0001:00042de0       __except_handler4          00443de0 f   MSVCRTD:chandler4gs.obj
 0001:00042e30       ??0bad_alloc@std@@QAE@XZ   00443e30 f i MSVCRTD:throw_bad_alloc.obj
 0001:00042e60       ?__scrt_throw_std_bad_alloc@@YAXXZ 00443e60 f   MSVCRTD:throw_bad_alloc.obj
 0001:00042e90       ?__scrt_throw_std_bad_array_new_length@@YAXXZ 00443e90 f   MSVCRTD:throw_bad_alloc.obj
 0001:00042ec0       ??3@YAXPAX@Z               00443ec0 f   MSVCRTD:delete_scalar.obj
 0001:00042ee0       ___raise_securityfailure   00443ee0 f   MSVCRTD:gs_report.obj
 0001:00042f20       ___report_gsfailure        00443f20 f   MSVCRTD:gs_report.obj
 0001:00043070       ___report_rangecheckfailure 00444070 f   MSVCRTD:gs_report.obj
 0001:00043080       ___report_securityfailure  00444080 f   MSVCRTD:gs_report.obj
 0001:00043190       ___report_securityfailureEx 00444190 f   MSVCRTD:gs_report.obj
 0001:00043300       ___scrt_is_ucrt_dll_in_use 00444300 f   MSVCRTD:ucrt_detection.obj
 0001:0004332d       _memcmp                    0044432d f   vcruntimed:VCRUNTIME140D.dll
 0001:00043333       _memcpy                    00444333 f   vcruntimed:VCRUNTIME140D.dll
 0001:00043339       ___std_exception_copy      00444339 f   vcruntimed:VCRUNTIME140D.dll
 0001:0004333f       ___std_exception_destroy   0044433f f   vcruntimed:VCRUNTIME140D.dll
 0001:00043345       __CxxThrowException@8      00444345 f   vcruntimed:VCRUNTIME140D.dll
 0001:0004334b       ___CxxFrameHandler3        0044434b f   vcruntimed:VCRUNTIME140D.dll
 0001:00043351       _memmove                   00444351 f   vcruntimed:VCRUNTIME140D.dll
 0001:00043357       _memset                    00444357 f   vcruntimed:VCRUNTIME140D.dll
 0001:0004335d       __purecall                 0044435d f   vcruntimed:VCRUNTIME140D.dll
 0001:00043363       ___current_exception       00444363 f   vcruntimed:VCRUNTIME140D.dll
 0001:00043369       ___current_exception_context 00444369 f   vcruntimed:VCRUNTIME140D.dll
 0001:0004336f       ___std_type_info_destroy_list 0044436f f   vcruntimed:VCRUNTIME140D.dll
 0001:00043375       __except_handler4_common   00444375 f   vcruntimed:VCRUNTIME140D.dll
 0001:0004337b       __invalid_parameter        0044437b f   ucrtd:ucrtbased.dll
 0001:00043381       __CrtDbgReport             00444381 f   ucrtd:ucrtbased.dll
 0001:00043387       ___acrt_iob_func           00444387 f   ucrtd:ucrtbased.dll
 0001:0004338d       ___stdio_common_vfprintf   0044438d f   ucrtd:ucrtbased.dll
 0001:00043393       _strlen                    00444393 f   ucrtd:ucrtbased.dll
 0001:00043399       _rand                      00444399 f   ucrtd:ucrtbased.dll
 0001:0004339f       _atan                      0044439f f   ucrtd:ucrtbased.dll
 0001:000433a5       _cos                       004443a5 f   ucrtd:ucrtbased.dll
 0001:000433ab       _sin                       004443ab f   ucrtd:ucrtbased.dll
 0001:000433b1       __errno                    004443b1 f   ucrtd:ucrtbased.dll
 0001:000433b7       _exit                      004443b7 f   ucrtd:ucrtbased.dll
 0001:000433bd       _strtol                    004443bd f   ucrtd:ucrtbased.dll
 0001:000433c3       __get_stream_buffer_pointers 004443c3 f   ucrtd:ucrtbased.dll
 0001:000433c9       _fclose                    004443c9 f   ucrtd:ucrtbased.dll
 0001:000433cf       _fflush                    004443cf f   ucrtd:ucrtbased.dll
 0001:000433d5       _fgetc                     004443d5 f   ucrtd:ucrtbased.dll
 0001:000433db       _fgetpos                   004443db f   ucrtd:ucrtbased.dll
 0001:000433e1       _fputc                     004443e1 f   ucrtd:ucrtbased.dll
 0001:000433e7       _fread                     004443e7 f   ucrtd:ucrtbased.dll
 0001:000433ed       _fsetpos                   004443ed f   ucrtd:ucrtbased.dll
 0001:000433f3       __fseeki64                 004443f3 f   ucrtd:ucrtbased.dll
 0001:000433f9       _fwrite                    004443f9 f   ucrtd:ucrtbased.dll
 0001:000433ff       _setvbuf                   004443ff f   ucrtd:ucrtbased.dll
 0001:00043405       _ungetc                    00444405 f   ucrtd:ucrtbased.dll
 0001:0004340b       __lock_file                0044440b f   ucrtd:ucrtbased.dll
 0001:00043411       __unlock_file              00444411 f   ucrtd:ucrtbased.dll
 0001:00043417       ___stdio_common_vsprintf   00444417 f   ucrtd:ucrtbased.dll
 0001:0004341d       _sqrt                      0044441d f   ucrtd:ucrtbased.dll
 0001:00043423       __CrtDumpMemoryLeaks       00444423 f   ucrtd:ucrtbased.dll
 0001:00043429       _srand                     00444429 f   ucrtd:ucrtbased.dll
 0001:0004342f       __time64                   0044442f f   ucrtd:ucrtbased.dll
 0001:00043435       _puts                      00444435 f   ucrtd:ucrtbased.dll
 0001:0004343b       _strcmp                    0044443b f   ucrtd:ucrtbased.dll
 0001:00043441       _strcpy                    00444441 f   ucrtd:ucrtbased.dll
 0001:00043447       _atan2                     00444447 f   ucrtd:ucrtbased.dll
 0001:0004344d       __free_dbg                 0044444d f   ucrtd:ucrtbased.dll
 0001:00043453       __malloc_dbg               00444453 f   ucrtd:ucrtbased.dll
 0001:00043459       __seh_filter_exe           00444459 f   ucrtd:ucrtbased.dll
 0001:0004345f       __set_app_type             0044445f f   ucrtd:ucrtbased.dll
 0001:00043465       ___setusermatherr          00444465 f   ucrtd:ucrtbased.dll
 0001:0004346b       __configure_narrow_argv    0044446b f   ucrtd:ucrtbased.dll
 0001:00043471       __initialize_narrow_environment 00444471 f   ucrtd:ucrtbased.dll
 0001:00043477       __get_initial_narrow_environment 00444477 f   ucrtd:ucrtbased.dll
 0001:0004347d       __initterm                 0044447d f   ucrtd:ucrtbased.dll
 0001:00043483       __initterm_e               00444483 f   ucrtd:ucrtbased.dll
 0001:00043489       __exit                     00444489 f   ucrtd:ucrtbased.dll
 0001:0004348f       __set_fmode                0044448f f   ucrtd:ucrtbased.dll
 0001:00043495       ___p___argc                00444495 f   ucrtd:ucrtbased.dll
 0001:0004349b       ___p___argv                0044449b f   ucrtd:ucrtbased.dll
 0001:000434a1       __cexit                    004444a1 f   ucrtd:ucrtbased.dll
 0001:000434a7       __c_exit                   004444a7 f   ucrtd:ucrtbased.dll
 0001:000434ad       __register_thread_local_exe_atexit_callback 004444ad f   ucrtd:ucrtbased.dll
 0001:000434b3       __configthreadlocale       004444b3 f   ucrtd:ucrtbased.dll
 0001:000434b9       __set_new_mode             004444b9 f   ucrtd:ucrtbased.dll
 0001:000434bf       ___p__commode              004444bf f   ucrtd:ucrtbased.dll
 0001:000434c5       __callnewh                 004444c5 f   ucrtd:ucrtbased.dll
 0001:000434cb       _malloc                    004444cb f   ucrtd:ucrtbased.dll
 0001:000434d1       _terminate                 004444d1 f   ucrtd:ucrtbased.dll
 0001:000434d7       __seh_filter_dll           004444d7 f   ucrtd:ucrtbased.dll
 0001:000434dd       __initialize_onexit_table  004444dd f   ucrtd:ucrtbased.dll
 0001:000434e3       __register_onexit_function 004444e3 f   ucrtd:ucrtbased.dll
 0001:000434e9       __execute_onexit_table     004444e9 f   ucrtd:ucrtbased.dll
 0001:000434ef       __crt_atexit               004444ef f   ucrtd:ucrtbased.dll
 0001:000434f5       __crt_at_quick_exit        004444f5 f   ucrtd:ucrtbased.dll
 0001:000434fb       __controlfp_s              004444fb f   ucrtd:ucrtbased.dll
 0001:00043650       _WinMain@16                00444650 f   SDL2main:SDL_windows_main.obj
 0001:00043660       _main                      00444660 f   SDL2main:SDL_windows_main.obj
 0001:000437b0       _wmain                     004447b0 f   SDL2main:SDL_windows_main.obj
 0001:000437b5       _IsProcessorFeaturePresent@4 004447b5 f   kernel32:KERNEL32.dll
 0001:000437bb       _QueryPerformanceCounter@4 004447bb f   kernel32:KERNEL32.dll
 0001:000437c1       _GetCurrentProcessId@0     004447c1 f   kernel32:KERNEL32.dll
 0001:000437c7       _GetCurrentThreadId@0      004447c7 f   kernel32:KERNEL32.dll
 0001:000437cd       _GetSystemTimeAsFileTime@4 004447cd f   kernel32:KERNEL32.dll
 0001:000437d3       _InitializeSListHead@4     004447d3 f   kernel32:KERNEL32.dll
 0001:000437d9       _IsDebuggerPresent@0       004447d9 f   kernel32:KERNEL32.dll
 0001:000437df       _UnhandledExceptionFilter@4 004447df f   kernel32:KERNEL32.dll
 0001:000437e5       _SetUnhandledExceptionFilter@4 004447e5 f   kernel32:KERNEL32.dll
 0001:000437eb       _GetStartupInfoW@4         004447eb f   kernel32:KERNEL32.dll
 0001:000437f1       _GetModuleHandleW@4        004447f1 f   kernel32:KERNEL32.dll
 0001:000437f7       _GetCurrentProcess@0       004447f7 f   kernel32:KERNEL32.dll
 0001:000437fd       _TerminateProcess@8        004447fd f   kernel32:KERNEL32.dll
 0001:00043803       _GetCommandLineW@0         00444803 f   kernel32:KERNEL32.dll
 0001:00043809       _VirtualAlloc@16           00444809 f   kernel32:KERNEL32.dll
 0001:0004380f       _VirtualFree@12            0044480f f   kernel32:KERNEL32.dll
 0001:00043815       _WideCharToMultiByte@32    00444815 f   kernel32:KERNEL32.dll
 0001:0004381b       _SDL_SetMainReady          0044481b f   SDL2:SDL2.dll
 0001:00043821       _SDL_ShowSimpleMessageBox  00444821 f   SDL2:SDL2.dll
 0001:00043830       ___acrt_initialize         00444830 f   MSVCRTD:ucrt_stubs.obj
 0001:00043830       ___scrt_stub_for_acrt_initialize 00444830 f   MSVCRTD:ucrt_stubs.obj
 0001:00043830       ___vcrt_initialize         00444830 f   MSVCRTD:ucrt_stubs.obj
 0001:00043840       ___acrt_thread_attach      00444840 f   MSVCRTD:ucrt_stubs.obj
 0001:00043840       ___scrt_stub_for_acrt_thread_attach 00444840 f   MSVCRTD:ucrt_stubs.obj
 0001:00043840       ___vcrt_thread_attach      00444840 f   MSVCRTD:ucrt_stubs.obj
 0001:00043850       ___acrt_thread_detach      00444850 f   MSVCRTD:ucrt_stubs.obj
 0001:00043850       ___scrt_stub_for_acrt_thread_detach 00444850 f   MSVCRTD:ucrt_stubs.obj
 0001:00043850       ___vcrt_thread_detach      00444850 f   MSVCRTD:ucrt_stubs.obj
 0001:00043860       ___acrt_uninitialize       00444860 f   MSVCRTD:ucrt_stubs.obj
 0001:00043860       ___scrt_stub_for_acrt_uninitialize 00444860 f   MSVCRTD:ucrt_stubs.obj
 0001:00043860       ___vcrt_uninitialize       00444860 f   MSVCRTD:ucrt_stubs.obj
 0001:00043870       ___acrt_uninitialize_critical 00444870 f   MSVCRTD:ucrt_stubs.obj
 0001:00043870       ___scrt_stub_for_acrt_uninitialize_critical 00444870 f   MSVCRTD:ucrt_stubs.obj
 0001:00043870       ___vcrt_uninitialize_critical 00444870 f   MSVCRTD:ucrt_stubs.obj
 0001:00043880       ___scrt_stub_for_is_c_termination_complete 00444880 f   MSVCRTD:ucrt_stubs.obj
 0001:00043880       __is_c_termination_complete 00444880 f   MSVCRTD:ucrt_stubs.obj
 0001:00043890       __filter_x86_sse2_floating_point_exception 00444890 f   MSVCRTD:x86_exception_filter.obj
 0001:00043890       __filter_x86_sse2_floating_point_exception_default 00444890 f   MSVCRTD:x86_exception_filter.obj
 0002:00000000       ___xc_a                    0044c000     MSVCRTD:initializers.obj
 0002:0000030c       ___xc_z                    0044c30c     MSVCRTD:initializers.obj
 0002:00000410       ___xi_a                    0044c410     MSVCRTD:initializers.obj
 0002:0000071c       ___xi_z                    0044c71c     MSVCRTD:initializers.obj
 0002:00000820       ___xp_a                    0044c820     MSVCRTD:initializers.obj
 0002:00000924       ___xp_z                    0044c924     MSVCRTD:initializers.obj
 0002:00000a28       ___xt_a                    0044ca28     MSVCRTD:initializers.obj
 0002:00000b2c       ___xt_z                    0044cb2c     MSVCRTD:initializers.obj
 0002:0000107c       ??_7exception@std@@6B@     0044d07c     Button.obj
 0002:00001088       ??_C@_0BC@EOODALEL@Unknown?5exception@ 0044d088     Button.obj
 0002:000010a4       ??_7bad_alloc@std@@6B@     0044d0a4     Button.obj
 0002:000010b4       ??_7bad_array_new_length@std@@6B@ 0044d0b4     Button.obj
 0002:000010c0       ??_C@_0BF@KINCDENJ@bad?5array?5new?5length@ 0044d0c0     Button.obj
 0002:000010dc       ??_C@_0BB@FCMFBGOM@invalid?5argument@ 0044d0dc     Button.obj
 0002:000010f0       ??_C@_02DKCKIIND@?$CFs@    0044d0f0     Button.obj
 0002:000010f8       ??_C@_0GC@IGIKFMFC@C?3?2Program?5Files?2Microsoft?5Visu@ 0044d0f8     Button.obj
 0002:00001170       ??_C@_1ME@LJPJJNIE@?$AAC?$AA?3?$AA?2?$AAP?$AAr?$AAo?$AAg?$AAr?$AAa?$AAm?$AA?5?$AAF?$AAi?$AAl?$AAe@ 0044d170     Button.obj
 0002:0000125c       ??_C@_11LOCGONAA@@         0044d25c     Button.obj
 0002:00001260       ??_C@_1CG@JNLFBNGN@?$AA?$CC?$AAi?$AAn?$AAv?$AAa?$AAl?$AAi?$AAd?$AA?5?$AAa?$AAr?$AAg?$AAu?$AAm?$AAe@ 0044d260     Button.obj
 0002:00001290       ??_C@_0BJ@LFDBABJJ@ITERATOR?5LIST?5CORRUPTED?$CB@ 0044d290     Button.obj
 0002:000012b0       ??_C@_1DG@PLBPCAEM@?$AA?$CC?$AAI?$AAT?$AAE?$AAR?$AAA?$AAT?$AAO?$AAR?$AA?5?$AAL?$AAI?$AAS?$AAT?$AA?5@ 0044d2b0     Button.obj
 0002:000012f0       ??_C@_0BA@JFNIOLAK@string?5too?5long@ 0044d2f0     Button.obj
 0002:00001304       ??_C@_0BB@GCADKGJO@map?1set?5too?5long@ 0044d304     Button.obj
 0002:00001318       ??_C@_0DC@BNOGMHFL@Error?5creating?5surface?5in?5RawIm@ 0044d318     Button.obj
 0002:00001354       ??_C@_0BD@IFIGDDIC@?7?7?$CL?$CL?$CL?5Load?5image?3?5@ 0044d354     Button.obj
 0002:0000136c       ??_C@_0DJ@OJEPJEDH@ImageManager?3?3getImagePtrbyURL?$CI@ 0044d36c     Button.obj
 0002:000013b0       ??_C@_0BJ@LOCNEGOL@Failed?5to?5load?5image?5?$CFs?6@ 0044d3b0     Button.obj
 0002:000013d4       ??_7Button@@6B@            0044d3d4     Button.obj
 0002:00001414       ??_C@_0BP@OLDKBHLM@map?1set?5iterators?5incompatible@ 0044d414     Button.obj
 0002:00001440       ??_C@_0GA@NHHCPEPC@C?3?2Program?5Files?2Microsoft?5Visu@ 0044d440     Button.obj
 0002:000014b8       ??_C@_1MA@KGCJMJPB@?$AAC?$AA?3?$AA?2?$AAP?$AAr?$AAo?$AAg?$AAr?$AAa?$AAm?$AA?5?$AAF?$AAi?$AAl?$AAe@ 0044d4b8     Button.obj
 0002:000015a0       ??_C@_1EC@JLIDLCDH@?$AA?$CC?$AAm?$AAa?$AAp?$AA?1?$AAs?$AAe?$AAt?$AA?5?$AAi?$AAt?$AAe?$AAr?$AAa?$AAt@ 0044d5a0     Button.obj
 0002:000015f0       ??_C@_0DG@KGHKKGBC@null?5pointer?5cannot?5point?5to?5a?5@ 0044d5f0     Button.obj
 0002:00001630       ??_C@_1HA@FACCKGGH@?$AA?$CC?$AAn?$AAu?$AAl?$AAl?$AA?5?$AAp?$AAo?$AAi?$AAn?$AAt?$AAe?$AAr?$AA?5?$AAc@ 0044d630     Button.obj
 0002:000016b8       ??_C@_0DG@LCFNIIPB@cannot?5dereference?5value?9initia@ 0044d6b8     Button.obj
 0002:000016f8       ??_C@_1HA@ILGCNILF@?$AA?$CC?$AAc?$AAa?$AAn?$AAn?$AAo?$AAt?$AA?5?$AAd?$AAe?$AAr?$AAe?$AAf?$AAe?$AAr@ 0044d6f8     Button.obj
 0002:00001780       ??_C@_0CI@OKFEHCEB@cannot?5dereference?5end?5map?1set?5@ 0044d780     Button.obj
 0002:000017b0       ??_C@_1FE@NKHAAGMB@?$AA?$CC?$AAc?$AAa?$AAn?$AAn?$AAo?$AAt?$AA?5?$AAd?$AAe?$AAr?$AAe?$AAf?$AAe?$AAr@ 0044d7b0     Button.obj
 0002:00001814       ??_C@_0DA@GGPHOHEL@map?1set?5erase?5iterator?5from?5inc@ 0044d814     Button.obj
 0002:00001850       ??_C@_1GE@FENJBJJO@?$AA?$CC?$AAm?$AAa?$AAp?$AA?1?$AAs?$AAe?$AAt?$AA?5?$AAe?$AAr?$AAa?$AAs?$AAe?$AA?5@ 0044d850     Button.obj
 0002:000018c8       ??_C@_0CE@JAJNKOFK@cannot?5erase?5map?1set?5end?$CI?$CJ?5iter@ 0044d8c8     Button.obj
 0002:000018f8       ??_C@_1EM@MEAEPHLP@?$AA?$CC?$AAc?$AAa?$AAn?$AAn?$AAo?$AAt?$AA?5?$AAe?$AAr?$AAa?$AAs?$AAe?$AA?5?$AAm@ 0044d8f8     Button.obj
 0002:00001958       ??_7?$_Ref_count@VRawImageData@@@std@@6B@ 0044d958     Button.obj
 0002:00001970       ??_C@_0GD@EGBILONE@C?3?2Program?5Files?2Microsoft?5Visu@ 0044d970     Button.obj
 0002:000019e8       ??_C@_1MG@NMJBCGEN@?$AAC?$AA?3?$AA?2?$AAP?$AAr?$AAo?$AAg?$AAr?$AAa?$AAm?$AA?5?$AAF?$AAi?$AAl?$AAe@ 0044d9e8     Button.obj
 0002:00001ad8       ??_C@_0BD@FEEMDEPI@invalid?5comparator@ 0044dad8     Button.obj
 0002:00001af0       ??_C@_1CK@NDNHPKPI@?$AA?$CC?$AAi?$AAn?$AAv?$AAa?$AAl?$AAi?$AAd?$AA?5?$AAc?$AAo?$AAm?$AAp?$AAa?$AAr@ 0044daf0     Button.obj
 0002:0000236c       ??_C@_0CN@GHCLOPHF@Error?5in?5setting?5pixel?9?5should?5@ 0044e36c     DraggingDemo.obj
 0002:000023a8       ??_C@_0JM@GIEKPEHN@WARNING?3?5Attempted?5write?5to?5sur@ 0044e3a8     DraggingDemo.obj
 0002:00002468       ??_7DragableBaseClassObject@@6B@ 0044e468     DraggingDemo.obj
 0002:000024c0       ??_7DragableObject@@6B@    0044e4c0     DraggingDemo.obj
 0002:00002518       ??_7DragableImageObject@@6B@ 0044e518     DraggingDemo.obj
 0002:00002570       ??_7ImageObject@@6B@       0044e570     DraggingDemo.obj
 0002:000025b0       ??_C@_0GB@GOGKFLMN@C?3?2Program?5Files?2Microsoft?5Visu@ 0044e5b0     DraggingDemo.obj
 0002:00002628       ??_C@_1MC@KLOJGIMA@?$AAC?$AA?3?$AA?2?$AAP?$AAr?$AAo?$AAg?$AAr?$AAa?$AAm?$AA?5?$AAF?$AAi?$AAl?$AAe@ 0044e628     DraggingDemo.obj
 0002:00002710       ??_C@_0BO@PFKOHNJC@vector?5subscript?5out?5of?5range@ 0044e710     DraggingDemo.obj
 0002:00002738       ??_C@_1EA@LEKOKFNB@?$AA?$CC?$AAv?$AAe?$AAc?$AAt?$AAo?$AAr?$AA?5?$AAs?$AAu?$AAb?$AAs?$AAc?$AAr?$AAi@ 0044e738     DraggingDemo.obj
 0002:00002784       ??_C@_0BA@FOIKENOD@vector?5too?5long@ 0044e784     DraggingDemo.obj
 0002:00002970       ?MY_PI@DrawingSurface@@2NB 0044e970     DrawingSurface.obj
 0002:00002bb8       ??_C@_0LN@HOLHFHJI@WARNING?3?5Attempted?5blit?5to?5lock@ 0044ebb8     DrawingSurface.obj
 0002:00002ca0       __real@3fe0000000000000    0044eca0     DrawingSurface.obj
 0002:00002cb0       __real@3fe0c152382d7365    0044ecb0     DrawingSurface.obj
 0002:00002cc0       __real@3ff0000000000000    0044ecc0     DrawingSurface.obj
 0002:00002cd0       __real@3ff8000000000000    0044ecd0     DrawingSurface.obj
 0002:00002ce0       __real@3ff921fb54442d18    0044ece0     DrawingSurface.obj
 0002:00002cf0       __real@4000000000000000    0044ecf0     DrawingSurface.obj
 0002:00002d00       __real@4008000000000000    0044ed00     DrawingSurface.obj
 0002:00002d10       __real@400921fb54442d18    0044ed10     DrawingSurface.obj
 0002:00002d20       __real@400f6a7a2955385e    0044ed20     DrawingSurface.obj
 0002:00002d30       __real@4010000000000000    0044ed30     DrawingSurface.obj
 0002:00002d40       __real@401921fb54442d18    0044ed40     DrawingSurface.obj
 0002:00003580       ??_7FlashingDemo@@6BDisplayableObjectContainer@@@ 0044f580     FlashingDemo.obj
 0002:0000362c       ??_7FlashingDemo@@6BFilterPoints@@@ 0044f62c     FlashingDemo.obj
 0002:00003c70       ??_7bad_cast@std@@6B@      0044fc70     GameEngine.obj
 0002:00003c7c       ??_C@_08EPJLHIJG@bad?5cast@ 0044fc7c     GameEngine.obj
 0002:00003c88       ??_C@_0BG@HGEDEDEC@invalid?5stoi?5argument@ 0044fc88     GameEngine.obj
 0002:00003ca4       ??_C@_0BL@MFFNMGGC@stoi?5argument?5out?5of?5range@ 0044fca4     GameEngine.obj
 0002:00003cc8       ??_7TileManager@@6B@       0044fcc8     GameEngine.obj
 0002:00003cd8       ??_7ColourPicker@@6B@      0044fcd8     GameEngine.obj
 0002:00003ce4       ??_C@_0BF@DMNFDJMA@playersRightBLue?4png@ 0044fce4     GameEngine.obj
 0002:00003d00       ??_C@_0BG@PKOJGLCD@playersRightGreen?4png@ 0044fd00     GameEngine.obj
 0002:00003d1c       ??_C@_0BF@PFMPGDOO@playersRightGrey?4png@ 0044fd1c     GameEngine.obj
 0002:00003d38       ??_C@_0BE@CIJEFNHP@playersRightRed?4png@ 0044fd38     GameEngine.obj
 0002:00003d50       ??_C@_0L@DHGANFHB@Select?4png@ 0044fd50     GameEngine.obj
 0002:00003d64       ??_7State@@6B@             0044fd64     GameEngine.obj
 0002:00003d90       ??_7GameEngine@@6BDisplayableObjectContainer@@@ 0044fd90     GameEngine.obj
 0002:00003e3c       ??_7GameEngine@@6BFilterPoints@@@ 0044fe3c     GameEngine.obj
 0002:00003e58       ??_7StartState@@6B@        0044fe58     GameEngine.obj
 0002:00003e84       ??_7RunningState@@6B@      0044fe84     GameEngine.obj
 0002:00003eb0       ??_7PauseState@@6B@        0044feb0     GameEngine.obj
 0002:00003edc       ??_7GameOverState@@6B@     0044fedc     GameEngine.obj
 0002:00003f08       ??_7WinState@@6B@          0044ff08     GameEngine.obj
 0002:00003f34       ??_7?$basic_filebuf@DU?$char_traits@D@std@@@std@@6B@ 0044ff34     GameEngine.obj
 0002:00003f80       ??_7?$basic_ifstream@DU?$char_traits@D@std@@@std@@6B@ 0044ff80     GameEngine.obj
 0002:00003f88       ??_8?$basic_ifstream@DU?$char_traits@D@std@@@std@@7B@ 0044ff88     GameEngine.obj
 0002:00003f98       ??_7?$basic_ofstream@DU?$char_traits@D@std@@@std@@6B@ 0044ff98     GameEngine.obj
 0002:00003fa0       ??_8?$basic_ofstream@DU?$char_traits@D@std@@@std@@7B@ 0044ffa0     GameEngine.obj
 0002:00003fac       ??_C@_0CE@EAMOGAIE@vector?5erase?5iterator?5outside?5r@ 0044ffac     GameEngine.obj
 0002:00003fd8       ??_C@_1EM@BEMPOGMM@?$AA?$CC?$AAv?$AAe?$AAc?$AAt?$AAo?$AAr?$AA?5?$AAe?$AAr?$AAa?$AAs?$AAe?$AA?5?$AAi@ 0044ffd8     GameEngine.obj
 0002:00004038       ??_C@_0GC@HPEHFALL@C?3?2Program?5Files?2Microsoft?5Visu@ 00450038     GameEngine.obj
 0002:000040b0       ??_C@_1ME@FHHFGEFF@?$AAC?$AA?3?$AA?2?$AAP?$AAr?$AAo?$AAg?$AAr?$AAa?$AAm?$AA?5?$AAF?$AAi?$AAl?$AAe@ 004500b0     GameEngine.obj
 0002:0000419c       ??_C@_0BP@PFIPNLNI@front?$CI?$CJ?5called?5on?5empty?5string@ 0045019c     GameEngine.obj
 0002:000041c8       ??_C@_1EC@DINNLDHA@?$AA?$CC?$AAf?$AAr?$AAo?$AAn?$AAt?$AA?$CI?$AA?$CJ?$AA?5?$AAc?$AAa?$AAl?$AAl?$AAe?$AAd@ 004501c8     GameEngine.obj
 0002:00004218       ??_C@_0BO@CAOBBIOC@vector?5iterators?5incompatible@ 00450218     GameEngine.obj
 0002:00004240       ??_C@_1EA@DJDGNIII@?$AA?$CC?$AAv?$AAe?$AAc?$AAt?$AAo?$AAr?$AA?5?$AAi?$AAt?$AAe?$AAr?$AAa?$AAt?$AAo@ 00450240     GameEngine.obj
 0002:0000428c       ??_C@_0BI@CFPLBAOH@invalid?5string?5position@ 0045028c     GameEngine.obj
 0002:000042a8       ??_C@_0DI@PBEELKIF@vector?5iterators?5in?5range?5are?5f@ 004502a8     GameEngine.obj
 0002:000042f0       ??_C@_1HE@KBMFDAFB@?$AA?$CC?$AAv?$AAe?$AAc?$AAt?$AAo?$AAr?$AA?5?$AAi?$AAt?$AAe?$AAr?$AAa?$AAt?$AAo@ 004502f0     GameEngine.obj
 0002:0000437c       ??_C@_0CB@LIAHLBAO@vector?5iterator?5range?5transpose@ 0045037c     GameEngine.obj
 0002:000043a8       ??_C@_1EG@ODKBEHFN@?$AA?$CC?$AAv?$AAe?$AAc?$AAt?$AAo?$AAr?$AA?5?$AAi?$AAt?$AAe?$AAr?$AAa?$AAt?$AAo@ 004503a8     GameEngine.obj
 0002:00004864       ??_7GameTileManager@@6B@   00450864     GameTileManager.obj
 0002:00004870       ??_C@_0BL@HFLOGDFF@ERROR?3?5cannot?5delete?5nodes@ 00450870     GameTileManager.obj
 0002:00004890       ??_C@_0BP@IEHBKPNI@pop_front?5called?5on?5empty?5list@ 00450890     GameTileManager.obj
 0002:000048b8       ??_C@_0FP@CHPGHOBB@C?3?2Program?5Files?2Microsoft?5Visu@ 004508b8     GameTileManager.obj
 0002:00004930       ??_C@_1LO@NDFEFOBN@?$AAC?$AA?3?$AA?2?$AAP?$AAr?$AAo?$AAg?$AAr?$AAa?$AAm?$AA?5?$AAF?$AAi?$AAl?$AAe@ 00450930     GameTileManager.obj
 0002:00004a18       ??_C@_1EC@POEKFLJM@?$AA?$CC?$AAp?$AAo?$AAp?$AA_?$AAf?$AAr?$AAo?$AAn?$AAt?$AA?5?$AAc?$AAa?$AAl?$AAl@ 00450a18     GameTileManager.obj
 0002:00004a68       ??_C@_0BN@GOIPFJJH@front?$CI?$CJ?5called?5on?5empty?5list@ 00450a68     GameTileManager.obj
 0002:00004a8c       ??_C@_1DO@HIOMABHK@?$AA?$CC?$AAf?$AAr?$AAo?$AAn?$AAt?$AA?$CI?$AA?$CJ?$AA?5?$AAc?$AAa?$AAl?$AAl?$AAe?$AAd@ 00450a8c     GameTileManager.obj
 0002:00004ad8       ??_C@_0O@NKNMEGII@list?5too?5long@ 00450ad8     GameTileManager.obj
 0002:00004ae8       __real@7f800000            00450ae8     GameTileManager.obj
 0002:00004f4c       ??_7MappableImageObject@@6B@ 00450f4c     ImageMappingDemo.obj
 0002:00004fa0       __real@3f1a36e2eb1c432d    00450fa0     ImageMappingDemo.obj
 0002:00004fb0       __real@4059000000000000    00450fb0     ImageMappingDemo.obj
 0002:00004fc0       __real@c059000000000000    00450fc0     ImageMappingDemo.obj
 0002:000058a4       ??_7FilterPoints@@6B@      004518a4     BaseEngine.obj
 0002:000058c0       ??_7DisplayableObjectContainer@@6B@ 004518c0     BaseEngine.obj
 0002:000058d0       ??_7BaseEngine@@6BDisplayableObjectContainer@@@ 004518d0     BaseEngine.obj
 0002:0000597c       ??_7BaseEngine@@6BFilterPoints@@@ 0045197c     BaseEngine.obj
 0002:00005994       ??_C@_0DE@CHADHGFF@can?8t?5dereference?5value?9initial@ 00451994     BaseEngine.obj
 0002:000059d8       ??_C@_1GM@FNBFNBEL@?$AA?$CC?$AAc?$AAa?$AAn?$AA?8?$AAt?$AA?5?$AAd?$AAe?$AAr?$AAe?$AAf?$AAe?$AAr?$AAe@ 004519d8     BaseEngine.obj
 0002:00005a5c       ??_C@_0CO@PGFNEDAH@can?8t?5dereference?5invalidated?5v@ 00451a5c     BaseEngine.obj
 0002:00005a98       ??_C@_1GA@CLCDIGKJ@?$AA?$CC?$AAc?$AAa?$AAn?$AA?8?$AAt?$AA?5?$AAd?$AAe?$AAr?$AAe?$AAf?$AAe?$AAr?$AAe@ 00451a98     BaseEngine.obj
 0002:00005b0c       ??_C@_0CP@MDHADBHN@can?8t?5dereference?5out?5of?5range?5@ 00451b0c     BaseEngine.obj
 0002:00005b48       ??_C@_1GC@JDCKOLAC@?$AA?$CC?$AAc?$AAa?$AAn?$AA?8?$AAt?$AA?5?$AAd?$AAe?$AAr?$AAe?$AAf?$AAe?$AAr?$AAe@ 00451b48     BaseEngine.obj
 0002:00005bc0       ??_C@_0DC@KEKNBAEB@can?8t?5increment?5value?9initializ@ 00451bc0     BaseEngine.obj
 0002:00005c00       ??_C@_1GI@EDCILPL@?$AA?$CC?$AAc?$AAa?$AAn?$AA?8?$AAt?$AA?5?$AAi?$AAn?$AAc?$AAr?$AAe?$AAm?$AAe?$AAn@ 00451c00     BaseEngine.obj
 0002:00005c7c       ??_C@_0CM@MNNBKIBC@can?8t?5increment?5invalidated?5vec@ 00451c7c     BaseEngine.obj
 0002:00005cb0       ??_C@_1FM@ICPJNHLL@?$AA?$CC?$AAc?$AAa?$AAn?$AA?8?$AAt?$AA?5?$AAi?$AAn?$AAc?$AAr?$AAe?$AAm?$AAe?$AAn@ 00451cb0     BaseEngine.obj
 0002:00005d20       ??_C@_0CJ@OAAAAGPM@can?8t?5increment?5vector?5iterator@ 00451d20     BaseEngine.obj
 0002:00005d58       ??_C@_1FG@LDPPKMGP@?$AA?$CC?$AAc?$AAa?$AAn?$AA?8?$AAt?$AA?5?$AAi?$AAn?$AAc?$AAr?$AAe?$AAm?$AAe?$AAn@ 00451d58     BaseEngine.obj
 0002:000061d8       ??_7DisplayableObject@@6B@ 004521d8     DisplayableObject.obj
 0002:0000648c       ??_C@_0BI@GMOFELCF@Free?5font?3?5?$CFd?5point?5?$CFs?6@ 0045248c     FontManager.obj
 0002:000068dc       ??_7MenuBackdrop@@6B@      004528dc     MenuBackdrop.obj
 0002:00006f0c       ??_7MovingObject@@6B@      00452f0c     MovingObject.obj
 0002:00006f50       ??_7MovingPlayerObject@@6B@ 00452f50     MovingObject.obj
 0002:00006f90       ??_C@_0BA@BAAFOFBG@deleted?5player?6@ 00452f90     MovingObject.obj
 0002:00006fa8       ??_7EnemyObject@@6B@       00452fa8     MovingObject.obj
 0002:00006fec       ??_7FlyingEnemyObject@@6B@ 00452fec     MovingObject.obj
 0002:0000702c       ??_C@_0O@BKEJEIFI@deleted?5enemy@ 0045302c     MovingObject.obj
 0002:00007040       ??_7StandardEnemyObject@@6B@ 00453040     MovingObject.obj
 0002:00007084       ??_7ShooterEnemyObject@@6B@ 00453084     MovingObject.obj
 0002:000070c4       __real@40000000            004530c4     MovingObject.obj
 0002:000070c8       __real@40400000            004530c8     MovingObject.obj
 0002:000070cc       __real@46fffe00            004530cc     MovingObject.obj
 0002:000074e8       ??_7Projectile@@6B@        004534e8     Projectile.obj
 0002:00007528       ??_C@_0BE@GMDPBIOO@deleted?5projectile?6@ 00453528     Projectile.obj
 0002:00007544       ??_7BossProjectile@@6B@    00453544     Projectile.obj
 0002:00007584       __real@3f800000            00453584     Projectile.obj
 0002:000079a0       ??_7CroppedImagePixelMapping@@6B@ 004539a0     SimpleImage.obj
 0002:00007e7c       ??_7BouncingObject@@6B@    00453e7c     SimpleDemo.obj
 0002:00007ec0       __real@0000000000000000    00453ec0     SimpleDemo.obj
 0002:00007ed0       __real@3f747ae147ae147b    00453ed0     SimpleDemo.obj
 0002:00007ee0       __real@4004000000000000    00453ee0     SimpleDemo.obj
 0002:00007ef0       __real@400c000000000000    00453ef0     SimpleDemo.obj
 0002:00007f00       __real@4069000000000000    00453f00     SimpleDemo.obj
 0002:00007f10       __real@4072c00000000000    00453f10     SimpleDemo.obj
 0002:00007f20       __xmm@80000000000000008000000000000000 00453f20     SimpleDemo.obj
 0002:00008350       ??_7StarfieldDemo@@6BDisplayableObjectContainer@@@ 00454350     StarfieldDemo.obj
 0002:000083fc       ??_7StarfieldDemo@@6BFilterPoints@@@ 004543fc     StarfieldDemo.obj
 0002:000088e4       ??_7TextBox@@6B@           004548e4     TextBox.obj
 0002:00008924       ??_C@_0CB@EJBNKHHC@invalid?5to?5pop_back?5empty?5strin@ 00454924     TextBox.obj
 0002:00008950       ??_C@_1EG@GNALHNOG@?$AA?$CC?$AAi?$AAn?$AAv?$AAa?$AAl?$AAi?$AAd?$AA?5?$AAt?$AAo?$AA?5?$AAp?$AAo?$AAp@ 00454950     TextBox.obj
 0002:000091d8       ??_7BouncingBall@@6B@      004551d8     BouncingBall.obj
 0002:0000921c       ??_7BouncingBall1@@6B@     0045521c     BouncingBall.obj
 0002:00009260       ??_7BouncingBall2@@6B@     00455260     BouncingBall.obj
 0002:000092a0       __real@3f847ae147ae147b    004552a0     BouncingBall.obj
 0002:00009700       __real@3fe999999999999a    00455700     BouncingBallMain.obj
 0002:00009710       __real@3ff199999999999a    00455710     BouncingBallMain.obj
 0002:00009720       __real@3ff3333333333333    00455720     BouncingBallMain.obj
 0002:00009730       __real@4049000000000000    00455730     BouncingBallMain.obj
 0002:00009740       __real@4062c00000000000    00455740     BouncingBallMain.obj
 0002:00009750       __real@4066800000000000    00455750     BouncingBallMain.obj
 0002:00009760       __real@406f400000000000    00455760     BouncingBallMain.obj
 0002:00009770       __real@4071300000000000    00455770     BouncingBallMain.obj
 0002:00009780       __real@4074500000000000    00455780     BouncingBallMain.obj
 0002:00009790       __real@4075e00000000000    00455790     BouncingBallMain.obj
 0002:000097a0       __real@4077700000000000    004557a0     BouncingBallMain.obj
 0002:000097b0       __real@4079000000000000    004557b0     BouncingBallMain.obj
 0002:000097c0       __real@4079a00000000000    004557c0     BouncingBallMain.obj
 0002:000097d0       __real@407c200000000000    004557d0     BouncingBallMain.obj
 0002:000097e0       __real@407f400000000000    004557e0     BouncingBallMain.obj
 0002:000097f0       __real@4081300000000000    004557f0     BouncingBallMain.obj
 0002:00009800       __real@4082c00000000000    00455800     BouncingBallMain.obj
 0002:00009810       __real@4084500000000000    00455810     BouncingBallMain.obj
 0002:00009820       __real@4087700000000000    00455820     BouncingBallMain.obj
 0002:00009ce4       ??_7SimpleFlashingDragableImageObject@@6B@ 00455ce4     ZoomingDemo.obj
 0002:0000a2d8       ??_7MazeDemoTileManager@@6B@ 004562d8     MazeDemoMain.obj
 0002:0000a2e8       ??_7MazeDemoMain@@6BDisplayableObjectContainer@@@ 004562e8     MazeDemoMain.obj
 0002:0000a394       ??_7MazeDemoMain@@6BFilterPoints@@@ 00456394     MazeDemoMain.obj
 0002:0000a7c8       ??_7MazeDemoObject@@6B@    004567c8     MazeDemoObject.obj
 0002:0000acf0       __xmm@00000000000000010000000000000001 00456cf0     msvcprtd:vector_algorithms.obj
 0002:0000ad10       __xmm@00000001000000010000000100000001 00456d10     msvcprtd:vector_algorithms.obj
 0002:0000ad30       __xmm@00010001000100010001000100010001 00456d30     msvcprtd:vector_algorithms.obj
 0002:0000ad50       __xmm@000102030405060708090a0b0c0d0e0f 00456d50     msvcprtd:vector_algorithms.obj
 0002:0000ad70       __xmm@010003020504070609080b0a0d0c0f0e 00456d70     msvcprtd:vector_algorithms.obj
 0002:0000ad90       __xmm@01010101010101010101010101010101 00456d90     msvcprtd:vector_algorithms.obj
 0002:0000adb0       __xmm@0d0c0f0e09080b0a0504070601000302 00456db0     msvcprtd:vector_algorithms.obj
 0002:0000add0       __xmm@0e0f0c0d0a0b08090607040502030001 00456dd0     msvcprtd:vector_algorithms.obj
 0002:0000adf0       __xmm@ffffffffffffffffffffffffffffffff 00456df0     msvcprtd:vector_algorithms.obj
 0002:0000ae20       __ymm@0000000000000001000000020000000300000004000000050000000600000007 00456e20     msvcprtd:vector_algorithms.obj
 0002:0000ae60       __ymm@000102030405060708090a0b0c0d0e0f000102030405060708090a0b0c0d0e0f 00456e60     msvcprtd:vector_algorithms.obj
 0002:0000aea0       __ymm@010003020504070609080b0a0d0c0f0e010003020504070609080b0a0d0c0f0e 00456ea0     msvcprtd:vector_algorithms.obj
 0002:0000aec8       ??_C@_0DK@PCBCHJKC@D?3?2a?2_work?21?2s?2src?2vctools?2crt?2@ 00456ec8     msvcprtd:locale0_implib.obj
 0002:0000af14       ??_7type_info@@6B@         00456f14     MSVCRTD:std_type_info_static.obj
 0002:0000af1c       ??_C@_0P@GHFPNOJB@bad?5allocation@ 00456f1c     MSVCRTD:throw_bad_alloc.obj
 0002:0000af3c       ??_C@_0BJ@HFNMHALN@Out?5of?5memory?5?9?5aborting@ 00456f3c     SDL2main:SDL_windows_main.obj
 0002:0000af5c       ??_C@_0M@HFFOIJBL@Fatal?5Error@ 00456f5c     SDL2main:SDL_windows_main.obj
 0002:0000af70       __load_config_used         00456f70     MSVCRTD:loadcfg.obj
 0002:0000b2c0       ___CastGuardVftablesStart  004572c0     MSVCRTD:guard_support.obj
 0002:0000b440       ___CastGuardVftablesEnd    00457440     MSVCRTD:guard_support.obj
 0002:0000b58c       ??_R4exception@std@@6B@    0045758c     Button.obj
 0002:0000b5a4       ??_R3exception@std@@8      004575a4     Button.obj
 0002:0000b5b8       ??_R2exception@std@@8      004575b8     Button.obj
 0002:0000b5c0       ??_R1A@?0A@EA@exception@std@@8 004575c0     Button.obj
 0002:0000b5e4       ??_R4bad_alloc@std@@6B@    004575e4     Button.obj
 0002:0000b5fc       ??_R3bad_alloc@std@@8      004575fc     Button.obj
 0002:0000b610       ??_R2bad_alloc@std@@8      00457610     Button.obj
 0002:0000b61c       ??_R1A@?0A@EA@bad_alloc@std@@8 0045761c     Button.obj
 0002:0000b640       ??_R4bad_array_new_length@std@@6B@ 00457640     Button.obj
 0002:0000b658       ??_R3bad_array_new_length@std@@8 00457658     Button.obj
 0002:0000b66c       ??_R2bad_array_new_length@std@@8 0045766c     Button.obj
 0002:0000b67c       ??_R1A@?0A@EA@bad_array_new_length@std@@8 0045767c     Button.obj
 0002:0000b6a0       ??_R3_Ref_count_base@std@@8 004576a0     Button.obj
 0002:0000b6b4       ??_R2_Ref_count_base@std@@8 004576b4     Button.obj
 0002:0000b6bc       ??_R1A@?0A@EA@_Ref_count_base@std@@8 004576bc     Button.obj
 0002:0000b6e0       ??_R1A@?0A@EA@DisplayableObject@@8 004576e0     Button.obj
 0002:0000b704       ??_R3DisplayableObject@@8  00457704     Button.obj
 0002:0000b718       ??_R2DisplayableObject@@8  00457718     Button.obj
 0002:0000b720       ??_R4Button@@6B@           00457720     Button.obj
 0002:0000b738       ??_R3Button@@8             00457738     Button.obj
 0002:0000b74c       ??_R2Button@@8             0045774c     Button.obj
 0002:0000b758       ??_R1A@?0A@EA@Button@@8    00457758     Button.obj
 0002:0000b77c       ??_R4?$_Ref_count@VRawImageData@@@std@@6B@ 0045777c     Button.obj
 0002:0000b794       ??_R3?$_Ref_count@VRawImageData@@@std@@8 00457794     Button.obj
 0002:0000b7a8       ??_R2?$_Ref_count@VRawImageData@@@std@@8 004577a8     Button.obj
 0002:0000b7b4       ??_R1A@?0A@EA@?$_Ref_count@VRawImageData@@@std@@8 004577b4     Button.obj
 0002:0000b7d8       ??_R4DragableBaseClassObject@@6B@ 004577d8     DraggingDemo.obj
 0002:0000b7f0       ??_R3DragableBaseClassObject@@8 004577f0     DraggingDemo.obj
 0002:0000b804       ??_R2DragableBaseClassObject@@8 00457804     DraggingDemo.obj
 0002:0000b810       ??_R1A@?0A@EA@DragableBaseClassObject@@8 00457810     DraggingDemo.obj
 0002:0000b834       ??_R4DragableObject@@6B@   00457834     DraggingDemo.obj
 0002:0000b84c       ??_R3DragableObject@@8     0045784c     DraggingDemo.obj
 0002:0000b860       ??_R2DragableObject@@8     00457860     DraggingDemo.obj
 0002:0000b870       ??_R1A@?0A@EA@DragableObject@@8 00457870     DraggingDemo.obj
 0002:0000b894       ??_R4DragableImageObject@@6B@ 00457894     DraggingDemo.obj
 0002:0000b8ac       ??_R3DragableImageObject@@8 004578ac     DraggingDemo.obj
 0002:0000b8c0       ??_R2DragableImageObject@@8 004578c0     DraggingDemo.obj
 0002:0000b8d0       ??_R1A@?0A@EA@DragableImageObject@@8 004578d0     DraggingDemo.obj
 0002:0000b8f4       ??_R4ImageObject@@6B@      004578f4     DraggingDemo.obj
 0002:0000b90c       ??_R3ImageObject@@8        0045790c     DraggingDemo.obj
 0002:0000b920       ??_R2ImageObject@@8        00457920     DraggingDemo.obj
 0002:0000b92c       ??_R1A@?0A@EA@ImageObject@@8 0045792c     DraggingDemo.obj
 0002:0000b950       ??_R3DisplayableObjectContainer@@8 00457950     FlashingDemo.obj
 0002:0000b964       ??_R2DisplayableObjectContainer@@8 00457964     FlashingDemo.obj
 0002:0000b96c       ??_R1A@?0A@EA@DisplayableObjectContainer@@8 0045796c     FlashingDemo.obj
 0002:0000b990       ??_R4FlashingDemo@@6BDisplayableObjectContainer@@@ 00457990     FlashingDemo.obj
 0002:0000b9a8       ??_R3FlashingDemo@@8       004579a8     FlashingDemo.obj
 0002:0000b9bc       ??_R2FlashingDemo@@8       004579bc     FlashingDemo.obj
 0002:0000b9d0       ??_R1A@?0A@EA@FlashingDemo@@8 004579d0     FlashingDemo.obj
 0002:0000b9f4       ??_R1A@?0A@EA@BaseEngine@@8 004579f4     FlashingDemo.obj
 0002:0000ba18       ??_R3BaseEngine@@8         00457a18     FlashingDemo.obj
 0002:0000ba2c       ??_R2BaseEngine@@8         00457a2c     FlashingDemo.obj
 0002:0000ba3c       ??_R1BM@?0A@EA@FilterPoints@@8 00457a3c     FlashingDemo.obj
 0002:0000ba60       ??_R3FilterPoints@@8       00457a60     FlashingDemo.obj
 0002:0000ba74       ??_R2FilterPoints@@8       00457a74     FlashingDemo.obj
 0002:0000ba7c       ??_R1A@?0A@EA@FilterPoints@@8 00457a7c     FlashingDemo.obj
 0002:0000baa0       ??_R4FlashingDemo@@6BFilterPoints@@@ 00457aa0     FlashingDemo.obj
 0002:0000bab8       ??_R4?$basic_filebuf@DU?$char_traits@D@std@@@std@@6B@ 00457ab8     GameEngine.obj
 0002:0000bad0       ??_R3?$basic_filebuf@DU?$char_traits@D@std@@@std@@8 00457ad0     GameEngine.obj
 0002:0000bae4       ??_R2?$basic_filebuf@DU?$char_traits@D@std@@@std@@8 00457ae4     GameEngine.obj
 0002:0000baf0       ??_R1A@?0A@EA@?$basic_filebuf@DU?$char_traits@D@std@@@std@@8 00457af0     GameEngine.obj
 0002:0000bb14       ??_R1A@?0A@EA@?$basic_streambuf@DU?$char_traits@D@std@@@std@@8 00457b14     GameEngine.obj
 0002:0000bb38       ??_R3?$basic_streambuf@DU?$char_traits@D@std@@@std@@8 00457b38     GameEngine.obj
 0002:0000bb4c       ??_R2?$basic_streambuf@DU?$char_traits@D@std@@@std@@8 00457b4c     GameEngine.obj
 0002:0000bb54       ??_R4?$basic_ifstream@DU?$char_traits@D@std@@@std@@6B@ 00457b54     GameEngine.obj
 0002:0000bb6c       ??_R3?$basic_ifstream@DU?$char_traits@D@std@@@std@@8 00457b6c     GameEngine.obj
 0002:0000bb80       ??_R2?$basic_ifstream@DU?$char_traits@D@std@@@std@@8 00457b80     GameEngine.obj
 0002:0000bb9c       ??_R1A@?0A@EA@?$basic_ifstream@DU?$char_traits@D@std@@@std@@8 00457b9c     GameEngine.obj
 0002:0000bbc0       ??_R1A@?0A@EA@?$basic_istream@DU?$char_traits@D@std@@@std@@8 00457bc0     GameEngine.obj
 0002:0000bbe4       ??_R3?$basic_istream@DU?$char_traits@D@std@@@std@@8 00457be4     GameEngine.obj
 0002:0000bbf8       ??_R2?$basic_istream@DU?$char_traits@D@std@@@std@@8 00457bf8     GameEngine.obj
 0002:0000bc0c       ??_R1A@A@3FA@?$basic_ios@DU?$char_traits@D@std@@@std@@8 00457c0c     GameEngine.obj
 0002:0000bc30       ??_R3?$basic_ios@DU?$char_traits@D@std@@@std@@8 00457c30     GameEngine.obj
 0002:0000bc44       ??_R2?$basic_ios@DU?$char_traits@D@std@@@std@@8 00457c44     GameEngine.obj
 0002:0000bc54       ??_R1A@?0A@EA@?$basic_ios@DU?$char_traits@D@std@@@std@@8 00457c54     GameEngine.obj
 0002:0000bc78       ??_R1A@?0A@EA@ios_base@std@@8 00457c78     GameEngine.obj
 0002:0000bc9c       ??_R3ios_base@std@@8       00457c9c     GameEngine.obj
 0002:0000bcb0       ??_R2ios_base@std@@8       00457cb0     GameEngine.obj
 0002:0000bcbc       ??_R17?0A@EA@?$_Iosb@H@std@@8 00457cbc     GameEngine.obj
 0002:0000bce0       ??_R3?$_Iosb@H@std@@8      00457ce0     GameEngine.obj
 0002:0000bcf4       ??_R2?$_Iosb@H@std@@8      00457cf4     GameEngine.obj
 0002:0000bcfc       ??_R1A@?0A@EA@?$_Iosb@H@std@@8 00457cfc     GameEngine.obj
 0002:0000bd20       ??_R1A@A@3EA@ios_base@std@@8 00457d20     GameEngine.obj
 0002:0000bd44       ??_R17A@3EA@?$_Iosb@H@std@@8 00457d44     GameEngine.obj
 0002:0000bd68       ??_R4?$basic_ofstream@DU?$char_traits@D@std@@@std@@6B@ 00457d68     GameEngine.obj
 0002:0000bd80       ??_R3?$basic_ofstream@DU?$char_traits@D@std@@@std@@8 00457d80     GameEngine.obj
 0002:0000bd94       ??_R2?$basic_ofstream@DU?$char_traits@D@std@@@std@@8 00457d94     GameEngine.obj
 0002:0000bdb0       ??_R1A@?0A@EA@?$basic_ofstream@DU?$char_traits@D@std@@@std@@8 00457db0     GameEngine.obj
 0002:0000bdd4       ??_R1A@?0A@EA@?$basic_ostream@DU?$char_traits@D@std@@@std@@8 00457dd4     GameEngine.obj
 0002:0000bdf8       ??_R3?$basic_ostream@DU?$char_traits@D@std@@@std@@8 00457df8     GameEngine.obj
 0002:0000be0c       ??_R2?$basic_ostream@DU?$char_traits@D@std@@@std@@8 00457e0c     GameEngine.obj
 0002:0000be20       ??_R4bad_cast@std@@6B@     00457e20     GameEngine.obj
 0002:0000be38       ??_R3bad_cast@std@@8       00457e38     GameEngine.obj
 0002:0000be4c       ??_R2bad_cast@std@@8       00457e4c     GameEngine.obj
 0002:0000be58       ??_R1A@?0A@EA@bad_cast@std@@8 00457e58     GameEngine.obj
 0002:0000be7c       ??_R4GameEngine@@6BDisplayableObjectContainer@@@ 00457e7c     GameEngine.obj
 0002:0000be94       ??_R3GameEngine@@8         00457e94     GameEngine.obj
 0002:0000bea8       ??_R2GameEngine@@8         00457ea8     GameEngine.obj
 0002:0000bebc       ??_R1A@?0A@EA@GameEngine@@8 00457ebc     GameEngine.obj
 0002:0000bee0       ??_R4GameEngine@@6BFilterPoints@@@ 00457ee0     GameEngine.obj
 0002:0000bef8       ??_R4TileManager@@6B@      00457ef8     GameEngine.obj
 0002:0000bf10       ??_R3TileManager@@8        00457f10     GameEngine.obj
 0002:0000bf24       ??_R2TileManager@@8        00457f24     GameEngine.obj
 0002:0000bf2c       ??_R1A@?0A@EA@TileManager@@8 00457f2c     GameEngine.obj
 0002:0000bf50       ??_R4ColourPicker@@6B@     00457f50     GameEngine.obj
 0002:0000bf68       ??_R3ColourPicker@@8       00457f68     GameEngine.obj
 0002:0000bf7c       ??_R2ColourPicker@@8       00457f7c     GameEngine.obj
 0002:0000bf88       ??_R1A@?0A@EA@ColourPicker@@8 00457f88     GameEngine.obj
 0002:0000bfac       ??_R4State@@6B@            00457fac     GameEngine.obj
 0002:0000bfc4       ??_R3State@@8              00457fc4     GameEngine.obj
 0002:0000bfd8       ??_R2State@@8              00457fd8     GameEngine.obj
 0002:0000bfe0       ??_R1A@?0A@EA@State@@8     00457fe0     GameEngine.obj
 0002:0000c004       ??_R4StartState@@6B@       00458004     GameEngine.obj
 0002:0000c01c       ??_R3StartState@@8         0045801c     GameEngine.obj
 0002:0000c030       ??_R2StartState@@8         00458030     GameEngine.obj
 0002:0000c03c       ??_R1A@?0A@EA@StartState@@8 0045803c     GameEngine.obj
 0002:0000c060       ??_R4RunningState@@6B@     00458060     GameEngine.obj
 0002:0000c078       ??_R3RunningState@@8       00458078     GameEngine.obj
 0002:0000c08c       ??_R2RunningState@@8       0045808c     GameEngine.obj
 0002:0000c098       ??_R1A@?0A@EA@RunningState@@8 00458098     GameEngine.obj
 0002:0000c0bc       ??_R4PauseState@@6B@       004580bc     GameEngine.obj
 0002:0000c0d4       ??_R3PauseState@@8         004580d4     GameEngine.obj
 0002:0000c0e8       ??_R2PauseState@@8         004580e8     GameEngine.obj
 0002:0000c0f4       ??_R1A@?0A@EA@PauseState@@8 004580f4     GameEngine.obj
 0002:0000c118       ??_R4GameOverState@@6B@    00458118     GameEngine.obj
 0002:0000c130       ??_R3GameOverState@@8      00458130     GameEngine.obj
 0002:0000c144       ??_R2GameOverState@@8      00458144     GameEngine.obj
 0002:0000c150       ??_R1A@?0A@EA@GameOverState@@8 00458150     GameEngine.obj
 0002:0000c174       ??_R4WinState@@6B@         00458174     GameEngine.obj
 0002:0000c18c       ??_R3WinState@@8           0045818c     GameEngine.obj
 0002:0000c1a0       ??_R2WinState@@8           004581a0     GameEngine.obj
 0002:0000c1ac       ??_R1A@?0A@EA@WinState@@8  004581ac     GameEngine.obj
 0002:0000c1d0       ??_R4GameTileManager@@6B@  004581d0     GameTileManager.obj
 0002:0000c1e8       ??_R3GameTileManager@@8    004581e8     GameTileManager.obj
 0002:0000c1fc       ??_R2GameTileManager@@8    004581fc     GameTileManager.obj
 0002:0000c208       ??_R1A@?0A@EA@GameTileManager@@8 00458208     GameTileManager.obj
 0002:0000c22c       ??_R4MappableImageObject@@6B@ 0045822c     ImageMappingDemo.obj
 0002:0000c244       ??_R3MappableImageObject@@8 00458244     ImageMappingDemo.obj
 0002:0000c258       ??_R2MappableImageObject@@8 00458258     ImageMappingDemo.obj
 0002:0000c26c       ??_R1A@?0A@EA@MappableImageObject@@8 0045826c     ImageMappingDemo.obj
 0002:0000c290       ??_R4BaseEngine@@6BDisplayableObjectContainer@@@ 00458290     BaseEngine.obj
 0002:0000c2a8       ??_R4BaseEngine@@6BFilterPoints@@@ 004582a8     BaseEngine.obj
 0002:0000c2c0       ??_R4FilterPoints@@6B@     004582c0     BaseEngine.obj
 0002:0000c2d8       ??_R4DisplayableObjectContainer@@6B@ 004582d8     BaseEngine.obj
 0002:0000c2f0       ??_R4DisplayableObject@@6B@ 004582f0     DisplayableObject.obj
 0002:0000c308       ??_R4MenuBackdrop@@6B@     00458308     MenuBackdrop.obj
 0002:0000c320       ??_R3MenuBackdrop@@8       00458320     MenuBackdrop.obj
 0002:0000c334       ??_R2MenuBackdrop@@8       00458334     MenuBackdrop.obj
 0002:0000c340       ??_R1A@?0A@EA@MenuBackdrop@@8 00458340     MenuBackdrop.obj
 0002:0000c364       ??_R4EnemyObject@@6B@      00458364     MovingObject.obj
 0002:0000c37c       ??_R3EnemyObject@@8        0045837c     MovingObject.obj
 0002:0000c390       ??_R2EnemyObject@@8        00458390     MovingObject.obj
 0002:0000c3a0       ??_R1A@?0A@EA@EnemyObject@@8 004583a0     MovingObject.obj
 0002:0000c3c4       ??_R1A@?0A@EA@MovingObject@@8 004583c4     MovingObject.obj
 0002:0000c3e8       ??_R3MovingObject@@8       004583e8     MovingObject.obj
 0002:0000c3fc       ??_R2MovingObject@@8       004583fc     MovingObject.obj
 0002:0000c408       ??_R4ShooterEnemyObject@@6B@ 00458408     MovingObject.obj
 0002:0000c420       ??_R3ShooterEnemyObject@@8 00458420     MovingObject.obj
 0002:0000c434       ??_R2ShooterEnemyObject@@8 00458434     MovingObject.obj
 0002:0000c448       ??_R1A@?0A@EA@ShooterEnemyObject@@8 00458448     MovingObject.obj
 0002:0000c46c       ??_R4MovingPlayerObject@@6B@ 0045846c     MovingObject.obj
 0002:0000c484       ??_R3MovingPlayerObject@@8 00458484     MovingObject.obj
 0002:0000c498       ??_R2MovingPlayerObject@@8 00458498     MovingObject.obj
 0002:0000c4a8       ??_R1A@?0A@EA@MovingPlayerObject@@8 004584a8     MovingObject.obj
 0002:0000c4cc       ??_R4MovingObject@@6B@     004584cc     MovingObject.obj
 0002:0000c4e4       ??_R4FlyingEnemyObject@@6B@ 004584e4     MovingObject.obj
 0002:0000c4fc       ??_R3FlyingEnemyObject@@8  004584fc     MovingObject.obj
 0002:0000c510       ??_R2FlyingEnemyObject@@8  00458510     MovingObject.obj
 0002:0000c524       ??_R1A@?0A@EA@FlyingEnemyObject@@8 00458524     MovingObject.obj
 0002:0000c548       ??_R4StandardEnemyObject@@6B@ 00458548     MovingObject.obj
 0002:0000c560       ??_R3StandardEnemyObject@@8 00458560     MovingObject.obj
 0002:0000c574       ??_R2StandardEnemyObject@@8 00458574     MovingObject.obj
 0002:0000c588       ??_R1A@?0A@EA@StandardEnemyObject@@8 00458588     MovingObject.obj
 0002:0000c5ac       ??_R4Projectile@@6B@       004585ac     Projectile.obj
 0002:0000c5c4       ??_R3Projectile@@8         004585c4     Projectile.obj
 0002:0000c5d8       ??_R2Projectile@@8         004585d8     Projectile.obj
 0002:0000c5e4       ??_R1A@?0A@EA@Projectile@@8 004585e4     Projectile.obj
 0002:0000c608       ??_R4BossProjectile@@6B@   00458608     Projectile.obj
 0002:0000c620       ??_R3BossProjectile@@8     00458620     Projectile.obj
 0002:0000c634       ??_R2BossProjectile@@8     00458634     Projectile.obj
 0002:0000c644       ??_R1A@?0A@EA@BossProjectile@@8 00458644     Projectile.obj
 0002:0000c668       ??_R3ImagePixelMapping@@8  00458668     SimpleImage.obj
 0002:0000c67c       ??_R2ImagePixelMapping@@8  0045867c     SimpleImage.obj
 0002:0000c684       ??_R1A@?0A@EA@ImagePixelMapping@@8 00458684     SimpleImage.obj
 0002:0000c6a8       ??_R4CroppedImagePixelMapping@@6B@ 004586a8     SimpleImage.obj
 0002:0000c6c0       ??_R3CroppedImagePixelMapping@@8 004586c0     SimpleImage.obj
 0002:0000c6d4       ??_R2CroppedImagePixelMapping@@8 004586d4     SimpleImage.obj
 0002:0000c6e0       ??_R1A@?0A@EA@CroppedImagePixelMapping@@8 004586e0     SimpleImage.obj
 0002:0000c704       ??_R4BouncingObject@@6B@   00458704     SimpleDemo.obj
 0002:0000c71c       ??_R3BouncingObject@@8     0045871c     SimpleDemo.obj
 0002:0000c730       ??_R2BouncingObject@@8     00458730     SimpleDemo.obj
 0002:0000c73c       ??_R1A@?0A@EA@BouncingObject@@8 0045873c     SimpleDemo.obj
 0002:0000c760       ??_R4StarfieldDemo@@6BDisplayableObjectContainer@@@ 00458760     StarfieldDemo.obj
 0002:0000c778       ??_R3StarfieldDemo@@8      00458778     StarfieldDemo.obj
 0002:0000c78c       ??_R2StarfieldDemo@@8      0045878c     StarfieldDemo.obj
 0002:0000c7a0       ??_R1A@?0A@EA@StarfieldDemo@@8 004587a0     StarfieldDemo.obj
 0002:0000c7c4       ??_R4StarfieldDemo@@6BFilterPoints@@@ 004587c4     StarfieldDemo.obj
 0002:0000c7dc       ??_R4TextBox@@6B@          004587dc     TextBox.obj
 0002:0000c7f4       ??_R3TextBox@@8            004587f4     TextBox.obj
 0002:0000c808       ??_R2TextBox@@8            00458808     TextBox.obj
 0002:0000c814       ??_R1A@?0A@EA@TextBox@@8   00458814     TextBox.obj
 0002:0000c838       ??_R4BouncingBall@@6B@     00458838     BouncingBall.obj
 0002:0000c850       ??_R3BouncingBall@@8       00458850     BouncingBall.obj
 0002:0000c864       ??_R2BouncingBall@@8       00458864     BouncingBall.obj
 0002:0000c870       ??_R1A@?0A@EA@BouncingBall@@8 00458870     BouncingBall.obj
 0002:0000c894       ??_R4BouncingBall1@@6B@    00458894     BouncingBall.obj
 0002:0000c8ac       ??_R3BouncingBall1@@8      004588ac     BouncingBall.obj
 0002:0000c8c0       ??_R2BouncingBall1@@8      004588c0     BouncingBall.obj
 0002:0000c8d0       ??_R1A@?0A@EA@BouncingBall1@@8 004588d0     BouncingBall.obj
 0002:0000c8f4       ??_R4BouncingBall2@@6B@    004588f4     BouncingBall.obj
 0002:0000c90c       ??_R3BouncingBall2@@8      0045890c     BouncingBall.obj
 0002:0000c920       ??_R2BouncingBall2@@8      00458920     BouncingBall.obj
 0002:0000c930       ??_R1A@?0A@EA@BouncingBall2@@8 00458930     BouncingBall.obj
 0002:0000c954       ??_R4SimpleFlashingDragableImageObject@@6B@ 00458954     ZoomingDemo.obj
 0002:0000c96c       ??_R3SimpleFlashingDragableImageObject@@8 0045896c     ZoomingDemo.obj
 0002:0000c980       ??_R2SimpleFlashingDragableImageObject@@8 00458980     ZoomingDemo.obj
 0002:0000c98c       ??_R1A@?0A@EA@SimpleFlashingDragableImageObject@@8 0045898c     ZoomingDemo.obj
 0002:0000c9b0       ??_R4MazeDemoMain@@6BDisplayableObjectContainer@@@ 004589b0     MazeDemoMain.obj
 0002:0000c9c8       ??_R3MazeDemoMain@@8       004589c8     MazeDemoMain.obj
 0002:0000c9dc       ??_R2MazeDemoMain@@8       004589dc     MazeDemoMain.obj
 0002:0000c9f0       ??_R1A@?0A@EA@MazeDemoMain@@8 004589f0     MazeDemoMain.obj
 0002:0000ca14       ??_R4MazeDemoMain@@6BFilterPoints@@@ 00458a14     MazeDemoMain.obj
 0002:0000ca2c       ??_R4MazeDemoTileManager@@6B@ 00458a2c     MazeDemoMain.obj
 0002:0000ca44       ??_R3MazeDemoTileManager@@8 00458a44     MazeDemoMain.obj
 0002:0000ca58       ??_R2MazeDemoTileManager@@8 00458a58     MazeDemoMain.obj
 0002:0000ca64       ??_R1A@?0A@EA@MazeDemoTileManager@@8 00458a64     MazeDemoMain.obj
 0002:0000ca88       ??_R4MazeDemoObject@@6B@   00458a88     MazeDemoObject.obj
 0002:0000caa0       ??_R3MazeDemoObject@@8     00458aa0     MazeDemoObject.obj
 0002:0000cab4       ??_R2MazeDemoObject@@8     00458ab4     MazeDemoObject.obj
 0002:0000cac0       ??_R1A@?0A@EA@MazeDemoObject@@8 00458ac0     MazeDemoObject.obj
 0002:0000cae4       ??_R4type_info@@6B@        00458ae4     MSVCRTD:std_type_info_static.obj
 0002:0000cafc       ??_R3type_info@@8          00458afc     MSVCRTD:std_type_info_static.obj
 0002:0000cb10       ??_R2type_info@@8          00458b10     MSVCRTD:std_type_info_static.obj
 0002:0000cb18       ??_R1A@?0A@EA@type_info@@8 00458b18     MSVCRTD:std_type_info_static.obj
 0002:0000cccc       ___safe_se_handler_table   00458ccc     <linker-defined>
 0002:0000d27c       ___rtc_iaa                 0045927c     MSVCRTD:initsect.obj
 0002:0000d380       ___rtc_izz                 00459380     MSVCRTD:initsect.obj
 0002:0000d484       ___rtc_taa                 00459484     MSVCRTD:initsect.obj
 0002:0000d588       ___rtc_tzz                 00459588     MSVCRTD:initsect.obj
 0002:0000ddf4       __CT??_R0?AVexception@std@@@8??0exception@std@@QAE@ABV01@@Z12 00459df4     Button.obj
 0002:0000de14       __TI3?AVbad_array_new_length@std@@ 00459e14     Button.obj
 0002:0000de28       __CTA3?AVbad_array_new_length@std@@ 00459e28     Button.obj
 0002:0000de3c       __CT??_R0?AVbad_array_new_length@std@@@8??0bad_array_new_length@std@@QAE@ABV01@@Z12 00459e3c     Button.obj
 0002:0000de5c       __CT??_R0?AVbad_alloc@std@@@8??0bad_alloc@std@@QAE@ABV01@@Z12 00459e5c     Button.obj
 0002:0000ea94       __TI2?AVbad_cast@std@@     0045aa94     GameEngine.obj
 0002:0000eaa8       __CTA2?AVbad_cast@std@@    0045aaa8     GameEngine.obj
 0002:0000eab8       __CT??_R0?AVbad_cast@std@@@8??0bad_cast@std@@QAE@ABV01@@Z12 0045aab8     GameEngine.obj
 0002:0000fb98       __TI2?AVbad_alloc@std@@    0045bb98     MSVCRTD:throw_bad_alloc.obj
 0002:0000fbac       __CTA2?AVbad_alloc@std@@   0045bbac     MSVCRTD:throw_bad_alloc.obj
 0003:00000040       ___security_cookie         0045d040     MSVCRTD:gs_cookie.obj
 0003:00000080       ___security_cookie_complement 0045d080     MSVCRTD:gs_cookie.obj
 0003:00000094       __fltused                  0045d094     MSVCRTD:fltused.obj
 0003:00000098       ___scrt_native_dllmain_reason 0045d098     MSVCRTD:utility.obj
 0003:000000a0       ___isa_enabled             0045d0a0     MSVCRTD:cpu_disp.obj
 0003:000000a4       ___scrt_default_matherr    0045d0a4     MSVCRTD:matherr.obj
 0003:000000a8       ___scrt_ucrt_dll_is_in_use 0045d0a8     MSVCRTD:ucrt_stubs.obj
 0003:000001c0       ??_R0?AVexception@std@@@8  0045d1c0     Button.obj
 0003:000001e4       ??_R0?AVbad_array_new_length@std@@@8 0045d1e4     Button.obj
 0003:00000214       ??_R0?AVbad_alloc@std@@@8  0045d214     Button.obj
 0003:00000238       ??_R0H@8                   0045d238     Button.obj
 0003:00000248       ??_R0?AVbad_cast@std@@@8   0045d248     GameEngine.obj
 0003:0000036c       ??_R0?AV_Ref_count_base@std@@@8 0045d36c     Button.obj
 0003:00000394       ??_R0?AVDisplayableObject@@@8 0045d394     Button.obj
 0003:000003bc       ??_R0?AVButton@@@8         0045d3bc     Button.obj
 0003:000003d8       ??_R0?AV?$_Ref_count@VRawImageData@@@std@@@8 0045d3d8     Button.obj
 0003:00000410       ??_R0?AVDragableBaseClassObject@@@8 0045d410     DraggingDemo.obj
 0003:00000440       ??_R0?AVDragableObject@@@8 0045d440     DraggingDemo.obj
 0003:00000464       ??_R0?AVDragableImageObject@@@8 0045d464     DraggingDemo.obj
 0003:0000048c       ??_R0?AVImageObject@@@8    0045d48c     DraggingDemo.obj
 0003:000004ac       ??_R0?AVDisplayableObjectContainer@@@8 0045d4ac     FlashingDemo.obj
 0003:000004e0       ??_R0?AVFlashingDemo@@@8   0045d4e0     FlashingDemo.obj
 0003:00000500       ??_R0?AVBaseEngine@@@8     0045d500     FlashingDemo.obj
 0003:00000520       ??_R0?AVFilterPoints@@@8   0045d520     FlashingDemo.obj
 0003:00000540       ??_R0?AV?$basic_filebuf@DU?$char_traits@D@std@@@std@@@8 0045d540     GameEngine.obj
 0003:00000588       ??_R0?AV?$basic_streambuf@DU?$char_traits@D@std@@@std@@@8 0045d588     GameEngine.obj
 0003:000005d0       ??_R0?AV?$basic_ifstream@DU?$char_traits@D@std@@@std@@@8 0045d5d0     GameEngine.obj
 0003:00000618       ??_R0?AV?$basic_istream@DU?$char_traits@D@std@@@std@@@8 0045d618     GameEngine.obj
 0003:00000660       ??_R0?AV?$basic_ios@DU?$char_traits@D@std@@@std@@@8 0045d660     GameEngine.obj
 0003:000006a0       ??_R0?AVios_base@std@@@8   0045d6a0     GameEngine.obj
 0003:000006c0       ??_R0?AV?$_Iosb@H@std@@@8  0045d6c0     GameEngine.obj
 0003:000006e4       ??_R0?AV?$basic_ofstream@DU?$char_traits@D@std@@@std@@@8 0045d6e4     GameEngine.obj
 0003:0000072c       ??_R0?AV?$basic_ostream@DU?$char_traits@D@std@@@std@@@8 0045d72c     GameEngine.obj
 0003:00000774       ??_R0?AVGameEngine@@@8     0045d774     GameEngine.obj
 0003:00000794       ??_R0?AVTileManager@@@8    0045d794     GameEngine.obj
 0003:000007b4       ??_R0?AVColourPicker@@@8   0045d7b4     GameEngine.obj
 0003:000007d4       ??_R0?AVState@@@8          0045d7d4     GameEngine.obj
 0003:000007ec       ??_R0?AVStartState@@@8     0045d7ec     GameEngine.obj
 0003:0000080c       ??_R0?AVRunningState@@@8   0045d80c     GameEngine.obj
 0003:0000082c       ??_R0?AVPauseState@@@8     0045d82c     GameEngine.obj
 0003:0000084c       ??_R0?AVGameOverState@@@8  0045d84c     GameEngine.obj
 0003:00000870       ??_R0?AVWinState@@@8       0045d870     GameEngine.obj
 0003:0000088c       ??_R0?AVGameTileManager@@@8 0045d88c     GameTileManager.obj
 0003:000008b0       ??_R0?AVMappableImageObject@@@8 0045d8b0     ImageMappingDemo.obj
 0003:000008d8       ??_R0?AVMenuBackdrop@@@8   0045d8d8     MenuBackdrop.obj
 0003:000008f8       ??_R0?AVEnemyObject@@@8    0045d8f8     MovingObject.obj
 0003:00000918       ??_R0?AVMovingObject@@@8   0045d918     MovingObject.obj
 0003:00000938       ??_R0?AVShooterEnemyObject@@@8 0045d938     MovingObject.obj
 0003:00000960       ??_R0?AVMovingPlayerObject@@@8 0045d960     MovingObject.obj
 0003:00000988       ??_R0?AVFlyingEnemyObject@@@8 0045d988     MovingObject.obj
 0003:000009b0       ??_R0?AVStandardEnemyObject@@@8 0045d9b0     MovingObject.obj
 0003:000009d8       ??_R0?AVProjectile@@@8     0045d9d8     Projectile.obj
 0003:000009f8       ??_R0?AVBossProjectile@@@8 0045d9f8     Projectile.obj
 0003:00000a1c       ??_R0?AVImagePixelMapping@@@8 0045da1c     SimpleImage.obj
 0003:00000a44       ??_R0?AVCroppedImagePixelMapping@@@8 0045da44     SimpleImage.obj
 0003:00000a74       ??_R0?AVBouncingObject@@@8 0045da74     SimpleDemo.obj
 0003:00000a98       ??_R0?AVStarfieldDemo@@@8  0045da98     StarfieldDemo.obj
 0003:00000abc       ??_R0?AVTextBox@@@8        0045dabc     TextBox.obj
 0003:00000ad8       ??_R0?AVBouncingBall@@@8   0045dad8     BouncingBall.obj
 0003:00000af8       ??_R0?AVBouncingBall1@@@8  0045daf8     BouncingBall.obj
 0003:00000b1c       ??_R0?AVBouncingBall2@@@8  0045db1c     BouncingBall.obj
 0003:00000b40       ??_R0?AVSimpleFlashingDragableImageObject@@@8 0045db40     ZoomingDemo.obj
 0003:00000b7c       ??_R0?AVMazeDemoMain@@@8   0045db7c     MazeDemoMain.obj
 0003:00000b9c       ??_R0?AVMazeDemoTileManager@@@8 0045db9c     MazeDemoMain.obj
 0003:00000bc4       ??_R0?AVMazeDemoObject@@@8 0045dbc4     MazeDemoObject.obj
 0003:00000be8       ??_R0?AVtype_info@@@8      0045dbe8     MSVCRTD:std_type_info_static.obj
 0003:00000d30       ?_OptionsStorage@?1??__local_stdio_printf_options@@9@4_KA 0045dd30     Button.obj
 0003:00000d3c       ?_Stinit@?1??_Init@?$basic_filebuf@DU?$char_traits@D@std@@@std@@IAEXPAU_iobuf@@W4_Initfl@23@@Z@4U_Mbstatet@@A 0045dd3c     GameEngine.obj
 0003:00000d48       ?_Psave@?$_Facetptr@V?$codecvt@DDU_Mbstatet@@@std@@@std@@2PBVfacet@locale@2@B 0045dd48     GameEngine.obj
 0003:00000d4c       ?g_pManager@ImageManager@@0PAV1@A 0045dd4c     SimpleImage.obj
 0003:00000d58       ___scrt_current_native_startup_state 0045dd58     MSVCRTD:utility.obj
 0003:00000d5c       ___scrt_native_startup_lock 0045dd5c     MSVCRTD:utility.obj
 0003:00000d84       ___isa_available           0045dd84     MSVCRTD:cpu_disp.obj
 0003:00000d88       ___favor                   0045dd88     MSVCRTD:cpu_disp.obj
 0003:00000d90       ___castguard_check_failure_user_handled_fptr 0045dd90     MSVCRTD:guard_support.obj
 0003:00000d98       ?__type_info_root_node@@3U__type_info_node@@A 0045dd98     MSVCRTD:tncleanup.obj
 0003:00000da8       ?_OptionsStorage@?1??__local_stdio_scanf_options@@9@4_KA 0045dda8     MSVCRTD:default_local_stdio_options.obj
 0003:00000db4       ___scrt_debugger_hook_flag 0045ddb4     MSVCRTD:utility_desktop.obj
 0003:00001174       ___dyn_tls_dtor_callback   0045e174     <common>
 0003:00001180       ___dyn_tls_init_callback   0045e180     <common>
 0004:00000000       __imp__IsProcessorFeaturePresent@4 0045f000     kernel32:KERNEL32.dll
 0004:00000004       __imp__QueryPerformanceCounter@4 0045f004     kernel32:KERNEL32.dll
 0004:00000008       __imp__GetCurrentProcessId@0 0045f008     kernel32:KERNEL32.dll
 0004:0000000c       __imp__GetCurrentThreadId@0 0045f00c     kernel32:KERNEL32.dll
 0004:00000010       __imp__GetSystemTimeAsFileTime@4 0045f010     kernel32:KERNEL32.dll
 0004:00000014       __imp__InitializeSListHead@4 0045f014     kernel32:KERNEL32.dll
 0004:00000018       __imp__IsDebuggerPresent@0 0045f018     kernel32:KERNEL32.dll
 0004:0000001c       __imp__UnhandledExceptionFilter@4 0045f01c     kernel32:KERNEL32.dll
 0004:00000020       __imp__SetUnhandledExceptionFilter@4 0045f020     kernel32:KERNEL32.dll
 0004:00000024       __imp__GetStartupInfoW@4   0045f024     kernel32:KERNEL32.dll
 0004:00000028       __imp__GetCurrentProcess@0 0045f028     kernel32:KERNEL32.dll
 0004:0000002c       __imp__TerminateProcess@8  0045f02c     kernel32:KERNEL32.dll
 0004:00000030       __imp__GetCommandLineW@0   0045f030     kernel32:KERNEL32.dll
 0004:00000034       __imp__VirtualAlloc@16     0045f034     kernel32:KERNEL32.dll
 0004:00000038       __imp__GetModuleHandleW@4  0045f038     kernel32:KERNEL32.dll
 0004:0000003c       __imp__VirtualFree@12      0045f03c     kernel32:KERNEL32.dll
 0004:00000040       __imp__WideCharToMultiByte@32 0045f040     kernel32:KERNEL32.dll
 0004:00000044       \177KERNEL32_NULL_THUNK_DATA 0045f044     kernel32:KERNEL32.dll
 0004:0000007c       __imp_??1?$basic_ostream@DU?$char_traits@D@std@@@std@@UAE@XZ 0045f07c     msvcprtd:MSVCP140D.dll
 0004:00000080       __imp_??0?$basic_ostream@DU?$char_traits@D@std@@@std@@QAE@PAV?$basic_streambuf@DU?$char_traits@D@std@@@1@_N@Z 0045f080     msvcprtd:MSVCP140D.dll
 0004:00000084       __imp_??6?$basic_ostream@DU?$char_traits@D@std@@@std@@QAEAAV01@H@Z 0045f084     msvcprtd:MSVCP140D.dll
 0004:00000088       __imp_??0?$basic_istream@DU?$char_traits@D@std@@@std@@QAE@PAV?$basic_streambuf@DU?$char_traits@D@std@@@1@_N@Z 0045f088     msvcprtd:MSVCP140D.dll
 0004:0000008c       __imp_??1?$basic_istream@DU?$char_traits@D@std@@@std@@UAE@XZ 0045f08c     msvcprtd:MSVCP140D.dll
 0004:00000090       __imp_?_Ipfx@?$basic_istream@DU?$char_traits@D@std@@@std@@QAE_N_N@Z 0045f090     msvcprtd:MSVCP140D.dll
 0004:00000094       __imp_?_Fiopen@std@@YAPAU_iobuf@@PBDHH@Z 0045f094     msvcprtd:MSVCP140D.dll
 0004:00000098       __imp_?showmanyc@?$basic_streambuf@DU?$char_traits@D@std@@@std@@MAE_JXZ 0045f098     msvcprtd:MSVCP140D.dll
 0004:0000009c       __imp_?id@?$codecvt@DDU_Mbstatet@@@std@@2V0locale@2@A 0045f09c     msvcprtd:MSVCP140D.dll
 0004:000000a0       __imp_?_Xbad_alloc@std@@YAXXZ 0045f0a0     msvcprtd:MSVCP140D.dll
 0004:000000a4       __imp_??5?$basic_istream@DU?$char_traits@D@std@@@std@@QAEAAV01@AAH@Z 0045f0a4     msvcprtd:MSVCP140D.dll
 0004:000000a8       __imp_??0_Lockit@std@@QAE@H@Z 0045f0a8     msvcprtd:MSVCP140D.dll
 0004:000000ac       __imp_??1_Lockit@std@@QAE@XZ 0045f0ac     msvcprtd:MSVCP140D.dll
 0004:000000b0       __imp_?_Xlength_error@std@@YAXPBD@Z 0045f0b0     msvcprtd:MSVCP140D.dll
 0004:000000b4       __imp_?uncaught_exception@std@@YA_NXZ 0045f0b4     msvcprtd:MSVCP140D.dll
 0004:000000b8       __imp_?good@ios_base@std@@QBE_NXZ 0045f0b8     msvcprtd:MSVCP140D.dll
 0004:000000bc       __imp_?flags@ios_base@std@@QBEHXZ 0045f0bc     msvcprtd:MSVCP140D.dll
 0004:000000c0       __imp_?width@ios_base@std@@QBE_JXZ 0045f0c0     msvcprtd:MSVCP140D.dll
 0004:000000c4       __imp_?width@ios_base@std@@QAE_J_J@Z 0045f0c4     msvcprtd:MSVCP140D.dll
 0004:000000c8       __imp_?sputc@?$basic_streambuf@DU?$char_traits@D@std@@@std@@QAEHD@Z 0045f0c8     msvcprtd:MSVCP140D.dll
 0004:000000cc       __imp_?sputn@?$basic_streambuf@DU?$char_traits@D@std@@@std@@QAE_JPBD_J@Z 0045f0cc     msvcprtd:MSVCP140D.dll
 0004:000000d0       __imp_?setstate@?$basic_ios@DU?$char_traits@D@std@@@std@@QAEXH_N@Z 0045f0d0     msvcprtd:MSVCP140D.dll
 0004:000000d4       __imp_?tie@?$basic_ios@DU?$char_traits@D@std@@@std@@QBEPAV?$basic_ostream@DU?$char_traits@D@std@@@2@XZ 0045f0d4     msvcprtd:MSVCP140D.dll
 0004:000000d8       __imp_?rdbuf@?$basic_ios@DU?$char_traits@D@std@@@std@@QBEPAV?$basic_streambuf@DU?$char_traits@D@std@@@2@XZ 0045f0d8     msvcprtd:MSVCP140D.dll
 0004:000000dc       __imp_?fill@?$basic_ios@DU?$char_traits@D@std@@@std@@QBEDXZ 0045f0dc     msvcprtd:MSVCP140D.dll
 0004:000000e0       __imp_?widen@?$basic_ios@DU?$char_traits@D@std@@@std@@QBEDD@Z 0045f0e0     msvcprtd:MSVCP140D.dll
 0004:000000e4       __imp_?_Osfx@?$basic_ostream@DU?$char_traits@D@std@@@std@@QAEXXZ 0045f0e4     msvcprtd:MSVCP140D.dll
 0004:000000e8       __imp_??6?$basic_ostream@DU?$char_traits@D@std@@@std@@QAEAAV01@P6AAAV01@AAV01@@Z@Z 0045f0e8     msvcprtd:MSVCP140D.dll
 0004:000000ec       __imp_?put@?$basic_ostream@DU?$char_traits@D@std@@@std@@QAEAAV12@D@Z 0045f0ec     msvcprtd:MSVCP140D.dll
 0004:000000f0       __imp_?flush@?$basic_ostream@DU?$char_traits@D@std@@@std@@QAEAAV12@XZ 0045f0f0     msvcprtd:MSVCP140D.dll
 0004:000000f4       __imp_?cout@std@@3V?$basic_ostream@DU?$char_traits@D@std@@@1@A 0045f0f4     msvcprtd:MSVCP140D.dll
 0004:000000f8       __imp_?_Xinvalid_argument@std@@YAXPBD@Z 0045f0f8     msvcprtd:MSVCP140D.dll
 0004:000000fc       __imp_?_Xout_of_range@std@@YAXPBD@Z 0045f0fc     msvcprtd:MSVCP140D.dll
 0004:00000100       __imp_??Bid@locale@std@@QAEIXZ 0045f100     msvcprtd:MSVCP140D.dll
 0004:00000104       __imp_?_Getgloballocale@locale@std@@CAPAV_Locimp@12@XZ 0045f104     msvcprtd:MSVCP140D.dll
 0004:00000108       __imp_?always_noconv@codecvt_base@std@@QBE_NXZ 0045f108     msvcprtd:MSVCP140D.dll
 0004:0000010c       __imp_?in@?$codecvt@DDU_Mbstatet@@@std@@QBEHAAU_Mbstatet@@PBD1AAPBDPAD3AAPAD@Z 0045f10c     msvcprtd:MSVCP140D.dll
 0004:00000110       __imp_?out@?$codecvt@DDU_Mbstatet@@@std@@QBEHAAU_Mbstatet@@PBD1AAPBDPAD3AAPAD@Z 0045f110     msvcprtd:MSVCP140D.dll
 0004:00000114       __imp_?unshift@?$codecvt@DDU_Mbstatet@@@std@@QBEHAAU_Mbstatet@@PAD1AAPAD@Z 0045f114     msvcprtd:MSVCP140D.dll
 0004:00000118       __imp_?_Getcat@?$codecvt@DDU_Mbstatet@@@std@@SAIPAPBVfacet@locale@2@PBV42@@Z 0045f118     msvcprtd:MSVCP140D.dll
 0004:0000011c       __imp_??0?$basic_streambuf@DU?$char_traits@D@std@@@std@@IAE@XZ 0045f11c     msvcprtd:MSVCP140D.dll
 0004:00000120       __imp_??1?$basic_streambuf@DU?$char_traits@D@std@@@std@@UAE@XZ 0045f120     msvcprtd:MSVCP140D.dll
 0004:00000124       __imp_?getloc@?$basic_streambuf@DU?$char_traits@D@std@@@std@@QBE?AVlocale@2@XZ 0045f124     msvcprtd:MSVCP140D.dll
 0004:00000128       __imp_?sbumpc@?$basic_streambuf@DU?$char_traits@D@std@@@std@@QAEHXZ 0045f128     msvcprtd:MSVCP140D.dll
 0004:0000012c       __imp_?sgetc@?$basic_streambuf@DU?$char_traits@D@std@@@std@@QAEHXZ 0045f12c     msvcprtd:MSVCP140D.dll
 0004:00000130       __imp_?snextc@?$basic_streambuf@DU?$char_traits@D@std@@@std@@QAEHXZ 0045f130     msvcprtd:MSVCP140D.dll
 0004:00000134       __imp_?eback@?$basic_streambuf@DU?$char_traits@D@std@@@std@@IBEPADXZ 0045f134     msvcprtd:MSVCP140D.dll
 0004:00000138       __imp_?gptr@?$basic_streambuf@DU?$char_traits@D@std@@@std@@IBEPADXZ 0045f138     msvcprtd:MSVCP140D.dll
 0004:0000013c       __imp_?pptr@?$basic_streambuf@DU?$char_traits@D@std@@@std@@IBEPADXZ 0045f13c     msvcprtd:MSVCP140D.dll
 0004:00000140       __imp_?egptr@?$basic_streambuf@DU?$char_traits@D@std@@@std@@IBEPADXZ 0045f140     msvcprtd:MSVCP140D.dll
 0004:00000144       __imp_?gbump@?$basic_streambuf@DU?$char_traits@D@std@@@std@@IAEXH@Z 0045f144     msvcprtd:MSVCP140D.dll
 0004:00000148       __imp_?setg@?$basic_streambuf@DU?$char_traits@D@std@@@std@@IAEXPAD00@Z 0045f148     msvcprtd:MSVCP140D.dll
 0004:0000014c       __imp_?epptr@?$basic_streambuf@DU?$char_traits@D@std@@@std@@IBEPADXZ 0045f14c     msvcprtd:MSVCP140D.dll
 0004:00000150       __imp_?_Gndec@?$basic_streambuf@DU?$char_traits@D@std@@@std@@IAEPADXZ 0045f150     msvcprtd:MSVCP140D.dll
 0004:00000154       __imp_?_Gninc@?$basic_streambuf@DU?$char_traits@D@std@@@std@@IAEPADXZ 0045f154     msvcprtd:MSVCP140D.dll
 0004:00000158       __imp_?_Gnavail@?$basic_streambuf@DU?$char_traits@D@std@@@std@@IBE_JXZ 0045f158     msvcprtd:MSVCP140D.dll
 0004:0000015c       __imp_?pbump@?$basic_streambuf@DU?$char_traits@D@std@@@std@@IAEXH@Z 0045f15c     msvcprtd:MSVCP140D.dll
 0004:00000160       __imp_?_Pninc@?$basic_streambuf@DU?$char_traits@D@std@@@std@@IAEPADXZ 0045f160     msvcprtd:MSVCP140D.dll
 0004:00000164       __imp_?_Pnavail@?$basic_streambuf@DU?$char_traits@D@std@@@std@@IBE_JXZ 0045f164     msvcprtd:MSVCP140D.dll
 0004:00000168       __imp_?_Init@?$basic_streambuf@DU?$char_traits@D@std@@@std@@IAEXXZ 0045f168     msvcprtd:MSVCP140D.dll
 0004:0000016c       __imp_?_Init@?$basic_streambuf@DU?$char_traits@D@std@@@std@@IAEXPAPAD0PAH001@Z 0045f16c     msvcprtd:MSVCP140D.dll
 0004:00000170       __imp_?xsgetn@?$basic_streambuf@DU?$char_traits@D@std@@@std@@MAE_JPAD_J@Z 0045f170     msvcprtd:MSVCP140D.dll
 0004:00000174       __imp_?xsputn@?$basic_streambuf@DU?$char_traits@D@std@@@std@@MAE_JPBD_J@Z 0045f174     msvcprtd:MSVCP140D.dll
 0004:00000178       __imp_??1?$basic_ios@DU?$char_traits@D@std@@@std@@UAE@XZ 0045f178     msvcprtd:MSVCP140D.dll
 0004:0000017c       __imp_?clear@?$basic_ios@DU?$char_traits@D@std@@@std@@QAEXH_N@Z 0045f17c     msvcprtd:MSVCP140D.dll
 0004:00000180       __imp_??0?$basic_ios@DU?$char_traits@D@std@@@std@@IAE@XZ 0045f180     msvcprtd:MSVCP140D.dll
 0004:00000184       \177MSVCP140D_NULL_THUNK_DATA 0045f184     msvcprtd:MSVCP140D.dll
 0004:000001e4       __imp__SDL_UpperBlitScaled 0045f1e4     SDL2:SDL2.dll
 0004:000001e8       __imp__SDL_SetClipRect     0045f1e8     SDL2:SDL2.dll
 0004:000001ec       __imp__SDL_Quit            0045f1ec     SDL2:SDL2.dll
 0004:000001f0       __imp__SDL_Init            0045f1f0     SDL2:SDL2.dll
 0004:000001f4       __imp__SDL_GetTicks        0045f1f4     SDL2:SDL2.dll
 0004:000001f8       __imp__SDL_RenderPresent   0045f1f8     SDL2:SDL2.dll
 0004:000001fc       __imp__SDL_RenderCopy      0045f1fc     SDL2:SDL2.dll
 0004:00000200       __imp__SDL_UpdateTexture   0045f200     SDL2:SDL2.dll
 0004:00000204       __imp__SDL_CreateTexture   0045f204     SDL2:SDL2.dll
 0004:00000208       __imp__SDL_CreateRenderer  0045f208     SDL2:SDL2.dll
 0004:0000020c       __imp__SDL_SetMainReady    0045f20c     SDL2:SDL2.dll
 0004:00000210       __imp__SDL_WaitEvent       0045f210     SDL2:SDL2.dll
 0004:00000214       __imp__SDL_PollEvent       0045f214     SDL2:SDL2.dll
 0004:00000218       __imp__SDL_ShowSimpleMessageBox 0045f218     SDL2:SDL2.dll
 0004:0000021c       __imp__SDL_CreateWindow    0045f21c     SDL2:SDL2.dll
 0004:00000220       __imp__SDL_GetError        0045f220     SDL2:SDL2.dll
 0004:00000224       __imp__SDL_FillRect        0045f224     SDL2:SDL2.dll
 0004:00000228       __imp__SDL_UnlockSurface   0045f228     SDL2:SDL2.dll
 0004:0000022c       __imp__SDL_LockSurface     0045f22c     SDL2:SDL2.dll
 0004:00000230       __imp__SDL_UpperBlit       0045f230     SDL2:SDL2.dll
 0004:00000234       __imp__SDL_FreeSurface     0045f234     SDL2:SDL2.dll
 0004:00000238       __imp__SDL_CreateRGBSurface 0045f238     SDL2:SDL2.dll
 0004:0000023c       \177SDL2_NULL_THUNK_DATA   0045f23c     SDL2:SDL2.dll
 0004:00000278       __imp__IMG_Load            0045f278     SDL2_image:SDL2_image.dll
 0004:0000027c       \177SDL2_image_NULL_THUNK_DATA 0045f27c     SDL2_image:SDL2_image.dll
 0004:000002a8       __imp__TTF_CloseFont       0045f2a8     SDL2_ttf:SDL2_ttf.dll
 0004:000002ac       __imp__TTF_RenderText_Solid 0045f2ac     SDL2_ttf:SDL2_ttf.dll
 0004:000002b0       __imp__TTF_Quit            0045f2b0     SDL2_ttf:SDL2_ttf.dll
 0004:000002b4       __imp__TTF_Init            0045f2b4     SDL2_ttf:SDL2_ttf.dll
 0004:000002b8       __imp__TTF_OpenFont        0045f2b8     SDL2_ttf:SDL2_ttf.dll
 0004:000002bc       \177SDL2_ttf_NULL_THUNK_DATA 0045f2bc     SDL2_ttf:SDL2_ttf.dll
 0004:000002ec       __imp____std_type_info_destroy_list 0045f2ec     vcruntimed:VCRUNTIME140D.dll
 0004:000002f0       __imp___except_handler4_common 0045f2f0     vcruntimed:VCRUNTIME140D.dll
 0004:000002f4       __imp__memcmp              0045f2f4     vcruntimed:VCRUNTIME140D.dll
 0004:000002f8       __imp__memcpy              0045f2f8     vcruntimed:VCRUNTIME140D.dll
 0004:000002fc       __imp____std_exception_destroy 0045f2fc     vcruntimed:VCRUNTIME140D.dll
 0004:00000300       __imp___CxxThrowException@8 0045f300     vcruntimed:VCRUNTIME140D.dll
 0004:00000304       __imp____CxxFrameHandler3  0045f304     vcruntimed:VCRUNTIME140D.dll
 0004:00000308       __imp__memmove             0045f308     vcruntimed:VCRUNTIME140D.dll
 0004:0000030c       __imp__memset              0045f30c     vcruntimed:VCRUNTIME140D.dll
 0004:00000310       __imp___purecall           0045f310     vcruntimed:VCRUNTIME140D.dll
 0004:00000314       __imp____current_exception 0045f314     vcruntimed:VCRUNTIME140D.dll
 0004:00000318       __imp____current_exception_context 0045f318     vcruntimed:VCRUNTIME140D.dll
 0004:0000031c       __imp____std_exception_copy 0045f31c     vcruntimed:VCRUNTIME140D.dll
 0004:00000320       \177VCRUNTIME140D_NULL_THUNK_DATA 0045f320     vcruntimed:VCRUNTIME140D.dll
 0004:00000354       __imp___fseeki64           0045f354     ucrtd:ucrtbased.dll
 0004:00000358       __imp__fwrite              0045f358     ucrtd:ucrtbased.dll
 0004:0000035c       __imp__setvbuf             0045f35c     ucrtd:ucrtbased.dll
 0004:00000360       __imp__ungetc              0045f360     ucrtd:ucrtbased.dll
 0004:00000364       __imp___lock_file          0045f364     ucrtd:ucrtbased.dll
 0004:00000368       __imp___unlock_file        0045f368     ucrtd:ucrtbased.dll
 0004:0000036c       __imp____stdio_common_vsprintf 0045f36c     ucrtd:ucrtbased.dll
 0004:00000370       __imp__sqrt                0045f370     ucrtd:ucrtbased.dll
 0004:00000374       __imp___CrtDumpMemoryLeaks 0045f374     ucrtd:ucrtbased.dll
 0004:00000378       __imp__srand               0045f378     ucrtd:ucrtbased.dll
 0004:0000037c       __imp___time64             0045f37c     ucrtd:ucrtbased.dll
 0004:00000380       __imp__puts                0045f380     ucrtd:ucrtbased.dll
 0004:00000384       __imp__strcmp              0045f384     ucrtd:ucrtbased.dll
 0004:00000388       __imp__strcpy              0045f388     ucrtd:ucrtbased.dll
 0004:0000038c       __imp__atan2               0045f38c     ucrtd:ucrtbased.dll
 0004:00000390       __imp___free_dbg           0045f390     ucrtd:ucrtbased.dll
 0004:00000394       __imp___malloc_dbg         0045f394     ucrtd:ucrtbased.dll
 0004:00000398       __imp___seh_filter_exe     0045f398     ucrtd:ucrtbased.dll
 0004:0000039c       __imp___set_app_type       0045f39c     ucrtd:ucrtbased.dll
 0004:000003a0       __imp____setusermatherr    0045f3a0     ucrtd:ucrtbased.dll
 0004:000003a4       __imp___configure_narrow_argv 0045f3a4     ucrtd:ucrtbased.dll
 0004:000003a8       __imp__fread               0045f3a8     ucrtd:ucrtbased.dll
 0004:000003ac       __imp___get_initial_narrow_environment 0045f3ac     ucrtd:ucrtbased.dll
 0004:000003b0       __imp___initterm           0045f3b0     ucrtd:ucrtbased.dll
 0004:000003b4       __imp___initterm_e         0045f3b4     ucrtd:ucrtbased.dll
 0004:000003b8       __imp___exit               0045f3b8     ucrtd:ucrtbased.dll
 0004:000003bc       __imp___set_fmode          0045f3bc     ucrtd:ucrtbased.dll
 0004:000003c0       __imp____p___argc          0045f3c0     ucrtd:ucrtbased.dll
 0004:000003c4       __imp____p___argv          0045f3c4     ucrtd:ucrtbased.dll
 0004:000003c8       __imp___cexit              0045f3c8     ucrtd:ucrtbased.dll
 0004:000003cc       __imp___c_exit             0045f3cc     ucrtd:ucrtbased.dll
 0004:000003d0       __imp___register_thread_local_exe_atexit_callback 0045f3d0     ucrtd:ucrtbased.dll
 0004:000003d4       __imp___configthreadlocale 0045f3d4     ucrtd:ucrtbased.dll
 0004:000003d8       __imp___set_new_mode       0045f3d8     ucrtd:ucrtbased.dll
 0004:000003dc       __imp____p__commode        0045f3dc     ucrtd:ucrtbased.dll
 0004:000003e0       __imp___callnewh           0045f3e0     ucrtd:ucrtbased.dll
 0004:000003e4       __imp__malloc              0045f3e4     ucrtd:ucrtbased.dll
 0004:000003e8       __imp__terminate           0045f3e8     ucrtd:ucrtbased.dll
 0004:000003ec       __imp___seh_filter_dll     0045f3ec     ucrtd:ucrtbased.dll
 0004:000003f0       __imp___initialize_onexit_table 0045f3f0     ucrtd:ucrtbased.dll
 0004:000003f4       __imp___register_onexit_function 0045f3f4     ucrtd:ucrtbased.dll
 0004:000003f8       __imp___execute_onexit_table 0045f3f8     ucrtd:ucrtbased.dll
 0004:000003fc       __imp___crt_atexit         0045f3fc     ucrtd:ucrtbased.dll
 0004:00000400       __imp___crt_at_quick_exit  0045f400     ucrtd:ucrtbased.dll
 0004:00000404       __imp___controlfp_s        0045f404     ucrtd:ucrtbased.dll
 0004:00000408       __imp__fsetpos             0045f408     ucrtd:ucrtbased.dll
 0004:0000040c       __imp__fputc               0045f40c     ucrtd:ucrtbased.dll
 0004:00000410       __imp__fgetpos             0045f410     ucrtd:ucrtbased.dll
 0004:00000414       __imp__fgetc               0045f414     ucrtd:ucrtbased.dll
 0004:00000418       __imp__fflush              0045f418     ucrtd:ucrtbased.dll
 0004:0000041c       __imp__fclose              0045f41c     ucrtd:ucrtbased.dll
 0004:00000420       __imp___get_stream_buffer_pointers 0045f420     ucrtd:ucrtbased.dll
 0004:00000424       __imp__strtol              0045f424     ucrtd:ucrtbased.dll
 0004:00000428       __imp__exit                0045f428     ucrtd:ucrtbased.dll
 0004:0000042c       __imp___errno              0045f42c     ucrtd:ucrtbased.dll
 0004:00000430       __imp__sin                 0045f430     ucrtd:ucrtbased.dll
 0004:00000434       __imp__cos                 0045f434     ucrtd:ucrtbased.dll
 0004:00000438       __imp__atan                0045f438     ucrtd:ucrtbased.dll
 0004:0000043c       __imp__rand                0045f43c     ucrtd:ucrtbased.dll
 0004:00000440       __imp__strlen              0045f440     ucrtd:ucrtbased.dll
 0004:00000444       __imp____stdio_common_vfprintf 0045f444     ucrtd:ucrtbased.dll
 0004:00000448       __imp____acrt_iob_func     0045f448     ucrtd:ucrtbased.dll
 0004:0000044c       __imp___CrtDbgReport       0045f44c     ucrtd:ucrtbased.dll
 0004:00000450       __imp___invalid_parameter  0045f450     ucrtd:ucrtbased.dll
 0004:00000454       __imp___initialize_narrow_environment 0045f454     ucrtd:ucrtbased.dll
 0004:00000458       \177ucrtbased_NULL_THUNK_DATA 0045f458     ucrtd:ucrtbased.dll
 0004:000004b8       __IMPORT_DESCRIPTOR_SDL2   0045f4b8     SDL2:SDL2.dll
 0004:000004cc       __IMPORT_DESCRIPTOR_SDL2_image 0045f4cc     SDL2_image:SDL2_image.dll
 0004:000004e0       __IMPORT_DESCRIPTOR_SDL2_ttf 0045f4e0     SDL2_ttf:SDL2_ttf.dll
 0004:000004f4       __IMPORT_DESCRIPTOR_MSVCP140D 0045f4f4     msvcprtd:MSVCP140D.dll
 0004:00000508       __IMPORT_DESCRIPTOR_VCRUNTIME140D 0045f508     vcruntimed:VCRUNTIME140D.dll
 0004:0000051c       __IMPORT_DESCRIPTOR_ucrtbased 0045f51c     ucrtd:ucrtbased.dll
 0004:00000530       __IMPORT_DESCRIPTOR_KERNEL32 0045f530     kernel32:KERNEL32.dll
 0004:00000544       __NULL_IMPORT_DESCRIPTOR   0045f544     SDL2:SDL2.dll
 0005:00000000       ___guard_check_icall_fptr  00462000     MSVCRTD:guard_support.obj
 0005:00000004       ___guard_xfg_check_icall_fptr 00462004     MSVCRTD:guard_support.obj
 0005:00000008       ___castguard_check_failure_os_handled_fptr 00462008     MSVCRTD:guard_support.obj

 entry point at        0001:0000009b

 Static symbols

 0002:fffb4000       __ehfuncinfo$??$_Deallocate@$07$0A@@std@@YAXPAXI@Z 00400000     BaseEngine.obj
 0002:fffb4000       __ehfuncinfo$??$_Deallocate_plain@V?$allocator@U_Container_proxy@std@@@std@@@std@@YAXAAV?$allocator@U_Container_proxy@std@@@0@QAU_Container_proxy@0@@Z 00400000     BaseEngine.obj
 0001:fffff000       __ehhandler$??$_Deallocate@$07$0A@@std@@YAXPAXI@Z 00400000 f   BaseEngine.obj
 0001:fffff000       __ehhandler$??$_Deallocate_plain@V?$allocator@U_Container_proxy@std@@@std@@@std@@YAXAAV?$allocator@U_Container_proxy@std@@@0@QAU_Container_proxy@0@@Z 00400000 f   BaseEngine.obj
 0001:fffff000       __unwindfunclet$??$_Uninitialized_value_construct_n@V?$allocator@PAVDisplayableObject@@@std@@@std@@YAPAPAVDisplayableObject@@PAPAV1@IAAV?$allocator@PAVDisplayableObject@@@0@@Z$0 00400000 f   BaseEngine.obj
 0002:fffb4000       __unwindtable$??$_Uninitialized_value_construct_n@V?$allocator@PAVDisplayableObject@@@std@@@std@@YAPAPAVDisplayableObject@@PAPAV1@IAAV?$allocator@PAVDisplayableObject@@@0@@Z 00400000     BaseEngine.obj
 0000:00000000       _volmd                     00400000     BaseEngine.obj
 0000:00000000       _volmd                     00400000     BaseEngine.obj
 0000:00000000       _volmd                     00400000     BaseEngine.obj
 0000:00000000       _volmd                     00400000     BaseEngine.obj
 0000:00000000       _volmd                     00400000     BaseEngine.obj
 0000:00000000       _volmd                     00400000     BaseEngine.obj
 0000:00000000       _volmd                     00400000     BaseEngine.obj
 0000:00000000       _volmd                     00400000     BaseEngine.obj
 0000:00000000       _volmd                     00400000     BaseEngine.obj
 0000:00000000       _volmd                     00400000     BaseEngine.obj
 0000:00000000       _volmd                     00400000     BaseEngine.obj
 0000:00000000       _volmd                     00400000     BaseEngine.obj
 0000:00000000       _volmd                     00400000     BaseEngine.obj
 0002:fffb4000       __catchsym$??$?6U?$char_traits@D@std@@@std@@YAAAV?$basic_ostream@DU?$char_traits@D@std@@@0@AAV10@PBD@Z$3 00400000     BouncingBall.obj
 0002:fffb4000       __ehfuncinfo$??1_Sentry_base@?$basic_ostream@DU?$char_traits@D@std@@@std@@QAE@XZ 00400000     BouncingBall.obj
 0001:fffff000       __ehhandler$??1_Sentry_base@?$basic_ostream@DU?$char_traits@D@std@@@std@@QAE@XZ 00400000 f   BouncingBall.obj
 0001:fffff000       __unwindfunclet$??$?6U?$char_traits@D@std@@@std@@YAAAV?$basic_ostream@DU?$char_traits@D@std@@@0@AAV10@PBD@Z$2 00400000 f   BouncingBall.obj
 0001:fffff000       __unwindfunclet$??0sentry@?$basic_ostream@DU?$char_traits@D@std@@@std@@QAE@AAV12@@Z$0 00400000 f   BouncingBall.obj
 0002:fffb4000       __unwindtable$??0sentry@?$basic_ostream@DU?$char_traits@D@std@@@std@@QAE@AAV12@@Z 00400000     BouncingBall.obj
 0000:00000000       _volmd                     00400000     BouncingBall.obj
 0000:00000000       _volmd                     00400000     BouncingBall.obj
 0000:00000000       _volmd                     00400000     BouncingBall.obj
 0000:00000000       _volmd                     00400000     BouncingBall.obj
 0002:fffb4000       __catchsym$??$?6U?$char_traits@D@std@@@std@@YAAAV?$basic_ostream@DU?$char_traits@D@std@@@0@AAV10@PBD@Z$3 00400000     BouncingBallMain.obj
 0002:fffb4000       __catchsym$??$_Resize_reallocate@U_Value_init_tag@std@@@?$vector@PAVDisplayableObject@@V?$allocator@PAVDisplayableObject@@@std@@@std@@AAEXIABU_Value_init_tag@1@@Z$2 00400000     BouncingBallMain.obj
 0002:fffb4000       __ehfuncinfo$??$_Deallocate@$07$0A@@std@@YAXPAXI@Z 00400000     BouncingBallMain.obj
 0002:fffb4000       __ehfuncinfo$??1_Sentry_base@?$basic_ostream@DU?$char_traits@D@std@@@std@@QAE@XZ 00400000     BouncingBallMain.obj
 0001:fffff000       __ehhandler$??$_Deallocate@$07$0A@@std@@YAXPAXI@Z 00400000 f   BouncingBallMain.obj
 0001:fffff000       __ehhandler$??$_Resize_reallocate@U_Value_init_tag@std@@@?$vector@PAVDisplayableObject@@V?$allocator@PAVDisplayableObject@@@std@@@std@@AAEXIABU_Value_init_tag@1@@Z 00400000 f   BouncingBallMain.obj
 0001:fffff000       __ehhandler$??1_Sentry_base@?$basic_ostream@DU?$char_traits@D@std@@@std@@QAE@XZ 00400000 f   BouncingBallMain.obj
 0001:fffff000       __unwindfunclet$??$?6U?$char_traits@D@std@@@std@@YAAAV?$basic_ostream@DU?$char_traits@D@std@@@0@AAV10@PBD@Z$2 00400000 f   BouncingBallMain.obj
 0001:fffff000       __unwindfunclet$??$_Uninitialized_move@PAPAVDisplayableObject@@V?$allocator@PAVDisplayableObject@@@std@@@std@@YAPAPAVDisplayableObject@@QAPAV1@0PAPAV1@AAV?$allocator@PAVDisplayableObject@@@0@@Z$0 00400000 f   BouncingBallMain.obj
 0001:fffff000       __unwindfunclet$??$_Uninitialized_value_construct_n@V?$allocator@PAVDisplayableObject@@@std@@@std@@YAPAPAVDisplayableObject@@PAPAV1@IAAV?$allocator@PAVDisplayableObject@@@0@@Z$0 00400000 f   BouncingBallMain.obj
 0001:fffff000       __unwindfunclet$??0sentry@?$basic_ostream@DU?$char_traits@D@std@@@std@@QAE@AAV12@@Z$0 00400000 f   BouncingBallMain.obj
 0001:fffff000       __unwindfunclet$?_Orphan_range_locked@?$vector@PAVDisplayableObject@@V?$allocator@PAVDisplayableObject@@@std@@@std@@ABEXPAPAVDisplayableObject@@0@Z$0 00400000 f   BouncingBallMain.obj
 0002:fffb4000       __unwindtable$??$_Uninitialized_move@PAPAVDisplayableObject@@V?$allocator@PAVDisplayableObject@@@std@@@std@@YAPAPAVDisplayableObject@@QAPAV1@0PAPAV1@AAV?$allocator@PAVDisplayableObject@@@0@@Z 00400000     BouncingBallMain.obj
 0002:fffb4000       __unwindtable$??$_Uninitialized_value_construct_n@V?$allocator@PAVDisplayableObject@@@std@@@std@@YAPAPAVDisplayableObject@@PAPAV1@IAAV?$allocator@PAVDisplayableObject@@@0@@Z 00400000     BouncingBallMain.obj
 0002:fffb4000       __unwindtable$??0sentry@?$basic_ostream@DU?$char_traits@D@std@@@std@@QAE@AAV12@@Z 00400000     BouncingBallMain.obj
 0002:fffb4000       __unwindtable$?_Orphan_range_locked@?$vector@PAVDisplayableObject@@V?$allocator@PAVDisplayableObject@@@std@@@std@@ABEXPAPAVDisplayableObject@@0@Z 00400000     BouncingBallMain.obj
 0000:00000000       _volmd                     00400000     BouncingBallMain.obj
 0000:00000000       _volmd                     00400000     BouncingBallMain.obj
 0000:00000000       _volmd                     00400000     BouncingBallMain.obj
 0000:00000000       _volmd                     00400000     BouncingBallMain.obj
 0000:00000000       _volmd                     00400000     BouncingBallMain.obj
 0000:00000000       _volmd                     00400000     BouncingBallMain.obj
 0000:00000000       _volmd                     00400000     BouncingBallMain.obj
 0000:00000000       _volmd                     00400000     BouncingBallMain.obj
 0000:00000000       _volmd                     00400000     BouncingBallMain.obj
 0000:00000000       _volmd                     00400000     BouncingBallMain.obj
 0000:00000000       _volmd                     00400000     BouncingBallMain.obj
 0000:00000000       _volmd                     00400000     BouncingBallMain.obj
 0000:00000000       _volmd                     00400000     BouncingBallMain.obj
 0000:00000000       _volmd                     00400000     BouncingBallMain.obj
 0000:00000000       _volmd                     00400000     Button.obj
 0000:00000000       _volmd                     00400000     Button.obj
 0000:00000000       _volmd                     00400000     Button.obj
 0000:00000000       _volmd                     00400000     Button.obj
 0000:00000000       _volmd                     00400000     Button.obj
 0000:00000000       _volmd                     00400000     Button.obj
 0000:00000000       _volmd                     00400000     Button.obj
 0000:00000000       _volmd                     00400000     Button.obj
 0000:00000000       _volmd                     00400000     Button.obj
 0000:00000000       _volmd                     00400000     Button.obj
 0000:00000000       _volmd                     00400000     Button.obj
 0000:00000000       _volmd                     00400000     Button.obj
 0000:00000000       _volmd                     00400000     Button.obj
 0000:00000000       _volmd                     00400000     Button.obj
 0000:00000000       _volmd                     00400000     Button.obj
 0000:00000000       _volmd                     00400000     Button.obj
 0000:00000000       _volmd                     00400000     Button.obj
 0000:00000000       _volmd                     00400000     Button.obj
 0000:00000000       _volmd                     00400000     Button.obj
 0000:00000000       _volmd                     00400000     Button.obj
 0000:00000000       _volmd                     00400000     Button.obj
 0000:00000000       _volmd                     00400000     Button.obj
 0000:00000000       _volmd                     00400000     Button.obj
 0000:00000000       _volmd                     00400000     Button.obj
 0000:00000000       _volmd                     00400000     Button.obj
 0000:00000000       _volmd                     00400000     Button.obj
 0000:00000000       _volmd                     00400000     Button.obj
 0000:00000000       _volmd                     00400000     Button.obj
 0000:00000000       _volmd                     00400000     Button.obj
 0000:00000000       _volmd                     00400000     Button.obj
 0000:00000000       _volmd                     00400000     Button.obj
 0000:00000000       _volmd                     00400000     Button.obj
 0000:00000000       _volmd                     00400000     Button.obj
 0000:00000000       _volmd                     00400000     Button.obj
 0000:00000000       _volmd                     00400000     Button.obj
 0000:00000000       _volmd                     00400000     Button.obj
 0000:00000000       _volmd                     00400000     Button.obj
 0002:fffb4000       __catchsym$??$?6U?$char_traits@D@std@@@std@@YAAAV?$basic_ostream@DU?$char_traits@D@std@@@0@AAV10@PBD@Z$3 00400000     DisplayableObject.obj
 0002:fffb4000       __ehfuncinfo$??1_Sentry_base@?$basic_ostream@DU?$char_traits@D@std@@@std@@QAE@XZ 00400000     DisplayableObject.obj
 0001:fffff000       __ehhandler$??1_Sentry_base@?$basic_ostream@DU?$char_traits@D@std@@@std@@QAE@XZ 00400000 f   DisplayableObject.obj
 0001:fffff000       __unwindfunclet$??$?6U?$char_traits@D@std@@@std@@YAAAV?$basic_ostream@DU?$char_traits@D@std@@@0@AAV10@PBD@Z$2 00400000 f   DisplayableObject.obj
 0001:fffff000       __unwindfunclet$??0sentry@?$basic_ostream@DU?$char_traits@D@std@@@std@@QAE@AAV12@@Z$0 00400000 f   DisplayableObject.obj
 0002:fffb4000       __unwindtable$??0sentry@?$basic_ostream@DU?$char_traits@D@std@@@std@@QAE@AAV12@@Z 00400000     DisplayableObject.obj
 0000:00000000       _volmd                     00400000     DisplayableObject.obj
 0000:00000000       _volmd                     00400000     DisplayableObject.obj
 0000:00000000       _volmd                     00400000     DisplayableObject.obj
 0002:fffb4000       __catchsym$??$?6U?$char_traits@D@std@@@std@@YAAAV?$basic_ostream@DU?$char_traits@D@std@@@0@AAV10@PBD@Z$3 00400000     DraggingDemo.obj
 0002:fffb4000       __catchsym$??$_Insert_string@DU?$char_traits@D@std@@I@std@@YAAAV?$basic_ostream@DU?$char_traits@D@std@@@0@AAV10@QBDI@Z$3 00400000     DraggingDemo.obj
 0002:fffb4000       __ehfuncinfo$??$_Deallocate@$07$0A@@std@@YAXPAXI@Z 00400000     DraggingDemo.obj
 0002:fffb4000       __ehfuncinfo$??$_Deallocate_plain@V?$allocator@U_Container_proxy@std@@@std@@@std@@YAXAAV?$allocator@U_Container_proxy@std@@@0@QAU_Container_proxy@0@@Z 00400000     DraggingDemo.obj
 0002:fffb4000       __ehfuncinfo$??$_Freenode0@V?$allocator@U?$_Tree_node@U?$pair@$$CBV?$basic_string@DU?$char_traits@D@std@@V?$allocator@D@2@@std@@V?$weak_ptr@VRawImageData@@@2@@std@@PAX@std@@@std@@@?$_Tree_node@U?$pair@$$CBV?$basic_string@DU?$char_traits@D@std@@V?$allocator@D@2@@std@@V?$weak_ptr@VRawImageData@@@2@@std@@PAX@std@@SAXAAV?$allocator@U?$_Tree_node@U?$pair@$$CBV?$basic_string@DU?$char_traits@D@std@@V?$allocator@D@2@@std@@V?$weak_ptr@VRawImageData@@@2@@std@@PAX@std@@@1@PAU01@@Z 00400000     DraggingDemo.obj
 0002:fffb4000       __ehfuncinfo$??$_Freenode@V?$allocator@U?$_Tree_node@U?$pair@$$CBV?$basic_string@DU?$char_traits@D@std@@V?$allocator@D@2@@std@@V?$weak_ptr@VRawImageData@@@2@@std@@PAX@std@@@std@@@?$_Tree_node@U?$pair@$$CBV?$basic_string@DU?$char_traits@D@std@@V?$allocator@D@2@@std@@V?$weak_ptr@VRawImageData@@@2@@std@@PAX@std@@SAXAAV?$allocator@U?$_Tree_node@U?$pair@$$CBV?$basic_string@DU?$char_traits@D@std@@V?$allocator@D@2@@std@@V?$weak_ptr@VRawImageData@@@2@@std@@PAX@std@@@1@PAU01@@Z 00400000     DraggingDemo.obj
 0002:fffb4000       __ehfuncinfo$??0?$basic_string@DU?$char_traits@D@std@@V?$allocator@D@2@@std@@QAE@$$QAV01@@Z 00400000     DraggingDemo.obj
 0002:fffb4000       __ehfuncinfo$??1?$_Alloc_construct_ptr@V?$allocator@U?$_Tree_node@U?$pair@$$CBV?$basic_string@DU?$char_traits@D@std@@V?$allocator@D@2@@std@@V?$shared_ptr@VRawImageData@@@2@@std@@PAX@std@@@std@@@std@@QAE@XZ 00400000     DraggingDemo.obj
 0002:fffb4000       __ehfuncinfo$??1?$_Alloc_construct_ptr@V?$allocator@U?$_Tree_node@U?$pair@$$CBV?$basic_string@DU?$char_traits@D@std@@V?$allocator@D@2@@std@@V?$weak_ptr@VRawImageData@@@2@@std@@PAX@std@@@std@@@std@@QAE@XZ 00400000     DraggingDemo.obj
 0002:fffb4000       __ehfuncinfo$??1?$_Tree_temp_node@V?$allocator@U?$_Tree_node@U?$pair@$$CBV?$basic_string@DU?$char_traits@D@std@@V?$allocator@D@2@@std@@V?$shared_ptr@VRawImageData@@@2@@std@@PAX@std@@@std@@@std@@QAE@XZ 00400000     DraggingDemo.obj
 0002:fffb4000       __ehfuncinfo$??1?$_Tree_temp_node@V?$allocator@U?$_Tree_node@U?$pair@$$CBV?$basic_string@DU?$char_traits@D@std@@V?$allocator@D@2@@std@@V?$weak_ptr@VRawImageData@@@2@@std@@PAX@std@@@std@@@std@@QAE@XZ 00400000     DraggingDemo.obj
 0002:fffb4000       __ehfuncinfo$??1RawImageData@@QAE@XZ 00400000     DraggingDemo.obj
 0002:fffb4000       __ehfuncinfo$??1_Sentry_base@?$basic_ostream@DU?$char_traits@D@std@@@std@@QAE@XZ 00400000     DraggingDemo.obj
 0002:fffb4000       __ehfuncinfo$?_Deallocate_for_capacity@?$basic_string@DU?$char_traits@D@std@@V?$allocator@D@2@@std@@CAXAAV?$allocator@D@2@QADI@Z 00400000     DraggingDemo.obj
 0002:fffb4000       __ehfuncinfo$?getImagePtrbyURL@ImageManager@@QAE?AV?$shared_ptr@VRawImageData@@@std@@V?$basic_string@DU?$char_traits@D@std@@V?$allocator@D@2@@3@_N1@Z 00400000     DraggingDemo.obj
 0001:fffff000       __ehhandler$??$_Deallocate@$07$0A@@std@@YAXPAXI@Z 00400000 f   DraggingDemo.obj
 0001:fffff000       __ehhandler$??$_Deallocate_plain@V?$allocator@U_Container_proxy@std@@@std@@@std@@YAXAAV?$allocator@U_Container_proxy@std@@@0@QAU_Container_proxy@0@@Z 00400000 f   DraggingDemo.obj
 0001:fffff000       __ehhandler$??$_Freenode0@V?$allocator@U?$_Tree_node@U?$pair@$$CBV?$basic_string@DU?$char_traits@D@std@@V?$allocator@D@2@@std@@V?$weak_ptr@VRawImageData@@@2@@std@@PAX@std@@@std@@@?$_Tree_node@U?$pair@$$CBV?$basic_string@DU?$char_traits@D@std@@V?$allocator@D@2@@std@@V?$weak_ptr@VRawImageData@@@2@@std@@PAX@std@@SAXAAV?$allocator@U?$_Tree_node@U?$pair@$$CBV?$basic_string@DU?$char_traits@D@std@@V?$allocator@D@2@@std@@V?$weak_ptr@VRawImageData@@@2@@std@@PAX@std@@@1@PAU01@@Z 00400000 f   DraggingDemo.obj
 0001:fffff000       __ehhandler$??$_Freenode@V?$allocator@U?$_Tree_node@U?$pair@$$CBV?$basic_string@DU?$char_traits@D@std@@V?$allocator@D@2@@std@@V?$weak_ptr@VRawImageData@@@2@@std@@PAX@std@@@std@@@?$_Tree_node@U?$pair@$$CBV?$basic_string@DU?$char_traits@D@std@@V?$allocator@D@2@@std@@V?$weak_ptr@VRawImageData@@@2@@std@@PAX@std@@SAXAAV?$allocator@U?$_Tree_node@U?$pair@$$CBV?$basic_string@DU?$char_traits@D@std@@V?$allocator@D@2@@std@@V?$weak_ptr@VRawImageData@@@2@@std@@PAX@std@@@1@PAU01@@Z 00400000 f   DraggingDemo.obj
 0001:fffff000       __ehhandler$??0?$basic_string@DU?$char_traits@D@std@@V?$allocator@D@2@@std@@QAE@$$QAV01@@Z 00400000 f   DraggingDemo.obj
 0001:fffff000       __ehhandler$??1?$_Alloc_construct_ptr@V?$allocator@U?$_Tree_node@U?$pair@$$CBV?$basic_string@DU?$char_traits@D@std@@V?$allocator@D@2@@std@@V?$shared_ptr@VRawImageData@@@2@@std@@PAX@std@@@std@@@std@@QAE@XZ 00400000 f   DraggingDemo.obj
 0001:fffff000       __ehhandler$??1?$_Alloc_construct_ptr@V?$allocator@U?$_Tree_node@U?$pair@$$CBV?$basic_string@DU?$char_traits@D@std@@V?$allocator@D@2@@std@@V?$weak_ptr@VRawImageData@@@2@@std@@PAX@std@@@std@@@std@@QAE@XZ 00400000 f   DraggingDemo.obj
 0001:fffff000       __ehhandler$??1?$_Tree_temp_node@V?$allocator@U?$_Tree_node@U?$pair@$$CBV?$basic_string@DU?$char_traits@D@std@@V?$allocator@D@2@@std@@V?$shared_ptr@VRawImageData@@@2@@std@@PAX@std@@@std@@@std@@QAE@XZ 00400000 f   DraggingDemo.obj
 0001:fffff000       __ehhandler$??1?$_Tree_temp_node@V?$allocator@U?$_Tree_node@U?$pair@$$CBV?$basic_string@DU?$char_traits@D@std@@V?$allocator@D@2@@std@@V?$weak_ptr@VRawImageData@@@2@@std@@PAX@std@@@std@@@std@@QAE@XZ 00400000 f   DraggingDemo.obj
 0001:fffff000       __ehhandler$??1RawImageData@@QAE@XZ 00400000 f   DraggingDemo.obj
 0001:fffff000       __ehhandler$??1_Sentry_base@?$basic_ostream@DU?$char_traits@D@std@@@std@@QAE@XZ 00400000 f   DraggingDemo.obj
 0001:fffff000       __ehhandler$?_Deallocate_for_capacity@?$basic_string@DU?$char_traits@D@std@@V?$allocator@D@2@@std@@CAXAAV?$allocator@D@2@QADI@Z 00400000 f   DraggingDemo.obj
 0001:fffff000       __unwindfunclet$??$?0U?$pair@V?$basic_string@DU?$char_traits@D@std@@V?$allocator@D@2@@std@@V?$shared_ptr@VRawImageData@@@2@@std@@@?$_Tree_temp_node@V?$allocator@U?$_Tree_node@U?$pair@$$CBV?$basic_string@DU?$char_traits@D@std@@V?$allocator@D@2@@std@@V?$shared_ptr@VRawImageData@@@2@@std@@PAX@std@@@std@@@std@@QAE@AAV?$allocator@U?$_Tree_node@U?$pair@$$CBV?$basic_string@DU?$char_traits@D@std@@V?$allocator@D@2@@std@@V?$shared_ptr@VRawImageData@@@2@@std@@PAX@std@@@1@PAU?$_Tree_node@U?$pair@$$CBV?$basic_string@DU?$char_traits@D@std@@V?$allocator@D@2@@std@@V?$shared_ptr@VRawImageData@@@2@@std@@PAX@1@$$QAU?$pair@V?$basic_string@DU?$char_traits@D@std@@V?$allocator@D@2@@std@@V?$shared_ptr@VRawImageData@@@2@@1@@Z$0 00400000 f   DraggingDemo.obj
 0001:fffff000       __unwindfunclet$??$?0U?$pair@V?$basic_string@DU?$char_traits@D@std@@V?$allocator@D@2@@std@@V?$weak_ptr@VRawImageData@@@2@@std@@@?$_Tree_temp_node@V?$allocator@U?$_Tree_node@U?$pair@$$CBV?$basic_string@DU?$char_traits@D@std@@V?$allocator@D@2@@std@@V?$weak_ptr@VRawImageData@@@2@@std@@PAX@std@@@std@@@std@@QAE@AAV?$allocator@U?$_Tree_node@U?$pair@$$CBV?$basic_string@DU?$char_traits@D@std@@V?$allocator@D@2@@std@@V?$weak_ptr@VRawImageData@@@2@@std@@PAX@std@@@1@PAU?$_Tree_node@U?$pair@$$CBV?$basic_string@DU?$char_traits@D@std@@V?$allocator@D@2@@std@@V?$weak_ptr@VRawImageData@@@2@@std@@PAX@1@$$QAU?$pair@V?$basic_string@DU?$char_traits@D@std@@V?$allocator@D@2@@std@@V?$weak_ptr@VRawImageData@@@2@@1@@Z$0 00400000 f   DraggingDemo.obj
 0001:fffff000       __unwindfunclet$??$?0VRawImageData@@$0A@@?$shared_ptr@VRawImageData@@@std@@QAE@PAVRawImageData@@@Z$0 00400000 f   DraggingDemo.obj
 0001:fffff000       __unwindfunclet$??$?6U?$char_traits@D@std@@@std@@YAAAV?$basic_ostream@DU?$char_traits@D@std@@@0@AAV10@PBD@Z$2 00400000 f   DraggingDemo.obj
 0001:fffff000       __unwindfunclet$??$_Construct@$00PBD@?$basic_string@DU?$char_traits@D@std@@V?$allocator@D@2@@std@@AAEXQBDI@Z$0 00400000 f   DraggingDemo.obj
 0001:fffff000       __unwindfunclet$??$_Construct@$01PBD@?$basic_string@DU?$char_traits@D@std@@V?$allocator@D@2@@std@@AAEXQBDI@Z$0 00400000 f   DraggingDemo.obj
 0001:fffff000       __unwindfunclet$??$_Insert_string@DU?$char_traits@D@std@@I@std@@YAAAV?$basic_ostream@DU?$char_traits@D@std@@@0@AAV10@QBDI@Z$2 00400000 f   DraggingDemo.obj
 0001:fffff000       __unwindfunclet$??0?$_Tree_temp_node_alloc@V?$allocator@U?$_Tree_node@U?$pair@$$CBV?$basic_string@DU?$char_traits@D@std@@V?$allocator@D@2@@std@@V?$shared_ptr@VRawImageData@@@2@@std@@PAX@std@@@std@@@std@@QAE@AAV?$allocator@U?$_Tree_node@U?$pair@$$CBV?$basic_string@DU?$char_traits@D@std@@V?$allocator@D@2@@std@@V?$shared_ptr@VRawImageData@@@2@@std@@PAX@std@@@1@@Z$0 00400000 f   DraggingDemo.obj
 0001:fffff000       __unwindfunclet$??0?$_Tree_temp_node_alloc@V?$allocator@U?$_Tree_node@U?$pair@$$CBV?$basic_string@DU?$char_traits@D@std@@V?$allocator@D@2@@std@@V?$weak_ptr@VRawImageData@@@2@@std@@PAX@std@@@std@@@std@@QAE@AAV?$allocator@U?$_Tree_node@U?$pair@$$CBV?$basic_string@DU?$char_traits@D@std@@V?$allocator@D@2@@std@@V?$weak_ptr@VRawImageData@@@2@@std@@PAX@std@@@1@@Z$0 00400000 f   DraggingDemo.obj
 0001:fffff000       __unwindfunclet$??0?$basic_string@DU?$char_traits@D@std@@V?$allocator@D@2@@std@@QAE@ABV01@@Z$0 00400000 f   DraggingDemo.obj
 0001:fffff000       __unwindfunclet$??0?$basic_string@DU?$char_traits@D@std@@V?$allocator@D@2@@std@@QAE@QBD@Z$0 00400000 f   DraggingDemo.obj
 0001:fffff000       __unwindfunclet$??0ImageManager@@QAE@XZ$0 00400000 f   DraggingDemo.obj
 0001:fffff000       __unwindfunclet$??0RawImageData@@QAE@V?$basic_string@DU?$char_traits@D@std@@V?$allocator@D@2@@std@@@Z$0 00400000 f   DraggingDemo.obj
 0001:fffff000       __unwindfunclet$??0sentry@?$basic_ostream@DU?$char_traits@D@std@@@std@@QAE@AAV12@@Z$0 00400000 f   DraggingDemo.obj
 0001:fffff000       __unwindfunclet$?_Alloc_sentinel_and_proxy@?$_Tree@V?$_Tmap_traits@V?$basic_string@DU?$char_traits@D@std@@V?$allocator@D@2@@std@@V?$shared_ptr@VRawImageData@@@2@U?$less@V?$basic_string@DU?$char_traits@D@std@@V?$allocator@D@2@@std@@@2@V?$allocator@U?$pair@$$CBV?$basic_string@DU?$char_traits@D@std@@V?$allocator@D@2@@std@@V?$shared_ptr@VRawImageData@@@2@@std@@@2@$0A@@std@@@std@@IAEXXZ$0 00400000 f   DraggingDemo.obj
 0001:fffff000       __unwindfunclet$?_Alloc_sentinel_and_proxy@?$_Tree@V?$_Tmap_traits@V?$basic_string@DU?$char_traits@D@std@@V?$allocator@D@2@@std@@V?$weak_ptr@VRawImageData@@@2@U?$less@V?$basic_string@DU?$char_traits@D@std@@V?$allocator@D@2@@std@@@2@V?$allocator@U?$pair@$$CBV?$basic_string@DU?$char_traits@D@std@@V?$allocator@D@2@@std@@V?$weak_ptr@VRawImageData@@@2@@std@@@2@$0A@@std@@@std@@IAEXXZ$0 00400000 f   DraggingDemo.obj
 0001:fffff000       __unwindfunclet$?get@ImageManager@@SAPAV1@XZ$0 00400000 f   DraggingDemo.obj
 0001:fffff000       __unwindfunclet$?getImagePtrbyURL@ImageManager@@QAE?AV?$shared_ptr@VRawImageData@@@std@@V?$basic_string@DU?$char_traits@D@std@@V?$allocator@D@2@@3@_N1@Z$0 00400000 f   DraggingDemo.obj
 0001:fffff000       __unwindfunclet$?getImagebyURL@ImageManager@@QAE?AVSimpleImage@@V?$basic_string@DU?$char_traits@D@std@@V?$allocator@D@2@@std@@_N1@Z$0 00400000 f   DraggingDemo.obj
 0001:fffff000       __unwindfunclet$?loadAsNew@ImageManager@@QAE?AV?$shared_ptr@VRawImageData@@@std@@V?$basic_string@DU?$char_traits@D@std@@V?$allocator@D@2@@3@@Z$0 00400000 f   DraggingDemo.obj
 0001:fffff000       __unwindfunclet$?loadImage@RawImageData@@QAE_NV?$basic_string@DU?$char_traits@D@std@@V?$allocator@D@2@@std@@HHHHH_N@Z$0 00400000 f   DraggingDemo.obj
 0002:fffb4000       __unwindtable$??$?0U?$pair@V?$basic_string@DU?$char_traits@D@std@@V?$allocator@D@2@@std@@V?$shared_ptr@VRawImageData@@@2@@std@@@?$_Tree_temp_node@V?$allocator@U?$_Tree_node@U?$pair@$$CBV?$basic_string@DU?$char_traits@D@std@@V?$allocator@D@2@@std@@V?$shared_ptr@VRawImageData@@@2@@std@@PAX@std@@@std@@@std@@QAE@AAV?$allocator@U?$_Tree_node@U?$pair@$$CBV?$basic_string@DU?$char_traits@D@std@@V?$allocator@D@2@@std@@V?$shared_ptr@VRawImageData@@@2@@std@@PAX@std@@@1@PAU?$_Tree_node@U?$pair@$$CBV?$basic_string@DU?$char_traits@D@std@@V?$allocator@D@2@@std@@V?$shared_ptr@VRawImageData@@@2@@std@@PAX@1@$$QAU?$pair@V?$basic_string@DU?$char_traits@D@std@@V?$allocator@D@2@@std@@V?$shared_ptr@VRawImageData@@@2@@1@@Z 00400000     DraggingDemo.obj
 0002:fffb4000       __unwindtable$??$?0U?$pair@V?$basic_string@DU?$char_traits@D@std@@V?$allocator@D@2@@std@@V?$weak_ptr@VRawImageData@@@2@@std@@@?$_Tree_temp_node@V?$allocator@U?$_Tree_node@U?$pair@$$CBV?$basic_string@DU?$char_traits@D@std@@V?$allocator@D@2@@std@@V?$weak_ptr@VRawImageData@@@2@@std@@PAX@std@@@std@@@std@@QAE@AAV?$allocator@U?$_Tree_node@U?$pair@$$CBV?$basic_string@DU?$char_traits@D@std@@V?$allocator@D@2@@std@@V?$weak_ptr@VRawImageData@@@2@@std@@PAX@std@@@1@PAU?$_Tree_node@U?$pair@$$CBV?$basic_string@DU?$char_traits@D@std@@V?$allocator@D@2@@std@@V?$weak_ptr@VRawImageData@@@2@@std@@PAX@1@$$QAU?$pair@V?$basic_string@DU?$char_traits@D@std@@V?$allocator@D@2@@std@@V?$weak_ptr@VRawImageData@@@2@@1@@Z 00400000     DraggingDemo.obj
 0002:fffb4000       __unwindtable$??$?0VRawImageData@@$0A@@?$shared_ptr@VRawImageData@@@std@@QAE@PAVRawImageData@@@Z 00400000     DraggingDemo.obj
 0002:fffb4000       __unwindtable$??$_Construct@$00PBD@?$basic_string@DU?$char_traits@D@std@@V?$allocator@D@2@@std@@AAEXQBDI@Z 00400000     DraggingDemo.obj
 0002:fffb4000       __unwindtable$??$_Construct@$01PBD@?$basic_string@DU?$char_traits@D@std@@V?$allocator@D@2@@std@@AAEXQBDI@Z 00400000     DraggingDemo.obj
 0002:fffb4000       __unwindtable$??0?$_Tree_temp_node_alloc@V?$allocator@U?$_Tree_node@U?$pair@$$CBV?$basic_string@DU?$char_traits@D@std@@V?$allocator@D@2@@std@@V?$shared_ptr@VRawImageData@@@2@@std@@PAX@std@@@std@@@std@@QAE@AAV?$allocator@U?$_Tree_node@U?$pair@$$CBV?$basic_string@DU?$char_traits@D@std@@V?$allocator@D@2@@std@@V?$shared_ptr@VRawImageData@@@2@@std@@PAX@std@@@1@@Z 00400000     DraggingDemo.obj
 0002:fffb4000       __unwindtable$??0?$_Tree_temp_node_alloc@V?$allocator@U?$_Tree_node@U?$pair@$$CBV?$basic_string@DU?$char_traits@D@std@@V?$allocator@D@2@@std@@V?$weak_ptr@VRawImageData@@@2@@std@@PAX@std@@@std@@@std@@QAE@AAV?$allocator@U?$_Tree_node@U?$pair@$$CBV?$basic_string@DU?$char_traits@D@std@@V?$allocator@D@2@@std@@V?$weak_ptr@VRawImageData@@@2@@std@@PAX@std@@@1@@Z 00400000     DraggingDemo.obj
 0002:fffb4000       __unwindtable$??0?$basic_string@DU?$char_traits@D@std@@V?$allocator@D@2@@std@@QAE@ABV01@@Z 00400000     DraggingDemo.obj
 0002:fffb4000       __unwindtable$??0?$basic_string@DU?$char_traits@D@std@@V?$allocator@D@2@@std@@QAE@QBD@Z 00400000     DraggingDemo.obj
 0002:fffb4000       __unwindtable$??0ImageManager@@QAE@XZ 00400000     DraggingDemo.obj
 0002:fffb4000       __unwindtable$??0RawImageData@@QAE@V?$basic_string@DU?$char_traits@D@std@@V?$allocator@D@2@@std@@@Z 00400000     DraggingDemo.obj
 0002:fffb4000       __unwindtable$??0sentry@?$basic_ostream@DU?$char_traits@D@std@@@std@@QAE@AAV12@@Z 00400000     DraggingDemo.obj
 0002:fffb4000       __unwindtable$?_Alloc_sentinel_and_proxy@?$_Tree@V?$_Tmap_traits@V?$basic_string@DU?$char_traits@D@std@@V?$allocator@D@2@@std@@V?$shared_ptr@VRawImageData@@@2@U?$less@V?$basic_string@DU?$char_traits@D@std@@V?$allocator@D@2@@std@@@2@V?$allocator@U?$pair@$$CBV?$basic_string@DU?$char_traits@D@std@@V?$allocator@D@2@@std@@V?$shared_ptr@VRawImageData@@@2@@std@@@2@$0A@@std@@@std@@IAEXXZ 00400000     DraggingDemo.obj
 0002:fffb4000       __unwindtable$?_Alloc_sentinel_and_proxy@?$_Tree@V?$_Tmap_traits@V?$basic_string@DU?$char_traits@D@std@@V?$allocator@D@2@@std@@V?$weak_ptr@VRawImageData@@@2@U?$less@V?$basic_string@DU?$char_traits@D@std@@V?$allocator@D@2@@std@@@2@V?$allocator@U?$pair@$$CBV?$basic_string@DU?$char_traits@D@std@@V?$allocator@D@2@@std@@V?$weak_ptr@VRawImageData@@@2@@std@@@2@$0A@@std@@@std@@IAEXXZ 00400000     DraggingDemo.obj
 0002:fffb4000       __unwindtable$?get@ImageManager@@SAPAV1@XZ 00400000     DraggingDemo.obj
 0002:fffb4000       __unwindtable$?getImagebyURL@ImageManager@@QAE?AVSimpleImage@@V?$basic_string@DU?$char_traits@D@std@@V?$allocator@D@2@@std@@_N1@Z 00400000     DraggingDemo.obj
 0002:fffb4000       __unwindtable$?loadAsNew@ImageManager@@QAE?AV?$shared_ptr@VRawImageData@@@std@@V?$basic_string@DU?$char_traits@D@std@@V?$allocator@D@2@@3@@Z 00400000     DraggingDemo.obj
 0002:fffb4000       __unwindtable$?loadImage@RawImageData@@QAE_NV?$basic_string@DU?$char_traits@D@std@@V?$allocator@D@2@@std@@HHHHH_N@Z 00400000     DraggingDemo.obj
 0000:00000000       _volmd                     00400000     DraggingDemo.obj
 0000:00000000       _volmd                     00400000     DraggingDemo.obj
 0000:00000000       _volmd                     00400000     DraggingDemo.obj
 0000:00000000       _volmd                     00400000     DraggingDemo.obj
 0000:00000000       _volmd                     00400000     DraggingDemo.obj
 0000:00000000       _volmd                     00400000     DraggingDemo.obj
 0000:00000000       _volmd                     00400000     DraggingDemo.obj
 0000:00000000       _volmd                     00400000     DraggingDemo.obj
 0000:00000000       _volmd                     00400000     DraggingDemo.obj
 0000:00000000       _volmd                     00400000     DraggingDemo.obj
 0000:00000000       _volmd                     00400000     DraggingDemo.obj
 0000:00000000       _volmd                     00400000     DraggingDemo.obj
 0000:00000000       _volmd                     00400000     DraggingDemo.obj
 0000:00000000       _volmd                     00400000     DraggingDemo.obj
 0000:00000000       _volmd                     00400000     DraggingDemo.obj
 0000:00000000       _volmd                     00400000     DraggingDemo.obj
 0000:00000000       _volmd                     00400000     DraggingDemo.obj
 0000:00000000       _volmd                     00400000     DraggingDemo.obj
 0000:00000000       _volmd                     00400000     DraggingDemo.obj
 0000:00000000       _volmd                     00400000     DraggingDemo.obj
 0000:00000000       _volmd                     00400000     DraggingDemo.obj
 0000:00000000       _volmd                     00400000     DraggingDemo.obj
 0000:00000000       _volmd                     00400000     DraggingDemo.obj
 0000:00000000       _volmd                     00400000     DraggingDemo.obj
 0000:00000000       _volmd                     00400000     DraggingDemo.obj
 0000:00000000       _volmd                     00400000     DraggingDemo.obj
 0000:00000000       _volmd                     00400000     DraggingDemo.obj
 0000:00000000       _volmd                     00400000     DraggingDemo.obj
 0000:00000000       _volmd                     00400000     DraggingDemo.obj
 0000:00000000       _volmd                     00400000     DraggingDemo.obj
 0000:00000000       _volmd                     00400000     DraggingDemo.obj
 0000:00000000       _volmd                     00400000     DraggingDemo.obj
 0000:00000000       _volmd                     00400000     DraggingDemo.obj
 0000:00000000       _volmd                     00400000     DraggingDemo.obj
 0000:00000000       _volmd                     00400000     DraggingDemo.obj
 0000:00000000       _volmd                     00400000     DraggingDemo.obj
 0000:00000000       _volmd                     00400000     DraggingDemo.obj
 0000:00000000       _volmd                     00400000     DraggingDemo.obj
 0000:00000000       _volmd                     00400000     DraggingDemo.obj
 0000:00000000       _volmd                     00400000     DraggingDemo.obj
 0000:00000000       _volmd                     00400000     DraggingDemo.obj
 0000:00000000       _volmd                     00400000     DraggingDemo.obj
 0000:00000000       _volmd                     00400000     DraggingDemo.obj
 0000:00000000       _volmd                     00400000     DraggingDemo.obj
 0002:fffb4000       __catchsym$??$?6U?$char_traits@D@std@@@std@@YAAAV?$basic_ostream@DU?$char_traits@D@std@@@0@AAV10@PBD@Z$3 00400000     DrawingSurface.obj
 0002:fffb4000       __ehfuncinfo$??1_Sentry_base@?$basic_ostream@DU?$char_traits@D@std@@@std@@QAE@XZ 00400000     DrawingSurface.obj
 0001:fffff000       __ehhandler$??1_Sentry_base@?$basic_ostream@DU?$char_traits@D@std@@@std@@QAE@XZ 00400000 f   DrawingSurface.obj
 0001:fffff000       __unwindfunclet$??$?6U?$char_traits@D@std@@@std@@YAAAV?$basic_ostream@DU?$char_traits@D@std@@@0@AAV10@PBD@Z$2 00400000 f   DrawingSurface.obj
 0001:fffff000       __unwindfunclet$??0sentry@?$basic_ostream@DU?$char_traits@D@std@@@std@@QAE@AAV12@@Z$0 00400000 f   DrawingSurface.obj
 0002:fffb4000       __unwindtable$??0sentry@?$basic_ostream@DU?$char_traits@D@std@@@std@@QAE@AAV12@@Z 00400000     DrawingSurface.obj
 0000:00000000       _volmd                     00400000     DrawingSurface.obj
 0000:00000000       _volmd                     00400000     DrawingSurface.obj
 0000:00000000       _volmd                     00400000     DrawingSurface.obj
 0000:00000000       _volmd                     00400000     DrawingSurface.obj
 0002:fffb4000       __ehfuncinfo$??$_Deallocate@$07$0A@@std@@YAXPAXI@Z 00400000     EnemySpawner.obj
 0001:fffff000       __ehhandler$??$_Deallocate@$07$0A@@std@@YAXPAXI@Z 00400000 f   EnemySpawner.obj
 0001:fffff000       __unwindfunclet$??$_Uninitialized_move@PAPAVDisplayableObject@@V?$allocator@PAVDisplayableObject@@@std@@@std@@YAPAPAVDisplayableObject@@QAPAV1@0PAPAV1@AAV?$allocator@PAVDisplayableObject@@@0@@Z$0 00400000 f   EnemySpawner.obj
 0001:fffff000       __unwindfunclet$?_Orphan_range_locked@?$vector@PAVDisplayableObject@@V?$allocator@PAVDisplayableObject@@@std@@@std@@ABEXPAPAVDisplayableObject@@0@Z$0 00400000 f   EnemySpawner.obj
 0002:fffb4000       __unwindtable$??$_Uninitialized_move@PAPAVDisplayableObject@@V?$allocator@PAVDisplayableObject@@@std@@@std@@YAPAPAVDisplayableObject@@QAPAV1@0PAPAV1@AAV?$allocator@PAVDisplayableObject@@@0@@Z 00400000     EnemySpawner.obj
 0002:fffb4000       __unwindtable$?_Orphan_range_locked@?$vector@PAVDisplayableObject@@V?$allocator@PAVDisplayableObject@@@std@@@std@@ABEXPAPAVDisplayableObject@@0@Z 00400000     EnemySpawner.obj
 0000:00000000       _volmd                     00400000     EnemySpawner.obj
 0000:00000000       _volmd                     00400000     EnemySpawner.obj
 0000:00000000       _volmd                     00400000     EnemySpawner.obj
 0000:00000000       _volmd                     00400000     EnemySpawner.obj
 0000:00000000       _volmd                     00400000     EnemySpawner.obj
 0002:fffb4000       __catchsym$??$?6U?$char_traits@D@std@@@std@@YAAAV?$basic_ostream@DU?$char_traits@D@std@@@0@AAV10@PBD@Z$3 00400000     FlashingDemo.obj
 0002:fffb4000       __ehfuncinfo$??1_Sentry_base@?$basic_ostream@DU?$char_traits@D@std@@@std@@QAE@XZ 00400000     FlashingDemo.obj
 0001:fffff000       __ehhandler$??1_Sentry_base@?$basic_ostream@DU?$char_traits@D@std@@@std@@QAE@XZ 00400000 f   FlashingDemo.obj
 0001:fffff000       __unwindfunclet$??$?6U?$char_traits@D@std@@@std@@YAAAV?$basic_ostream@DU?$char_traits@D@std@@@0@AAV10@PBD@Z$2 00400000 f   FlashingDemo.obj
 0001:fffff000       __unwindfunclet$??0sentry@?$basic_ostream@DU?$char_traits@D@std@@@std@@QAE@AAV12@@Z$0 00400000 f   FlashingDemo.obj
 0002:fffb4000       __unwindtable$??0sentry@?$basic_ostream@DU?$char_traits@D@std@@@std@@QAE@AAV12@@Z 00400000     FlashingDemo.obj
 0000:00000000       _volmd                     00400000     FlashingDemo.obj
 0000:00000000       _volmd                     00400000     FlashingDemo.obj
 0000:00000000       _volmd                     00400000     FlashingDemo.obj
 0000:00000000       _volmd                     00400000     FlashingDemo.obj
 0000:00000000       _volmd                     00400000     FlashingDemo.obj
 0000:00000000       _volmd                     00400000     FontManager.obj
 0002:fffb4000       __catchsym$??$?6U?$char_traits@D@std@@@std@@YAAAV?$basic_ostream@DU?$char_traits@D@std@@@0@AAV10@PBD@Z$3 00400000     GameEngine.obj
 0002:fffb4000       __catchsym$??$_Emplace_reallocate@ABQAVDisplayableObject@@@?$vector@PAVDisplayableObject@@V?$allocator@PAVDisplayableObject@@@std@@@std@@AAEPAPAVDisplayableObject@@QAPAV2@ABQAV2@@Z$2 00400000     GameEngine.obj
 0002:fffb4000       __catchsym$??$_Insert_string@DU?$char_traits@D@std@@I@std@@YAAAV?$basic_ostream@DU?$char_traits@D@std@@@0@AAV10@QBDI@Z$3 00400000     GameEngine.obj
 0002:fffb4000       __catchsym$??$_Resize_reallocate@U_Value_init_tag@std@@@?$vector@PAVDisplayableObject@@V?$allocator@PAVDisplayableObject@@@std@@@std@@AAEXIABU_Value_init_tag@1@@Z$2 00400000     GameEngine.obj
 0002:fffb4000       __ehfuncinfo$??$_Deallocate@$07$0A@@std@@YAXPAXI@Z 00400000     GameEngine.obj
 0002:fffb4000       __ehfuncinfo$??$_Deallocate_plain@V?$allocator@U_Container_proxy@std@@@std@@@std@@YAXAAV?$allocator@U_Container_proxy@std@@@0@QAU_Container_proxy@0@@Z 00400000     GameEngine.obj
 0002:fffb4000       __ehfuncinfo$??$_Freenode0@V?$allocator@U?$_Tree_node@U?$pair@$$CBV?$basic_string@DU?$char_traits@D@std@@V?$allocator@D@2@@std@@V?$weak_ptr@VRawImageData@@@2@@std@@PAX@std@@@std@@@?$_Tree_node@U?$pair@$$CBV?$basic_string@DU?$char_traits@D@std@@V?$allocator@D@2@@std@@V?$weak_ptr@VRawImageData@@@2@@std@@PAX@std@@SAXAAV?$allocator@U?$_Tree_node@U?$pair@$$CBV?$basic_string@DU?$char_traits@D@std@@V?$allocator@D@2@@std@@V?$weak_ptr@VRawImageData@@@2@@std@@PAX@std@@@1@PAU01@@Z 00400000     GameEngine.obj
 0002:fffb4000       __ehfuncinfo$??$_Freenode@V?$allocator@U?$_Tree_node@U?$pair@$$CBV?$basic_string@DU?$char_traits@D@std@@V?$allocator@D@2@@std@@V?$weak_ptr@VRawImageData@@@2@@std@@PAX@std@@@std@@@?$_Tree_node@U?$pair@$$CBV?$basic_string@DU?$char_traits@D@std@@V?$allocator@D@2@@std@@V?$weak_ptr@VRawImageData@@@2@@std@@PAX@std@@SAXAAV?$allocator@U?$_Tree_node@U?$pair@$$CBV?$basic_string@DU?$char_traits@D@std@@V?$allocator@D@2@@std@@V?$weak_ptr@VRawImageData@@@2@@std@@PAX@std@@@1@PAU01@@Z 00400000     GameEngine.obj
 0002:fffb4000       __ehfuncinfo$??0?$basic_string@DU?$char_traits@D@std@@V?$allocator@D@2@@std@@QAE@$$QAV01@@Z 00400000     GameEngine.obj
 0002:fffb4000       __ehfuncinfo$??1?$_Alloc_construct_ptr@V?$allocator@U?$_Tree_node@U?$pair@$$CBV?$basic_string@DU?$char_traits@D@std@@V?$allocator@D@2@@std@@V?$shared_ptr@VRawImageData@@@2@@std@@PAX@std@@@std@@@std@@QAE@XZ 00400000     GameEngine.obj
 0002:fffb4000       __ehfuncinfo$??1?$_Alloc_construct_ptr@V?$allocator@U?$_Tree_node@U?$pair@$$CBV?$basic_string@DU?$char_traits@D@std@@V?$allocator@D@2@@std@@V?$weak_ptr@VRawImageData@@@2@@std@@PAX@std@@@std@@@std@@QAE@XZ 00400000     GameEngine.obj
 0002:fffb4000       __ehfuncinfo$??1?$_Tree_temp_node@V?$allocator@U?$_Tree_node@U?$pair@$$CBV?$basic_string@DU?$char_traits@D@std@@V?$allocator@D@2@@std@@V?$shared_ptr@VRawImageData@@@2@@std@@PAX@std@@@std@@@std@@QAE@XZ 00400000     GameEngine.obj
 0002:fffb4000       __ehfuncinfo$??1?$_Tree_temp_node@V?$allocator@U?$_Tree_node@U?$pair@$$CBV?$basic_string@DU?$char_traits@D@std@@V?$allocator@D@2@@std@@V?$weak_ptr@VRawImageData@@@2@@std@@PAX@std@@@std@@@std@@QAE@XZ 00400000     GameEngine.obj
 0002:fffb4000       __ehfuncinfo$??1RawImageData@@QAE@XZ 00400000     GameEngine.obj
 0002:fffb4000       __ehfuncinfo$??1_Sentry_base@?$basic_ostream@DU?$char_traits@D@std@@@std@@QAE@XZ 00400000     GameEngine.obj
 0002:fffb4000       __ehfuncinfo$?_Deallocate_for_capacity@?$basic_string@DU?$char_traits@D@std@@V?$allocator@D@2@@std@@CAXAAV?$allocator@D@2@QADI@Z 00400000     GameEngine.obj
 0002:fffb4000       __ehfuncinfo$?getImagePtrbyURL@ImageManager@@QAE?AV?$shared_ptr@VRawImageData@@@std@@V?$basic_string@DU?$char_traits@D@std@@V?$allocator@D@2@@3@_N1@Z 00400000     GameEngine.obj
 0001:fffff000       __ehhandler$??$_Deallocate@$07$0A@@std@@YAXPAXI@Z 00400000 f   GameEngine.obj
 0001:fffff000       __ehhandler$??$_Deallocate_plain@V?$allocator@U_Container_proxy@std@@@std@@@std@@YAXAAV?$allocator@U_Container_proxy@std@@@0@QAU_Container_proxy@0@@Z 00400000 f   GameEngine.obj
 0001:fffff000       __ehhandler$??$_Emplace_reallocate@ABQAVDisplayableObject@@@?$vector@PAVDisplayableObject@@V?$allocator@PAVDisplayableObject@@@std@@@std@@AAEPAPAVDisplayableObject@@QAPAV2@ABQAV2@@Z 00400000 f   GameEngine.obj
 0001:fffff000       __ehhandler$??$_Freenode0@V?$allocator@U?$_Tree_node@U?$pair@$$CBV?$basic_string@DU?$char_traits@D@std@@V?$allocator@D@2@@std@@V?$weak_ptr@VRawImageData@@@2@@std@@PAX@std@@@std@@@?$_Tree_node@U?$pair@$$CBV?$basic_string@DU?$char_traits@D@std@@V?$allocator@D@2@@std@@V?$weak_ptr@VRawImageData@@@2@@std@@PAX@std@@SAXAAV?$allocator@U?$_Tree_node@U?$pair@$$CBV?$basic_string@DU?$char_traits@D@std@@V?$allocator@D@2@@std@@V?$weak_ptr@VRawImageData@@@2@@std@@PAX@std@@@1@PAU01@@Z 00400000 f   GameEngine.obj
 0001:fffff000       __ehhandler$??$_Freenode@V?$allocator@U?$_Tree_node@U?$pair@$$CBV?$basic_string@DU?$char_traits@D@std@@V?$allocator@D@2@@std@@V?$weak_ptr@VRawImageData@@@2@@std@@PAX@std@@@std@@@?$_Tree_node@U?$pair@$$CBV?$basic_string@DU?$char_traits@D@std@@V?$allocator@D@2@@std@@V?$weak_ptr@VRawImageData@@@2@@std@@PAX@std@@SAXAAV?$allocator@U?$_Tree_node@U?$pair@$$CBV?$basic_string@DU?$char_traits@D@std@@V?$allocator@D@2@@std@@V?$weak_ptr@VRawImageData@@@2@@std@@PAX@std@@@1@PAU01@@Z 00400000 f   GameEngine.obj
 0001:fffff000       __ehhandler$??$_Resize_reallocate@U_Value_init_tag@std@@@?$vector@PAVDisplayableObject@@V?$allocator@PAVDisplayableObject@@@std@@@std@@AAEXIABU_Value_init_tag@1@@Z 00400000 f   GameEngine.obj
 0001:fffff000       __ehhandler$??0?$basic_string@DU?$char_traits@D@std@@V?$allocator@D@2@@std@@QAE@$$QAV01@@Z 00400000 f   GameEngine.obj
 0001:fffff000       __ehhandler$??1?$_Alloc_construct_ptr@V?$allocator@U?$_Tree_node@U?$pair@$$CBV?$basic_string@DU?$char_traits@D@std@@V?$allocator@D@2@@std@@V?$shared_ptr@VRawImageData@@@2@@std@@PAX@std@@@std@@@std@@QAE@XZ 00400000 f   GameEngine.obj
 0001:fffff000       __ehhandler$??1?$_Alloc_construct_ptr@V?$allocator@U?$_Tree_node@U?$pair@$$CBV?$basic_string@DU?$char_traits@D@std@@V?$allocator@D@2@@std@@V?$weak_ptr@VRawImageData@@@2@@std@@PAX@std@@@std@@@std@@QAE@XZ 00400000 f   GameEngine.obj
 0001:fffff000       __ehhandler$??1?$_Tree_temp_node@V?$allocator@U?$_Tree_node@U?$pair@$$CBV?$basic_string@DU?$char_traits@D@std@@V?$allocator@D@2@@std@@V?$shared_ptr@VRawImageData@@@2@@std@@PAX@std@@@std@@@std@@QAE@XZ 00400000 f   GameEngine.obj
 0001:fffff000       __ehhandler$??1?$_Tree_temp_node@V?$allocator@U?$_Tree_node@U?$pair@$$CBV?$basic_string@DU?$char_traits@D@std@@V?$allocator@D@2@@std@@V?$weak_ptr@VRawImageData@@@2@@std@@PAX@std@@@std@@@std@@QAE@XZ 00400000 f   GameEngine.obj
 0001:fffff000       __ehhandler$??1RawImageData@@QAE@XZ 00400000 f   GameEngine.obj
 0001:fffff000       __ehhandler$??1_Sentry_base@?$basic_ostream@DU?$char_traits@D@std@@@std@@QAE@XZ 00400000 f   GameEngine.obj
 0001:fffff000       __ehhandler$?_Deallocate_for_capacity@?$basic_string@DU?$char_traits@D@std@@V?$allocator@D@2@@std@@CAXAAV?$allocator@D@2@QADI@Z 00400000 f   GameEngine.obj
 0001:fffff000       __unwindfunclet$??$?0U?$pair@V?$basic_string@DU?$char_traits@D@std@@V?$allocator@D@2@@std@@V?$shared_ptr@VRawImageData@@@2@@std@@@?$_Tree_temp_node@V?$allocator@U?$_Tree_node@U?$pair@$$CBV?$basic_string@DU?$char_traits@D@std@@V?$allocator@D@2@@std@@V?$shared_ptr@VRawImageData@@@2@@std@@PAX@std@@@std@@@std@@QAE@AAV?$allocator@U?$_Tree_node@U?$pair@$$CBV?$basic_string@DU?$char_traits@D@std@@V?$allocator@D@2@@std@@V?$shared_ptr@VRawImageData@@@2@@std@@PAX@std@@@1@PAU?$_Tree_node@U?$pair@$$CBV?$basic_string@DU?$char_traits@D@std@@V?$allocator@D@2@@std@@V?$shared_ptr@VRawImageData@@@2@@std@@PAX@1@$$QAU?$pair@V?$basic_string@DU?$char_traits@D@std@@V?$allocator@D@2@@std@@V?$shared_ptr@VRawImageData@@@2@@1@@Z$0 00400000 f   GameEngine.obj
 0001:fffff000       __unwindfunclet$??$?0U?$pair@V?$basic_string@DU?$char_traits@D@std@@V?$allocator@D@2@@std@@V?$weak_ptr@VRawImageData@@@2@@std@@@?$_Tree_temp_node@V?$allocator@U?$_Tree_node@U?$pair@$$CBV?$basic_string@DU?$char_traits@D@std@@V?$allocator@D@2@@std@@V?$weak_ptr@VRawImageData@@@2@@std@@PAX@std@@@std@@@std@@QAE@AAV?$allocator@U?$_Tree_node@U?$pair@$$CBV?$basic_string@DU?$char_traits@D@std@@V?$allocator@D@2@@std@@V?$weak_ptr@VRawImageData@@@2@@std@@PAX@std@@@1@PAU?$_Tree_node@U?$pair@$$CBV?$basic_string@DU?$char_traits@D@std@@V?$allocator@D@2@@std@@V?$weak_ptr@VRawImageData@@@2@@std@@PAX@1@$$QAU?$pair@V?$basic_string@DU?$char_traits@D@std@@V?$allocator@D@2@@std@@V?$weak_ptr@VRawImageData@@@2@@1@@Z$0 00400000 f   GameEngine.obj
 0001:fffff000       __unwindfunclet$??$?0VRawImageData@@$0A@@?$shared_ptr@VRawImageData@@@std@@QAE@PAVRawImageData@@@Z$0 00400000 f   GameEngine.obj
 0001:fffff000       __unwindfunclet$??$?6U?$char_traits@D@std@@@std@@YAAAV?$basic_ostream@DU?$char_traits@D@std@@@0@AAV10@PBD@Z$2 00400000 f   GameEngine.obj
 0001:fffff000       __unwindfunclet$??$_Construct@$00PBD@?$basic_string@DU?$char_traits@D@std@@V?$allocator@D@2@@std@@AAEXQBDI@Z$0 00400000 f   GameEngine.obj
 0001:fffff000       __unwindfunclet$??$_Construct@$01PBD@?$basic_string@DU?$char_traits@D@std@@V?$allocator@D@2@@std@@AAEXQBDI@Z$0 00400000 f   GameEngine.obj
 0001:fffff000       __unwindfunclet$??$_Insert_string@DU?$char_traits@D@std@@I@std@@YAAAV?$basic_ostream@DU?$char_traits@D@std@@@0@AAV10@QBDI@Z$2 00400000 f   GameEngine.obj
 0001:fffff000       __unwindfunclet$??$_Uninitialized_move@PAPAVDisplayableObject@@V?$allocator@PAVDisplayableObject@@@std@@@std@@YAPAPAVDisplayableObject@@QAPAV1@0PAPAV1@AAV?$allocator@PAVDisplayableObject@@@0@@Z$0 00400000 f   GameEngine.obj
 0001:fffff000       __unwindfunclet$??$_Uninitialized_value_construct_n@V?$allocator@PAVDisplayableObject@@@std@@@std@@YAPAPAVDisplayableObject@@PAPAV1@IAAV?$allocator@PAVDisplayableObject@@@0@@Z$0 00400000 f   GameEngine.obj
 0001:fffff000       __unwindfunclet$??0?$_Tree_temp_node_alloc@V?$allocator@U?$_Tree_node@U?$pair@$$CBV?$basic_string@DU?$char_traits@D@std@@V?$allocator@D@2@@std@@V?$shared_ptr@VRawImageData@@@2@@std@@PAX@std@@@std@@@std@@QAE@AAV?$allocator@U?$_Tree_node@U?$pair@$$CBV?$basic_string@DU?$char_traits@D@std@@V?$allocator@D@2@@std@@V?$shared_ptr@VRawImageData@@@2@@std@@PAX@std@@@1@@Z$0 00400000 f   GameEngine.obj
 0001:fffff000       __unwindfunclet$??0?$_Tree_temp_node_alloc@V?$allocator@U?$_Tree_node@U?$pair@$$CBV?$basic_string@DU?$char_traits@D@std@@V?$allocator@D@2@@std@@V?$weak_ptr@VRawImageData@@@2@@std@@PAX@std@@@std@@@std@@QAE@AAV?$allocator@U?$_Tree_node@U?$pair@$$CBV?$basic_string@DU?$char_traits@D@std@@V?$allocator@D@2@@std@@V?$weak_ptr@VRawImageData@@@2@@std@@PAX@std@@@1@@Z$0 00400000 f   GameEngine.obj
 0001:fffff000       __unwindfunclet$??0?$basic_string@DU?$char_traits@D@std@@V?$allocator@D@2@@std@@QAE@ABV01@@Z$0 00400000 f   GameEngine.obj
 0001:fffff000       __unwindfunclet$??0?$basic_string@DU?$char_traits@D@std@@V?$allocator@D@2@@std@@QAE@QBD@Z$0 00400000 f   GameEngine.obj
 0001:fffff000       __unwindfunclet$??0ImageManager@@QAE@XZ$0 00400000 f   GameEngine.obj
 0001:fffff000       __unwindfunclet$??0RawImageData@@QAE@V?$basic_string@DU?$char_traits@D@std@@V?$allocator@D@2@@std@@@Z$0 00400000 f   GameEngine.obj
 0001:fffff000       __unwindfunclet$??0sentry@?$basic_ostream@DU?$char_traits@D@std@@@std@@QAE@AAV12@@Z$0 00400000 f   GameEngine.obj
 0001:fffff000       __unwindfunclet$?_Alloc_sentinel_and_proxy@?$_Tree@V?$_Tmap_traits@V?$basic_string@DU?$char_traits@D@std@@V?$allocator@D@2@@std@@V?$shared_ptr@VRawImageData@@@2@U?$less@V?$basic_string@DU?$char_traits@D@std@@V?$allocator@D@2@@std@@@2@V?$allocator@U?$pair@$$CBV?$basic_string@DU?$char_traits@D@std@@V?$allocator@D@2@@std@@V?$shared_ptr@VRawImageData@@@2@@std@@@2@$0A@@std@@@std@@IAEXXZ$0 00400000 f   GameEngine.obj
 0001:fffff000       __unwindfunclet$?_Alloc_sentinel_and_proxy@?$_Tree@V?$_Tmap_traits@V?$basic_string@DU?$char_traits@D@std@@V?$allocator@D@2@@std@@V?$weak_ptr@VRawImageData@@@2@U?$less@V?$basic_string@DU?$char_traits@D@std@@V?$allocator@D@2@@std@@@2@V?$allocator@U?$pair@$$CBV?$basic_string@DU?$char_traits@D@std@@V?$allocator@D@2@@std@@V?$weak_ptr@VRawImageData@@@2@@std@@@2@$0A@@std@@@std@@IAEXXZ$0 00400000 f   GameEngine.obj
 0001:fffff000       __unwindfunclet$?_Orphan_range_locked@?$vector@PAVDisplayableObject@@V?$allocator@PAVDisplayableObject@@@std@@@std@@ABEXPAPAVDisplayableObject@@0@Z$0 00400000 f   GameEngine.obj
 0001:fffff000       __unwindfunclet$?get@ImageManager@@SAPAV1@XZ$0 00400000 f   GameEngine.obj
 0001:fffff000       __unwindfunclet$?getImagePtrbyURL@ImageManager@@QAE?AV?$shared_ptr@VRawImageData@@@std@@V?$basic_string@DU?$char_traits@D@std@@V?$allocator@D@2@@3@_N1@Z$0 00400000 f   GameEngine.obj
 0001:fffff000       __unwindfunclet$?getImagebyURL@ImageManager@@QAE?AVSimpleImage@@V?$basic_string@DU?$char_traits@D@std@@V?$allocator@D@2@@std@@_N1@Z$0 00400000 f   GameEngine.obj
 0001:fffff000       __unwindfunclet$?loadAsNew@ImageManager@@QAE?AV?$shared_ptr@VRawImageData@@@std@@V?$basic_string@DU?$char_traits@D@std@@V?$allocator@D@2@@3@@Z$0 00400000 f   GameEngine.obj
 0001:fffff000       __unwindfunclet$?loadImage@ImageManager@@SA?AVSimpleImage@@V?$basic_string@DU?$char_traits@D@std@@V?$allocator@D@2@@std@@_N@Z$0 00400000 f   GameEngine.obj
 0001:fffff000       __unwindfunclet$?loadImage@RawImageData@@QAE_NV?$basic_string@DU?$char_traits@D@std@@V?$allocator@D@2@@std@@HHHHH_N@Z$0 00400000 f   GameEngine.obj
 0002:fffb4000       __unwindtable$??$?0U?$pair@V?$basic_string@DU?$char_traits@D@std@@V?$allocator@D@2@@std@@V?$shared_ptr@VRawImageData@@@2@@std@@@?$_Tree_temp_node@V?$allocator@U?$_Tree_node@U?$pair@$$CBV?$basic_string@DU?$char_traits@D@std@@V?$allocator@D@2@@std@@V?$shared_ptr@VRawImageData@@@2@@std@@PAX@std@@@std@@@std@@QAE@AAV?$allocator@U?$_Tree_node@U?$pair@$$CBV?$basic_string@DU?$char_traits@D@std@@V?$allocator@D@2@@std@@V?$shared_ptr@VRawImageData@@@2@@std@@PAX@std@@@1@PAU?$_Tree_node@U?$pair@$$CBV?$basic_string@DU?$char_traits@D@std@@V?$allocator@D@2@@std@@V?$shared_ptr@VRawImageData@@@2@@std@@PAX@1@$$QAU?$pair@V?$basic_string@DU?$char_traits@D@std@@V?$allocator@D@2@@std@@V?$shared_ptr@VRawImageData@@@2@@1@@Z 00400000     GameEngine.obj
 0002:fffb4000       __unwindtable$??$?0U?$pair@V?$basic_string@DU?$char_traits@D@std@@V?$allocator@D@2@@std@@V?$weak_ptr@VRawImageData@@@2@@std@@@?$_Tree_temp_node@V?$allocator@U?$_Tree_node@U?$pair@$$CBV?$basic_string@DU?$char_traits@D@std@@V?$allocator@D@2@@std@@V?$weak_ptr@VRawImageData@@@2@@std@@PAX@std@@@std@@@std@@QAE@AAV?$allocator@U?$_Tree_node@U?$pair@$$CBV?$basic_string@DU?$char_traits@D@std@@V?$allocator@D@2@@std@@V?$weak_ptr@VRawImageData@@@2@@std@@PAX@std@@@1@PAU?$_Tree_node@U?$pair@$$CBV?$basic_string@DU?$char_traits@D@std@@V?$allocator@D@2@@std@@V?$weak_ptr@VRawImageData@@@2@@std@@PAX@1@$$QAU?$pair@V?$basic_string@DU?$char_traits@D@std@@V?$allocator@D@2@@std@@V?$weak_ptr@VRawImageData@@@2@@1@@Z 00400000     GameEngine.obj
 0002:fffb4000       __unwindtable$??$?0VRawImageData@@$0A@@?$shared_ptr@VRawImageData@@@std@@QAE@PAVRawImageData@@@Z 00400000     GameEngine.obj
 0002:fffb4000       __unwindtable$??$_Construct@$00PBD@?$basic_string@DU?$char_traits@D@std@@V?$allocator@D@2@@std@@AAEXQBDI@Z 00400000     GameEngine.obj
 0002:fffb4000       __unwindtable$??$_Construct@$01PBD@?$basic_string@DU?$char_traits@D@std@@V?$allocator@D@2@@std@@AAEXQBDI@Z 00400000     GameEngine.obj
 0002:fffb4000       __unwindtable$??$_Uninitialized_move@PAPAVDisplayableObject@@V?$allocator@PAVDisplayableObject@@@std@@@std@@YAPAPAVDisplayableObject@@QAPAV1@0PAPAV1@AAV?$allocator@PAVDisplayableObject@@@0@@Z 00400000     GameEngine.obj
 0002:fffb4000       __unwindtable$??$_Uninitialized_value_construct_n@V?$allocator@PAVDisplayableObject@@@std@@@std@@YAPAPAVDisplayableObject@@PAPAV1@IAAV?$allocator@PAVDisplayableObject@@@0@@Z 00400000     GameEngine.obj
 0002:fffb4000       __unwindtable$??0?$_Tree_temp_node_alloc@V?$allocator@U?$_Tree_node@U?$pair@$$CBV?$basic_string@DU?$char_traits@D@std@@V?$allocator@D@2@@std@@V?$shared_ptr@VRawImageData@@@2@@std@@PAX@std@@@std@@@std@@QAE@AAV?$allocator@U?$_Tree_node@U?$pair@$$CBV?$basic_string@DU?$char_traits@D@std@@V?$allocator@D@2@@std@@V?$shared_ptr@VRawImageData@@@2@@std@@PAX@std@@@1@@Z 00400000     GameEngine.obj
 0002:fffb4000       __unwindtable$??0?$_Tree_temp_node_alloc@V?$allocator@U?$_Tree_node@U?$pair@$$CBV?$basic_string@DU?$char_traits@D@std@@V?$allocator@D@2@@std@@V?$weak_ptr@VRawImageData@@@2@@std@@PAX@std@@@std@@@std@@QAE@AAV?$allocator@U?$_Tree_node@U?$pair@$$CBV?$basic_string@DU?$char_traits@D@std@@V?$allocator@D@2@@std@@V?$weak_ptr@VRawImageData@@@2@@std@@PAX@std@@@1@@Z 00400000     GameEngine.obj
 0002:fffb4000       __unwindtable$??0?$basic_string@DU?$char_traits@D@std@@V?$allocator@D@2@@std@@QAE@ABV01@@Z 00400000     GameEngine.obj
 0002:fffb4000       __unwindtable$??0?$basic_string@DU?$char_traits@D@std@@V?$allocator@D@2@@std@@QAE@QBD@Z 00400000     GameEngine.obj
 0002:fffb4000       __unwindtable$??0ImageManager@@QAE@XZ 00400000     GameEngine.obj
 0002:fffb4000       __unwindtable$??0RawImageData@@QAE@V?$basic_string@DU?$char_traits@D@std@@V?$allocator@D@2@@std@@@Z 00400000     GameEngine.obj
 0002:fffb4000       __unwindtable$??0sentry@?$basic_ostream@DU?$char_traits@D@std@@@std@@QAE@AAV12@@Z 00400000     GameEngine.obj
 0002:fffb4000       __unwindtable$?_Alloc_sentinel_and_proxy@?$_Tree@V?$_Tmap_traits@V?$basic_string@DU?$char_traits@D@std@@V?$allocator@D@2@@std@@V?$shared_ptr@VRawImageData@@@2@U?$less@V?$basic_string@DU?$char_traits@D@std@@V?$allocator@D@2@@std@@@2@V?$allocator@U?$pair@$$CBV?$basic_string@DU?$char_traits@D@std@@V?$allocator@D@2@@std@@V?$shared_ptr@VRawImageData@@@2@@std@@@2@$0A@@std@@@std@@IAEXXZ 00400000     GameEngine.obj
 0002:fffb4000       __unwindtable$?_Alloc_sentinel_and_proxy@?$_Tree@V?$_Tmap_traits@V?$basic_string@DU?$char_traits@D@std@@V?$allocator@D@2@@std@@V?$weak_ptr@VRawImageData@@@2@U?$less@V?$basic_string@DU?$char_traits@D@std@@V?$allocator@D@2@@std@@@2@V?$allocator@U?$pair@$$CBV?$basic_string@DU?$char_traits@D@std@@V?$allocator@D@2@@std@@V?$weak_ptr@VRawImageData@@@2@@std@@@2@$0A@@std@@@std@@IAEXXZ 00400000     GameEngine.obj
 0002:fffb4000       __unwindtable$?_Orphan_range_locked@?$vector@PAVDisplayableObject@@V?$allocator@PAVDisplayableObject@@@std@@@std@@ABEXPAPAVDisplayableObject@@0@Z 00400000     GameEngine.obj
 0002:fffb4000       __unwindtable$?get@ImageManager@@SAPAV1@XZ 00400000     GameEngine.obj
 0002:fffb4000       __unwindtable$?getImagebyURL@ImageManager@@QAE?AVSimpleImage@@V?$basic_string@DU?$char_traits@D@std@@V?$allocator@D@2@@std@@_N1@Z 00400000     GameEngine.obj
 0002:fffb4000       __unwindtable$?loadAsNew@ImageManager@@QAE?AV?$shared_ptr@VRawImageData@@@std@@V?$basic_string@DU?$char_traits@D@std@@V?$allocator@D@2@@3@@Z 00400000     GameEngine.obj
 0002:fffb4000       __unwindtable$?loadImage@ImageManager@@SA?AVSimpleImage@@V?$basic_string@DU?$char_traits@D@std@@V?$allocator@D@2@@std@@_N@Z 00400000     GameEngine.obj
 0002:fffb4000       __unwindtable$?loadImage@RawImageData@@QAE_NV?$basic_string@DU?$char_traits@D@std@@V?$allocator@D@2@@std@@HHHHH_N@Z 00400000     GameEngine.obj
 0000:00000000       _volmd                     00400000     GameEngine.obj
 0000:00000000       _volmd                     00400000     GameEngine.obj
 0000:00000000       _volmd                     00400000     GameEngine.obj
 0000:00000000       _volmd                     00400000     GameEngine.obj
 0000:00000000       _volmd                     00400000     GameEngine.obj
 0000:00000000       _volmd                     00400000     GameEngine.obj
 0000:00000000       _volmd                     00400000     GameEngine.obj
 0000:00000000       _volmd                     00400000     GameEngine.obj
 0000:00000000       _volmd                     00400000     GameEngine.obj
 0000:00000000       _volmd                     00400000     GameEngine.obj
 0000:00000000       _volmd                     00400000     GameEngine.obj
 0000:00000000       _volmd                     00400000     GameEngine.obj
 0000:00000000       _volmd                     00400000     GameEngine.obj
 0000:00000000       _volmd                     00400000     GameEngine.obj
 0000:00000000       _volmd                     00400000     GameEngine.obj
 0000:00000000       _volmd                     00400000     GameEngine.obj
 0000:00000000       _volmd                     00400000     GameEngine.obj
 0000:00000000       _volmd                     00400000     GameEngine.obj
 0000:00000000       _volmd                     00400000     GameEngine.obj
 0000:00000000       _volmd                     00400000     GameEngine.obj
 0000:00000000       _volmd                     00400000     GameEngine.obj
 0000:00000000       _volmd                     00400000     GameEngine.obj
 0000:00000000       _volmd                     00400000     GameEngine.obj
 0000:00000000       _volmd                     00400000     GameEngine.obj
 0000:00000000       _volmd                     00400000     GameEngine.obj
 0000:00000000       _volmd                     00400000     GameEngine.obj
 0000:00000000       _volmd                     00400000     GameEngine.obj
 0000:00000000       _volmd                     00400000     GameEngine.obj
 0000:00000000       _volmd                     00400000     GameEngine.obj
 0000:00000000       _volmd                     00400000     GameEngine.obj
 0000:00000000       _volmd                     00400000     GameEngine.obj
 0000:00000000       _volmd                     00400000     GameEngine.obj
 0000:00000000       _volmd                     00400000     GameEngine.obj
 0000:00000000       _volmd                     00400000     GameEngine.obj
 0000:00000000       _volmd                     00400000     GameEngine.obj
 0000:00000000       _volmd                     00400000     GameEngine.obj
 0000:00000000       _volmd                     00400000     GameEngine.obj
 0000:00000000       _volmd                     00400000     GameEngine.obj
 0000:00000000       _volmd                     00400000     GameEngine.obj
 0000:00000000       _volmd                     00400000     GameEngine.obj
 0000:00000000       _volmd                     00400000     GameEngine.obj
 0000:00000000       _volmd                     00400000     GameEngine.obj
 0000:00000000       _volmd                     00400000     GameEngine.obj
 0000:00000000       _volmd                     00400000     GameEngine.obj
 0000:00000000       _volmd                     00400000     GameEngine.obj
 0000:00000000       _volmd                     00400000     GameEngine.obj
 0000:00000000       _volmd                     00400000     GameEngine.obj
 0000:00000000       _volmd                     00400000     GameEngine.obj
 0000:00000000       _volmd                     00400000     GameEngine.obj
 0000:00000000       _volmd                     00400000     GameEngine.obj
 0000:00000000       _volmd                     00400000     GameEngine.obj
 0000:00000000       _volmd                     00400000     GameEngine.obj
 0000:00000000       _volmd                     00400000     GameEngine.obj
 0000:00000000       _volmd                     00400000     GameEngine.obj
 0000:00000000       _volmd                     00400000     GameEngine.obj
 0000:00000000       _volmd                     00400000     GameEngine.obj
 0000:00000000       _volmd                     00400000     GameEngine.obj
 0000:00000000       _volmd                     00400000     GameEngine.obj
 0000:00000000       _volmd                     00400000     GameEngine.obj
 0000:00000000       _volmd                     00400000     GameEngine.obj
 0000:00000000       _volmd                     00400000     GameEngine.obj
 0002:fffb4000       __catchsym$??$?6U?$char_traits@D@std@@@std@@YAAAV?$basic_ostream@DU?$char_traits@D@std@@@0@AAV10@PBD@Z$3 00400000     GameTileManager.obj
 0002:fffb4000       __catchsym$??$_Insert_string@DU?$char_traits@D@std@@I@std@@YAAAV?$basic_ostream@DU?$char_traits@D@std@@@0@AAV10@QBDI@Z$3 00400000     GameTileManager.obj
 0002:fffb4000       __ehfuncinfo$??$_Deallocate@$07$0A@@std@@YAXPAXI@Z 00400000     GameTileManager.obj
 0002:fffb4000       __ehfuncinfo$??$_Deallocate_plain@V?$allocator@U_Container_proxy@std@@@std@@@std@@YAXAAV?$allocator@U_Container_proxy@std@@@0@QAU_Container_proxy@0@@Z 00400000     GameTileManager.obj
 0002:fffb4000       __ehfuncinfo$??$_Freenode0@V?$allocator@U?$_Tree_node@U?$pair@$$CBV?$basic_string@DU?$char_traits@D@std@@V?$allocator@D@2@@std@@V?$weak_ptr@VRawImageData@@@2@@std@@PAX@std@@@std@@@?$_Tree_node@U?$pair@$$CBV?$basic_string@DU?$char_traits@D@std@@V?$allocator@D@2@@std@@V?$weak_ptr@VRawImageData@@@2@@std@@PAX@std@@SAXAAV?$allocator@U?$_Tree_node@U?$pair@$$CBV?$basic_string@DU?$char_traits@D@std@@V?$allocator@D@2@@std@@V?$weak_ptr@VRawImageData@@@2@@std@@PAX@std@@@1@PAU01@@Z 00400000     GameTileManager.obj
 0002:fffb4000       __ehfuncinfo$??$_Freenode@V?$allocator@U?$_Tree_node@U?$pair@$$CBV?$basic_string@DU?$char_traits@D@std@@V?$allocator@D@2@@std@@V?$weak_ptr@VRawImageData@@@2@@std@@PAX@std@@@std@@@?$_Tree_node@U?$pair@$$CBV?$basic_string@DU?$char_traits@D@std@@V?$allocator@D@2@@std@@V?$weak_ptr@VRawImageData@@@2@@std@@PAX@std@@SAXAAV?$allocator@U?$_Tree_node@U?$pair@$$CBV?$basic_string@DU?$char_traits@D@std@@V?$allocator@D@2@@std@@V?$weak_ptr@VRawImageData@@@2@@std@@PAX@std@@@1@PAU01@@Z 00400000     GameTileManager.obj
 0002:fffb4000       __ehfuncinfo$??0?$basic_string@DU?$char_traits@D@std@@V?$allocator@D@2@@std@@QAE@$$QAV01@@Z 00400000     GameTileManager.obj
 0002:fffb4000       __ehfuncinfo$??0?$basic_string@DU?$char_traits@D@std@@V?$allocator@D@2@@std@@QAE@XZ 00400000     GameTileManager.obj
 0002:fffb4000       __ehfuncinfo$??1?$_Alloc_construct_ptr@V?$allocator@U?$_Tree_node@U?$pair@$$CBV?$basic_string@DU?$char_traits@D@std@@V?$allocator@D@2@@std@@V?$shared_ptr@VRawImageData@@@2@@std@@PAX@std@@@std@@@std@@QAE@XZ 00400000     GameTileManager.obj
 0002:fffb4000       __ehfuncinfo$??1?$_Alloc_construct_ptr@V?$allocator@U?$_Tree_node@U?$pair@$$CBV?$basic_string@DU?$char_traits@D@std@@V?$allocator@D@2@@std@@V?$weak_ptr@VRawImageData@@@2@@std@@PAX@std@@@std@@@std@@QAE@XZ 00400000     GameTileManager.obj
 0002:fffb4000       __ehfuncinfo$??1?$_Tree_temp_node@V?$allocator@U?$_Tree_node@U?$pair@$$CBV?$basic_string@DU?$char_traits@D@std@@V?$allocator@D@2@@std@@V?$shared_ptr@VRawImageData@@@2@@std@@PAX@std@@@std@@@std@@QAE@XZ 00400000     GameTileManager.obj
 0002:fffb4000       __ehfuncinfo$??1?$_Tree_temp_node@V?$allocator@U?$_Tree_node@U?$pair@$$CBV?$basic_string@DU?$char_traits@D@std@@V?$allocator@D@2@@std@@V?$weak_ptr@VRawImageData@@@2@@std@@PAX@std@@@std@@@std@@QAE@XZ 00400000     GameTileManager.obj
 0002:fffb4000       __ehfuncinfo$??1?$basic_filebuf@DU?$char_traits@D@std@@@std@@UAE@XZ 00400000     GameTileManager.obj
 0002:fffb4000       __ehfuncinfo$??1RawImageData@@QAE@XZ 00400000     GameTileManager.obj
 0002:fffb4000       __ehfuncinfo$??1_Sentry_base@?$basic_istream@DU?$char_traits@D@std@@@std@@QAE@XZ 00400000     GameTileManager.obj
 0002:fffb4000       __ehfuncinfo$??1_Sentry_base@?$basic_ostream@DU?$char_traits@D@std@@@std@@QAE@XZ 00400000     GameTileManager.obj
 0002:fffb4000       __ehfuncinfo$?_Deallocate_for_capacity@?$basic_string@DU?$char_traits@D@std@@V?$allocator@D@2@@std@@CAXAAV?$allocator@D@2@QADI@Z 00400000     GameTileManager.obj
 0002:fffb4000       __ehfuncinfo$?getImagePtrbyURL@ImageManager@@QAE?AV?$shared_ptr@VRawImageData@@@std@@V?$basic_string@DU?$char_traits@D@std@@V?$allocator@D@2@@3@_N1@Z 00400000     GameTileManager.obj
 0001:fffff000       __ehhandler$??$_Deallocate@$07$0A@@std@@YAXPAXI@Z 00400000 f   GameTileManager.obj
 0001:fffff000       __ehhandler$??$_Deallocate_plain@V?$allocator@U_Container_proxy@std@@@std@@@std@@YAXAAV?$allocator@U_Container_proxy@std@@@0@QAU_Container_proxy@0@@Z 00400000 f   GameTileManager.obj
 0001:fffff000       __ehhandler$??$_Freenode0@V?$allocator@U?$_Tree_node@U?$pair@$$CBV?$basic_string@DU?$char_traits@D@std@@V?$allocator@D@2@@std@@V?$weak_ptr@VRawImageData@@@2@@std@@PAX@std@@@std@@@?$_Tree_node@U?$pair@$$CBV?$basic_string@DU?$char_traits@D@std@@V?$allocator@D@2@@std@@V?$weak_ptr@VRawImageData@@@2@@std@@PAX@std@@SAXAAV?$allocator@U?$_Tree_node@U?$pair@$$CBV?$basic_string@DU?$char_traits@D@std@@V?$allocator@D@2@@std@@V?$weak_ptr@VRawImageData@@@2@@std@@PAX@std@@@1@PAU01@@Z 00400000 f   GameTileManager.obj
 0001:fffff000       __ehhandler$??$_Freenode@V?$allocator@U?$_Tree_node@U?$pair@$$CBV?$basic_string@DU?$char_traits@D@std@@V?$allocator@D@2@@std@@V?$weak_ptr@VRawImageData@@@2@@std@@PAX@std@@@std@@@?$_Tree_node@U?$pair@$$CBV?$basic_string@DU?$char_traits@D@std@@V?$allocator@D@2@@std@@V?$weak_ptr@VRawImageData@@@2@@std@@PAX@std@@SAXAAV?$allocator@U?$_Tree_node@U?$pair@$$CBV?$basic_string@DU?$char_traits@D@std@@V?$allocator@D@2@@std@@V?$weak_ptr@VRawImageData@@@2@@std@@PAX@std@@@1@PAU01@@Z 00400000 f   GameTileManager.obj
 0001:fffff000       __ehhandler$??0?$basic_string@DU?$char_traits@D@std@@V?$allocator@D@2@@std@@QAE@$$QAV01@@Z 00400000 f   GameTileManager.obj
 0001:fffff000       __ehhandler$??0?$basic_string@DU?$char_traits@D@std@@V?$allocator@D@2@@std@@QAE@XZ 00400000 f   GameTileManager.obj
 0001:fffff000       __ehhandler$??1?$_Alloc_construct_ptr@V?$allocator@U?$_Tree_node@U?$pair@$$CBV?$basic_string@DU?$char_traits@D@std@@V?$allocator@D@2@@std@@V?$shared_ptr@VRawImageData@@@2@@std@@PAX@std@@@std@@@std@@QAE@XZ 00400000 f   GameTileManager.obj
 0001:fffff000       __ehhandler$??1?$_Alloc_construct_ptr@V?$allocator@U?$_Tree_node@U?$pair@$$CBV?$basic_string@DU?$char_traits@D@std@@V?$allocator@D@2@@std@@V?$weak_ptr@VRawImageData@@@2@@std@@PAX@std@@@std@@@std@@QAE@XZ 00400000 f   GameTileManager.obj
 0001:fffff000       __ehhandler$??1?$_Tree_temp_node@V?$allocator@U?$_Tree_node@U?$pair@$$CBV?$basic_string@DU?$char_traits@D@std@@V?$allocator@D@2@@std@@V?$shared_ptr@VRawImageData@@@2@@std@@PAX@std@@@std@@@std@@QAE@XZ 00400000 f   GameTileManager.obj
 0001:fffff000       __ehhandler$??1?$_Tree_temp_node@V?$allocator@U?$_Tree_node@U?$pair@$$CBV?$basic_string@DU?$char_traits@D@std@@V?$allocator@D@2@@std@@V?$weak_ptr@VRawImageData@@@2@@std@@PAX@std@@@std@@@std@@QAE@XZ 00400000 f   GameTileManager.obj
 0001:fffff000       __ehhandler$??1?$basic_filebuf@DU?$char_traits@D@std@@@std@@UAE@XZ 00400000 f   GameTileManager.obj
 0001:fffff000       __ehhandler$??1RawImageData@@QAE@XZ 00400000 f   GameTileManager.obj
 0001:fffff000       __ehhandler$??1_Sentry_base@?$basic_istream@DU?$char_traits@D@std@@@std@@QAE@XZ 00400000 f   GameTileManager.obj
 0001:fffff000       __ehhandler$??1_Sentry_base@?$basic_ostream@DU?$char_traits@D@std@@@std@@QAE@XZ 00400000 f   GameTileManager.obj
 0001:fffff000       __ehhandler$?_Deallocate_for_capacity@?$basic_string@DU?$char_traits@D@std@@V?$allocator@D@2@@std@@CAXAAV?$allocator@D@2@QADI@Z 00400000 f   GameTileManager.obj
 0001:fffff000       __unwindfunclet$??$?0U?$pair@V?$basic_string@DU?$char_traits@D@std@@V?$allocator@D@2@@std@@V?$shared_ptr@VRawImageData@@@2@@std@@@?$_Tree_temp_node@V?$allocator@U?$_Tree_node@U?$pair@$$CBV?$basic_string@DU?$char_traits@D@std@@V?$allocator@D@2@@std@@V?$shared_ptr@VRawImageData@@@2@@std@@PAX@std@@@std@@@std@@QAE@AAV?$allocator@U?$_Tree_node@U?$pair@$$CBV?$basic_string@DU?$char_traits@D@std@@V?$allocator@D@2@@std@@V?$shared_ptr@VRawImageData@@@2@@std@@PAX@std@@@1@PAU?$_Tree_node@U?$pair@$$CBV?$basic_string@DU?$char_traits@D@std@@V?$allocator@D@2@@std@@V?$shared_ptr@VRawImageData@@@2@@std@@PAX@1@$$QAU?$pair@V?$basic_string@DU?$char_traits@D@std@@V?$allocator@D@2@@std@@V?$shared_ptr@VRawImageData@@@2@@1@@Z$0 00400000 f   GameTileManager.obj
 0001:fffff000       __unwindfunclet$??$?0U?$pair@V?$basic_string@DU?$char_traits@D@std@@V?$allocator@D@2@@std@@V?$weak_ptr@VRawImageData@@@2@@std@@@?$_Tree_temp_node@V?$allocator@U?$_Tree_node@U?$pair@$$CBV?$basic_string@DU?$char_traits@D@std@@V?$allocator@D@2@@std@@V?$weak_ptr@VRawImageData@@@2@@std@@PAX@std@@@std@@@std@@QAE@AAV?$allocator@U?$_Tree_node@U?$pair@$$CBV?$basic_string@DU?$char_traits@D@std@@V?$allocator@D@2@@std@@V?$weak_ptr@VRawImageData@@@2@@std@@PAX@std@@@1@PAU?$_Tree_node@U?$pair@$$CBV?$basic_string@DU?$char_traits@D@std@@V?$allocator@D@2@@std@@V?$weak_ptr@VRawImageData@@@2@@std@@PAX@1@$$QAU?$pair@V?$basic_string@DU?$char_traits@D@std@@V?$allocator@D@2@@std@@V?$weak_ptr@VRawImageData@@@2@@1@@Z$0 00400000 f   GameTileManager.obj
 0001:fffff000       __unwindfunclet$??$?0VRawImageData@@$0A@@?$shared_ptr@VRawImageData@@@std@@QAE@PAVRawImageData@@@Z$0 00400000 f   GameTileManager.obj
 0001:fffff000       __unwindfunclet$??$?6U?$char_traits@D@std@@@std@@YAAAV?$basic_ostream@DU?$char_traits@D@std@@@0@AAV10@PBD@Z$2 00400000 f   GameTileManager.obj
 0001:fffff000       __unwindfunclet$??$_Construct@$00PBD@?$basic_string@DU?$char_traits@D@std@@V?$allocator@D@2@@std@@AAEXQBDI@Z$0 00400000 f   GameTileManager.obj
 0001:fffff000       __unwindfunclet$??$_Construct@$01PBD@?$basic_string@DU?$char_traits@D@std@@V?$allocator@D@2@@std@@AAEXQBDI@Z$0 00400000 f   GameTileManager.obj
 0001:fffff000       __unwindfunclet$??$_Insert_string@DU?$char_traits@D@std@@I@std@@YAAAV?$basic_ostream@DU?$char_traits@D@std@@@0@AAV10@QBDI@Z$2 00400000 f   GameTileManager.obj
 0001:fffff000       __unwindfunclet$??$use_facet@V?$codecvt@DDU_Mbstatet@@@std@@@std@@YAABV?$codecvt@DDU_Mbstatet@@@0@ABVlocale@0@@Z$0 00400000 f   GameTileManager.obj
 0001:fffff000       __unwindfunclet$??0?$_Tree_temp_node_alloc@V?$allocator@U?$_Tree_node@U?$pair@$$CBV?$basic_string@DU?$char_traits@D@std@@V?$allocator@D@2@@std@@V?$shared_ptr@VRawImageData@@@2@@std@@PAX@std@@@std@@@std@@QAE@AAV?$allocator@U?$_Tree_node@U?$pair@$$CBV?$basic_string@DU?$char_traits@D@std@@V?$allocator@D@2@@std@@V?$shared_ptr@VRawImageData@@@2@@std@@PAX@std@@@1@@Z$0 00400000 f   GameTileManager.obj
 0001:fffff000       __unwindfunclet$??0?$_Tree_temp_node_alloc@V?$allocator@U?$_Tree_node@U?$pair@$$CBV?$basic_string@DU?$char_traits@D@std@@V?$allocator@D@2@@std@@V?$weak_ptr@VRawImageData@@@2@@std@@PAX@std@@@std@@@std@@QAE@AAV?$allocator@U?$_Tree_node@U?$pair@$$CBV?$basic_string@DU?$char_traits@D@std@@V?$allocator@D@2@@std@@V?$weak_ptr@VRawImageData@@@2@@std@@PAX@std@@@1@@Z$0 00400000 f   GameTileManager.obj
 0001:fffff000       __unwindfunclet$??0?$basic_ifstream@DU?$char_traits@D@std@@@std@@QAE@PBDHH@Z$0 00400000 f   GameTileManager.obj
 0001:fffff000       __unwindfunclet$??0?$basic_string@DU?$char_traits@D@std@@V?$allocator@D@2@@std@@QAE@ABV01@@Z$0 00400000 f   GameTileManager.obj
 0001:fffff000       __unwindfunclet$??0?$basic_string@DU?$char_traits@D@std@@V?$allocator@D@2@@std@@QAE@QBD@Z$0 00400000 f   GameTileManager.obj
 0001:fffff000       __unwindfunclet$??0ImageManager@@QAE@XZ$0 00400000 f   GameTileManager.obj
 0001:fffff000       __unwindfunclet$??0RawImageData@@QAE@V?$basic_string@DU?$char_traits@D@std@@V?$allocator@D@2@@std@@@Z$0 00400000 f   GameTileManager.obj
 0001:fffff000       __unwindfunclet$??0sentry@?$basic_istream@DU?$char_traits@D@std@@@std@@QAE@AAV12@_N@Z$0 00400000 f   GameTileManager.obj
 0001:fffff000       __unwindfunclet$??0sentry@?$basic_ostream@DU?$char_traits@D@std@@@std@@QAE@AAV12@@Z$0 00400000 f   GameTileManager.obj
 0001:fffff000       __unwindfunclet$?_Alloc_sentinel_and_proxy@?$_Tree@V?$_Tmap_traits@V?$basic_string@DU?$char_traits@D@std@@V?$allocator@D@2@@std@@V?$shared_ptr@VRawImageData@@@2@U?$less@V?$basic_string@DU?$char_traits@D@std@@V?$allocator@D@2@@std@@@2@V?$allocator@U?$pair@$$CBV?$basic_string@DU?$char_traits@D@std@@V?$allocator@D@2@@std@@V?$shared_ptr@VRawImageData@@@2@@std@@@2@$0A@@std@@@std@@IAEXXZ$0 00400000 f   GameTileManager.obj
 0001:fffff000       __unwindfunclet$?_Alloc_sentinel_and_proxy@?$_Tree@V?$_Tmap_traits@V?$basic_string@DU?$char_traits@D@std@@V?$allocator@D@2@@std@@V?$weak_ptr@VRawImageData@@@2@U?$less@V?$basic_string@DU?$char_traits@D@std@@V?$allocator@D@2@@std@@@2@V?$allocator@U?$pair@$$CBV?$basic_string@DU?$char_traits@D@std@@V?$allocator@D@2@@std@@V?$weak_ptr@VRawImageData@@@2@@std@@@2@$0A@@std@@@std@@IAEXXZ$0 00400000 f   GameTileManager.obj
 0001:fffff000       __unwindfunclet$?get@ImageManager@@SAPAV1@XZ$0 00400000 f   GameTileManager.obj
 0001:fffff000       __unwindfunclet$?getImagePtrbyURL@ImageManager@@QAE?AV?$shared_ptr@VRawImageData@@@std@@V?$basic_string@DU?$char_traits@D@std@@V?$allocator@D@2@@3@_N1@Z$0 00400000 f   GameTileManager.obj
 0001:fffff000       __unwindfunclet$?getImagebyURL@ImageManager@@QAE?AVSimpleImage@@V?$basic_string@DU?$char_traits@D@std@@V?$allocator@D@2@@std@@_N1@Z$0 00400000 f   GameTileManager.obj
 0001:fffff000       __unwindfunclet$?loadAsNew@ImageManager@@QAE?AV?$shared_ptr@VRawImageData@@@std@@V?$basic_string@DU?$char_traits@D@std@@V?$allocator@D@2@@3@@Z$0 00400000 f   GameTileManager.obj
 0001:fffff000       __unwindfunclet$?loadImage@ImageManager@@SA?AVSimpleImage@@V?$basic_string@DU?$char_traits@D@std@@V?$allocator@D@2@@std@@_N@Z$0 00400000 f   GameTileManager.obj
 0001:fffff000       __unwindfunclet$?loadImage@RawImageData@@QAE_NV?$basic_string@DU?$char_traits@D@std@@V?$allocator@D@2@@std@@HHHHH_N@Z$0 00400000 f   GameTileManager.obj
 0001:fffff000       __unwindfunclet$?open@?$basic_filebuf@DU?$char_traits@D@std@@@std@@QAEPAV12@PBDHH@Z$0 00400000 f   GameTileManager.obj
 0001:fffff000       __unwindfunclet$?uflow@?$basic_filebuf@DU?$char_traits@D@std@@@std@@MAEHXZ$0 00400000 f   GameTileManager.obj
 0002:fffb4000       __unwindtable$??$?0U?$pair@V?$basic_string@DU?$char_traits@D@std@@V?$allocator@D@2@@std@@V?$shared_ptr@VRawImageData@@@2@@std@@@?$_Tree_temp_node@V?$allocator@U?$_Tree_node@U?$pair@$$CBV?$basic_string@DU?$char_traits@D@std@@V?$allocator@D@2@@std@@V?$shared_ptr@VRawImageData@@@2@@std@@PAX@std@@@std@@@std@@QAE@AAV?$allocator@U?$_Tree_node@U?$pair@$$CBV?$basic_string@DU?$char_traits@D@std@@V?$allocator@D@2@@std@@V?$shared_ptr@VRawImageData@@@2@@std@@PAX@std@@@1@PAU?$_Tree_node@U?$pair@$$CBV?$basic_string@DU?$char_traits@D@std@@V?$allocator@D@2@@std@@V?$shared_ptr@VRawImageData@@@2@@std@@PAX@1@$$QAU?$pair@V?$basic_string@DU?$char_traits@D@std@@V?$allocator@D@2@@std@@V?$shared_ptr@VRawImageData@@@2@@1@@Z 00400000     GameTileManager.obj
 0002:fffb4000       __unwindtable$??$?0U?$pair@V?$basic_string@DU?$char_traits@D@std@@V?$allocator@D@2@@std@@V?$weak_ptr@VRawImageData@@@2@@std@@@?$_Tree_temp_node@V?$allocator@U?$_Tree_node@U?$pair@$$CBV?$basic_string@DU?$char_traits@D@std@@V?$allocator@D@2@@std@@V?$weak_ptr@VRawImageData@@@2@@std@@PAX@std@@@std@@@std@@QAE@AAV?$allocator@U?$_Tree_node@U?$pair@$$CBV?$basic_string@DU?$char_traits@D@std@@V?$allocator@D@2@@std@@V?$weak_ptr@VRawImageData@@@2@@std@@PAX@std@@@1@PAU?$_Tree_node@U?$pair@$$CBV?$basic_string@DU?$char_traits@D@std@@V?$allocator@D@2@@std@@V?$weak_ptr@VRawImageData@@@2@@std@@PAX@1@$$QAU?$pair@V?$basic_string@DU?$char_traits@D@std@@V?$allocator@D@2@@std@@V?$weak_ptr@VRawImageData@@@2@@1@@Z 00400000     GameTileManager.obj
 0002:fffb4000       __unwindtable$??$?0VRawImageData@@$0A@@?$shared_ptr@VRawImageData@@@std@@QAE@PAVRawImageData@@@Z 00400000     GameTileManager.obj
 0002:fffb4000       __unwindtable$??$_Construct@$00PBD@?$basic_string@DU?$char_traits@D@std@@V?$allocator@D@2@@std@@AAEXQBDI@Z 00400000     GameTileManager.obj
 0002:fffb4000       __unwindtable$??$_Construct@$01PBD@?$basic_string@DU?$char_traits@D@std@@V?$allocator@D@2@@std@@AAEXQBDI@Z 00400000     GameTileManager.obj
 0002:fffb4000       __unwindtable$??$use_facet@V?$codecvt@DDU_Mbstatet@@@std@@@std@@YAABV?$codecvt@DDU_Mbstatet@@@0@ABVlocale@0@@Z 00400000     GameTileManager.obj
 0002:fffb4000       __unwindtable$??0?$_Tree_temp_node_alloc@V?$allocator@U?$_Tree_node@U?$pair@$$CBV?$basic_string@DU?$char_traits@D@std@@V?$allocator@D@2@@std@@V?$shared_ptr@VRawImageData@@@2@@std@@PAX@std@@@std@@@std@@QAE@AAV?$allocator@U?$_Tree_node@U?$pair@$$CBV?$basic_string@DU?$char_traits@D@std@@V?$allocator@D@2@@std@@V?$shared_ptr@VRawImageData@@@2@@std@@PAX@std@@@1@@Z 00400000     GameTileManager.obj
 0002:fffb4000       __unwindtable$??0?$_Tree_temp_node_alloc@V?$allocator@U?$_Tree_node@U?$pair@$$CBV?$basic_string@DU?$char_traits@D@std@@V?$allocator@D@2@@std@@V?$weak_ptr@VRawImageData@@@2@@std@@PAX@std@@@std@@@std@@QAE@AAV?$allocator@U?$_Tree_node@U?$pair@$$CBV?$basic_string@DU?$char_traits@D@std@@V?$allocator@D@2@@std@@V?$weak_ptr@VRawImageData@@@2@@std@@PAX@std@@@1@@Z 00400000     GameTileManager.obj
 0002:fffb4000       __unwindtable$??0?$basic_ifstream@DU?$char_traits@D@std@@@std@@QAE@PBDHH@Z 00400000     GameTileManager.obj
 0002:fffb4000       __unwindtable$??0?$basic_string@DU?$char_traits@D@std@@V?$allocator@D@2@@std@@QAE@ABV01@@Z 00400000     GameTileManager.obj
 0002:fffb4000       __unwindtable$??0?$basic_string@DU?$char_traits@D@std@@V?$allocator@D@2@@std@@QAE@QBD@Z 00400000     GameTileManager.obj
 0002:fffb4000       __unwindtable$??0ImageManager@@QAE@XZ 00400000     GameTileManager.obj
 0002:fffb4000       __unwindtable$??0RawImageData@@QAE@V?$basic_string@DU?$char_traits@D@std@@V?$allocator@D@2@@std@@@Z 00400000     GameTileManager.obj
 0002:fffb4000       __unwindtable$??0sentry@?$basic_istream@DU?$char_traits@D@std@@@std@@QAE@AAV12@_N@Z 00400000     GameTileManager.obj
 0002:fffb4000       __unwindtable$??0sentry@?$basic_ostream@DU?$char_traits@D@std@@@std@@QAE@AAV12@@Z 00400000     GameTileManager.obj
 0002:fffb4000       __unwindtable$?_Alloc_sentinel_and_proxy@?$_Tree@V?$_Tmap_traits@V?$basic_string@DU?$char_traits@D@std@@V?$allocator@D@2@@std@@V?$shared_ptr@VRawImageData@@@2@U?$less@V?$basic_string@DU?$char_traits@D@std@@V?$allocator@D@2@@std@@@2@V?$allocator@U?$pair@$$CBV?$basic_string@DU?$char_traits@D@std@@V?$allocator@D@2@@std@@V?$shared_ptr@VRawImageData@@@2@@std@@@2@$0A@@std@@@std@@IAEXXZ 00400000     GameTileManager.obj
 0002:fffb4000       __unwindtable$?_Alloc_sentinel_and_proxy@?$_Tree@V?$_Tmap_traits@V?$basic_string@DU?$char_traits@D@std@@V?$allocator@D@2@@std@@V?$weak_ptr@VRawImageData@@@2@U?$less@V?$basic_string@DU?$char_traits@D@std@@V?$allocator@D@2@@std@@@2@V?$allocator@U?$pair@$$CBV?$basic_string@DU?$char_traits@D@std@@V?$allocator@D@2@@std@@V?$weak_ptr@VRawImageData@@@2@@std@@@2@$0A@@std@@@std@@IAEXXZ 00400000     GameTileManager.obj
 0002:fffb4000       __unwindtable$?get@ImageManager@@SAPAV1@XZ 00400000     GameTileManager.obj
 0002:fffb4000       __unwindtable$?getImagebyURL@ImageManager@@QAE?AVSimpleImage@@V?$basic_string@DU?$char_traits@D@std@@V?$allocator@D@2@@std@@_N1@Z 00400000     GameTileManager.obj
 0002:fffb4000       __unwindtable$?loadAsNew@ImageManager@@QAE?AV?$shared_ptr@VRawImageData@@@std@@V?$basic_string@DU?$char_traits@D@std@@V?$allocator@D@2@@3@@Z 00400000     GameTileManager.obj
 0002:fffb4000       __unwindtable$?loadImage@ImageManager@@SA?AVSimpleImage@@V?$basic_string@DU?$char_traits@D@std@@V?$allocator@D@2@@std@@_N@Z 00400000     GameTileManager.obj
 0002:fffb4000       __unwindtable$?loadImage@RawImageData@@QAE_NV?$basic_string@DU?$char_traits@D@std@@V?$allocator@D@2@@std@@HHHHH_N@Z 00400000     GameTileManager.obj
 0002:fffb4000       __unwindtable$?open@?$basic_filebuf@DU?$char_traits@D@std@@@std@@QAEPAV12@PBDHH@Z 00400000     GameTileManager.obj
 0002:fffb4000       __unwindtable$?uflow@?$basic_filebuf@DU?$char_traits@D@std@@@std@@MAEHXZ 00400000     GameTileManager.obj
 0000:00000000       _volmd                     00400000     GameTileManager.obj
 0000:00000000       _volmd                     00400000     GameTileManager.obj
 0000:00000000       _volmd                     00400000     GameTileManager.obj
 0000:00000000       _volmd                     00400000     GameTileManager.obj
 0000:00000000       _volmd                     00400000     GameTileManager.obj
 0000:00000000       _volmd                     00400000     GameTileManager.obj
 0000:00000000       _volmd                     00400000     GameTileManager.obj
 0000:00000000       _volmd                     00400000     GameTileManager.obj
 0000:00000000       _volmd                     00400000     GameTileManager.obj
 0000:00000000       _volmd                     00400000     GameTileManager.obj
 0000:00000000       _volmd                     00400000     GameTileManager.obj
 0000:00000000       _volmd                     00400000     GameTileManager.obj
 0000:00000000       _volmd                     00400000     GameTileManager.obj
 0000:00000000       _volmd                     00400000     GameTileManager.obj
 0000:00000000       _volmd                     00400000     GameTileManager.obj
 0000:00000000       _volmd                     00400000     GameTileManager.obj
 0000:00000000       _volmd                     00400000     GameTileManager.obj
 0000:00000000       _volmd                     00400000     GameTileManager.obj
 0000:00000000       _volmd                     00400000     GameTileManager.obj
 0000:00000000       _volmd                     00400000     GameTileManager.obj
 0000:00000000       _volmd                     00400000     GameTileManager.obj
 0000:00000000       _volmd                     00400000     GameTileManager.obj
 0000:00000000       _volmd                     00400000     GameTileManager.obj
 0000:00000000       _volmd                     00400000     GameTileManager.obj
 0000:00000000       _volmd                     00400000     GameTileManager.obj
 0000:00000000       _volmd                     00400000     GameTileManager.obj
 0000:00000000       _volmd                     00400000     GameTileManager.obj
 0000:00000000       _volmd                     00400000     GameTileManager.obj
 0000:00000000       _volmd                     00400000     GameTileManager.obj
 0000:00000000       _volmd                     00400000     GameTileManager.obj
 0000:00000000       _volmd                     00400000     GameTileManager.obj
 0000:00000000       _volmd                     00400000     GameTileManager.obj
 0000:00000000       _volmd                     00400000     GameTileManager.obj
 0000:00000000       _volmd                     00400000     GameTileManager.obj
 0000:00000000       _volmd                     00400000     GameTileManager.obj
 0000:00000000       _volmd                     00400000     GameTileManager.obj
 0000:00000000       _volmd                     00400000     GameTileManager.obj
 0000:00000000       _volmd                     00400000     GameTileManager.obj
 0000:00000000       _volmd                     00400000     GameTileManager.obj
 0000:00000000       _volmd                     00400000     GameTileManager.obj
 0000:00000000       _volmd                     00400000     GameTileManager.obj
 0000:00000000       _volmd                     00400000     GameTileManager.obj
 0000:00000000       _volmd                     00400000     GameTileManager.obj
 0000:00000000       _volmd                     00400000     GameTileManager.obj
 0000:00000000       _volmd                     00400000     GameTileManager.obj
 0000:00000000       _volmd                     00400000     GameTileManager.obj
 0000:00000000       _volmd                     00400000     GameTileManager.obj
 0000:00000000       _volmd                     00400000     GameTileManager.obj
 0000:00000000       _volmd                     00400000     GameTileManager.obj
 0000:00000000       _volmd                     00400000     GameTileManager.obj
 0000:00000000       _volmd                     00400000     GameTileManager.obj
 0000:00000000       _volmd                     00400000     GameTileManager.obj
 0000:00000000       _volmd                     00400000     GameTileManager.obj
 0000:00000000       _volmd                     00400000     GameTileManager.obj
 0000:00000000       _volmd                     00400000     GameTileManager.obj
 0000:00000000       _volmd                     00400000     GameTileManager.obj
 0000:00000000       _volmd                     00400000     GameTileManager.obj
 0000:00000000       _volmd                     00400000     GameTileManager.obj
 0000:00000000       _volmd                     00400000     GameTileManager.obj
 0000:00000000       _volmd                     00400000     GameTileManager.obj
 0000:00000000       _volmd                     00400000     GameTileManager.obj
 0000:00000000       _volmd                     00400000     GameTileManager.obj
 0000:00000000       _volmd                     00400000     GameTileManager.obj
 0000:00000000       _volmd                     00400000     GameTileManager.obj
 0002:fffb4000       __catchsym$??$?6U?$char_traits@D@std@@@std@@YAAAV?$basic_ostream@DU?$char_traits@D@std@@@0@AAV10@PBD@Z$3 00400000     ImageMappingDemo.obj
 0002:fffb4000       __catchsym$??$_Insert_string@DU?$char_traits@D@std@@I@std@@YAAAV?$basic_ostream@DU?$char_traits@D@std@@@0@AAV10@QBDI@Z$3 00400000     ImageMappingDemo.obj
 0002:fffb4000       __catchsym$??$_Resize_reallocate@U_Value_init_tag@std@@@?$vector@PAVDisplayableObject@@V?$allocator@PAVDisplayableObject@@@std@@@std@@AAEXIABU_Value_init_tag@1@@Z$2 00400000     ImageMappingDemo.obj
 0002:fffb4000       __ehfuncinfo$??$_Deallocate@$07$0A@@std@@YAXPAXI@Z 00400000     ImageMappingDemo.obj
 0002:fffb4000       __ehfuncinfo$??$_Deallocate_plain@V?$allocator@U_Container_proxy@std@@@std@@@std@@YAXAAV?$allocator@U_Container_proxy@std@@@0@QAU_Container_proxy@0@@Z 00400000     ImageMappingDemo.obj
 0002:fffb4000       __ehfuncinfo$??$_Freenode0@V?$allocator@U?$_Tree_node@U?$pair@$$CBV?$basic_string@DU?$char_traits@D@std@@V?$allocator@D@2@@std@@V?$weak_ptr@VRawImageData@@@2@@std@@PAX@std@@@std@@@?$_Tree_node@U?$pair@$$CBV?$basic_string@DU?$char_traits@D@std@@V?$allocator@D@2@@std@@V?$weak_ptr@VRawImageData@@@2@@std@@PAX@std@@SAXAAV?$allocator@U?$_Tree_node@U?$pair@$$CBV?$basic_string@DU?$char_traits@D@std@@V?$allocator@D@2@@std@@V?$weak_ptr@VRawImageData@@@2@@std@@PAX@std@@@1@PAU01@@Z 00400000     ImageMappingDemo.obj
 0002:fffb4000       __ehfuncinfo$??$_Freenode@V?$allocator@U?$_Tree_node@U?$pair@$$CBV?$basic_string@DU?$char_traits@D@std@@V?$allocator@D@2@@std@@V?$weak_ptr@VRawImageData@@@2@@std@@PAX@std@@@std@@@?$_Tree_node@U?$pair@$$CBV?$basic_string@DU?$char_traits@D@std@@V?$allocator@D@2@@std@@V?$weak_ptr@VRawImageData@@@2@@std@@PAX@std@@SAXAAV?$allocator@U?$_Tree_node@U?$pair@$$CBV?$basic_string@DU?$char_traits@D@std@@V?$allocator@D@2@@std@@V?$weak_ptr@VRawImageData@@@2@@std@@PAX@std@@@1@PAU01@@Z 00400000     ImageMappingDemo.obj
 0002:fffb4000       __ehfuncinfo$??0?$basic_string@DU?$char_traits@D@std@@V?$allocator@D@2@@std@@QAE@$$QAV01@@Z 00400000     ImageMappingDemo.obj
 0002:fffb4000       __ehfuncinfo$??1?$_Alloc_construct_ptr@V?$allocator@U?$_Tree_node@U?$pair@$$CBV?$basic_string@DU?$char_traits@D@std@@V?$allocator@D@2@@std@@V?$shared_ptr@VRawImageData@@@2@@std@@PAX@std@@@std@@@std@@QAE@XZ 00400000     ImageMappingDemo.obj
 0002:fffb4000       __ehfuncinfo$??1?$_Alloc_construct_ptr@V?$allocator@U?$_Tree_node@U?$pair@$$CBV?$basic_string@DU?$char_traits@D@std@@V?$allocator@D@2@@std@@V?$weak_ptr@VRawImageData@@@2@@std@@PAX@std@@@std@@@std@@QAE@XZ 00400000     ImageMappingDemo.obj
 0002:fffb4000       __ehfuncinfo$??1?$_Tree_temp_node@V?$allocator@U?$_Tree_node@U?$pair@$$CBV?$basic_string@DU?$char_traits@D@std@@V?$allocator@D@2@@std@@V?$shared_ptr@VRawImageData@@@2@@std@@PAX@std@@@std@@@std@@QAE@XZ 00400000     ImageMappingDemo.obj
 0002:fffb4000       __ehfuncinfo$??1?$_Tree_temp_node@V?$allocator@U?$_Tree_node@U?$pair@$$CBV?$basic_string@DU?$char_traits@D@std@@V?$allocator@D@2@@std@@V?$weak_ptr@VRawImageData@@@2@@std@@PAX@std@@@std@@@std@@QAE@XZ 00400000     ImageMappingDemo.obj
 0002:fffb4000       __ehfuncinfo$??1RawImageData@@QAE@XZ 00400000     ImageMappingDemo.obj
 0002:fffb4000       __ehfuncinfo$??1_Sentry_base@?$basic_ostream@DU?$char_traits@D@std@@@std@@QAE@XZ 00400000     ImageMappingDemo.obj
 0002:fffb4000       __ehfuncinfo$?_Deallocate_for_capacity@?$basic_string@DU?$char_traits@D@std@@V?$allocator@D@2@@std@@CAXAAV?$allocator@D@2@QADI@Z 00400000     ImageMappingDemo.obj
 0002:fffb4000       __ehfuncinfo$?getImagePtrbyURL@ImageManager@@QAE?AV?$shared_ptr@VRawImageData@@@std@@V?$basic_string@DU?$char_traits@D@std@@V?$allocator@D@2@@3@_N1@Z 00400000     ImageMappingDemo.obj
 0001:fffff000       __ehhandler$??$_Deallocate@$07$0A@@std@@YAXPAXI@Z 00400000 f   ImageMappingDemo.obj
 0001:fffff000       __ehhandler$??$_Deallocate_plain@V?$allocator@U_Container_proxy@std@@@std@@@std@@YAXAAV?$allocator@U_Container_proxy@std@@@0@QAU_Container_proxy@0@@Z 00400000 f   ImageMappingDemo.obj
 0001:fffff000       __ehhandler$??$_Freenode0@V?$allocator@U?$_Tree_node@U?$pair@$$CBV?$basic_string@DU?$char_traits@D@std@@V?$allocator@D@2@@std@@V?$weak_ptr@VRawImageData@@@2@@std@@PAX@std@@@std@@@?$_Tree_node@U?$pair@$$CBV?$basic_string@DU?$char_traits@D@std@@V?$allocator@D@2@@std@@V?$weak_ptr@VRawImageData@@@2@@std@@PAX@std@@SAXAAV?$allocator@U?$_Tree_node@U?$pair@$$CBV?$basic_string@DU?$char_traits@D@std@@V?$allocator@D@2@@std@@V?$weak_ptr@VRawImageData@@@2@@std@@PAX@std@@@1@PAU01@@Z 00400000 f   ImageMappingDemo.obj
 0001:fffff000       __ehhandler$??$_Freenode@V?$allocator@U?$_Tree_node@U?$pair@$$CBV?$basic_string@DU?$char_traits@D@std@@V?$allocator@D@2@@std@@V?$weak_ptr@VRawImageData@@@2@@std@@PAX@std@@@std@@@?$_Tree_node@U?$pair@$$CBV?$basic_string@DU?$char_traits@D@std@@V?$allocator@D@2@@std@@V?$weak_ptr@VRawImageData@@@2@@std@@PAX@std@@SAXAAV?$allocator@U?$_Tree_node@U?$pair@$$CBV?$basic_string@DU?$char_traits@D@std@@V?$allocator@D@2@@std@@V?$weak_ptr@VRawImageData@@@2@@std@@PAX@std@@@1@PAU01@@Z 00400000 f   ImageMappingDemo.obj
 0001:fffff000       __ehhandler$??$_Resize_reallocate@U_Value_init_tag@std@@@?$vector@PAVDisplayableObject@@V?$allocator@PAVDisplayableObject@@@std@@@std@@AAEXIABU_Value_init_tag@1@@Z 00400000 f   ImageMappingDemo.obj
 0001:fffff000       __ehhandler$??0?$basic_string@DU?$char_traits@D@std@@V?$allocator@D@2@@std@@QAE@$$QAV01@@Z 00400000 f   ImageMappingDemo.obj
 0001:fffff000       __ehhandler$??1?$_Alloc_construct_ptr@V?$allocator@U?$_Tree_node@U?$pair@$$CBV?$basic_string@DU?$char_traits@D@std@@V?$allocator@D@2@@std@@V?$shared_ptr@VRawImageData@@@2@@std@@PAX@std@@@std@@@std@@QAE@XZ 00400000 f   ImageMappingDemo.obj
 0001:fffff000       __ehhandler$??1?$_Alloc_construct_ptr@V?$allocator@U?$_Tree_node@U?$pair@$$CBV?$basic_string@DU?$char_traits@D@std@@V?$allocator@D@2@@std@@V?$weak_ptr@VRawImageData@@@2@@std@@PAX@std@@@std@@@std@@QAE@XZ 00400000 f   ImageMappingDemo.obj
 0001:fffff000       __ehhandler$??1?$_Tree_temp_node@V?$allocator@U?$_Tree_node@U?$pair@$$CBV?$basic_string@DU?$char_traits@D@std@@V?$allocator@D@2@@std@@V?$shared_ptr@VRawImageData@@@2@@std@@PAX@std@@@std@@@std@@QAE@XZ 00400000 f   ImageMappingDemo.obj
 0001:fffff000       __ehhandler$??1?$_Tree_temp_node@V?$allocator@U?$_Tree_node@U?$pair@$$CBV?$basic_string@DU?$char_traits@D@std@@V?$allocator@D@2@@std@@V?$weak_ptr@VRawImageData@@@2@@std@@PAX@std@@@std@@@std@@QAE@XZ 00400000 f   ImageMappingDemo.obj
 0001:fffff000       __ehhandler$??1RawImageData@@QAE@XZ 00400000 f   ImageMappingDemo.obj
 0001:fffff000       __ehhandler$??1_Sentry_base@?$basic_ostream@DU?$char_traits@D@std@@@std@@QAE@XZ 00400000 f   ImageMappingDemo.obj
 0001:fffff000       __ehhandler$?_Deallocate_for_capacity@?$basic_string@DU?$char_traits@D@std@@V?$allocator@D@2@@std@@CAXAAV?$allocator@D@2@QADI@Z 00400000 f   ImageMappingDemo.obj
 0001:fffff000       __unwindfunclet$??$?0U?$pair@V?$basic_string@DU?$char_traits@D@std@@V?$allocator@D@2@@std@@V?$shared_ptr@VRawImageData@@@2@@std@@@?$_Tree_temp_node@V?$allocator@U?$_Tree_node@U?$pair@$$CBV?$basic_string@DU?$char_traits@D@std@@V?$allocator@D@2@@std@@V?$shared_ptr@VRawImageData@@@2@@std@@PAX@std@@@std@@@std@@QAE@AAV?$allocator@U?$_Tree_node@U?$pair@$$CBV?$basic_string@DU?$char_traits@D@std@@V?$allocator@D@2@@std@@V?$shared_ptr@VRawImageData@@@2@@std@@PAX@std@@@1@PAU?$_Tree_node@U?$pair@$$CBV?$basic_string@DU?$char_traits@D@std@@V?$allocator@D@2@@std@@V?$shared_ptr@VRawImageData@@@2@@std@@PAX@1@$$QAU?$pair@V?$basic_string@DU?$char_traits@D@std@@V?$allocator@D@2@@std@@V?$shared_ptr@VRawImageData@@@2@@1@@Z$0 00400000 f   ImageMappingDemo.obj
 0001:fffff000       __unwindfunclet$??$?0U?$pair@V?$basic_string@DU?$char_traits@D@std@@V?$allocator@D@2@@std@@V?$weak_ptr@VRawImageData@@@2@@std@@@?$_Tree_temp_node@V?$allocator@U?$_Tree_node@U?$pair@$$CBV?$basic_string@DU?$char_traits@D@std@@V?$allocator@D@2@@std@@V?$weak_ptr@VRawImageData@@@2@@std@@PAX@std@@@std@@@std@@QAE@AAV?$allocator@U?$_Tree_node@U?$pair@$$CBV?$basic_string@DU?$char_traits@D@std@@V?$allocator@D@2@@std@@V?$weak_ptr@VRawImageData@@@2@@std@@PAX@std@@@1@PAU?$_Tree_node@U?$pair@$$CBV?$basic_string@DU?$char_traits@D@std@@V?$allocator@D@2@@std@@V?$weak_ptr@VRawImageData@@@2@@std@@PAX@1@$$QAU?$pair@V?$basic_string@DU?$char_traits@D@std@@V?$allocator@D@2@@std@@V?$weak_ptr@VRawImageData@@@2@@1@@Z$0 00400000 f   ImageMappingDemo.obj
 0001:fffff000       __unwindfunclet$??$?0VRawImageData@@$0A@@?$shared_ptr@VRawImageData@@@std@@QAE@PAVRawImageData@@@Z$0 00400000 f   ImageMappingDemo.obj
 0001:fffff000       __unwindfunclet$??$?6U?$char_traits@D@std@@@std@@YAAAV?$basic_ostream@DU?$char_traits@D@std@@@0@AAV10@PBD@Z$2 00400000 f   ImageMappingDemo.obj
 0001:fffff000       __unwindfunclet$??$_Construct@$00PBD@?$basic_string@DU?$char_traits@D@std@@V?$allocator@D@2@@std@@AAEXQBDI@Z$0 00400000 f   ImageMappingDemo.obj
 0001:fffff000       __unwindfunclet$??$_Construct@$01PBD@?$basic_string@DU?$char_traits@D@std@@V?$allocator@D@2@@std@@AAEXQBDI@Z$0 00400000 f   ImageMappingDemo.obj
 0001:fffff000       __unwindfunclet$??$_Insert_string@DU?$char_traits@D@std@@I@std@@YAAAV?$basic_ostream@DU?$char_traits@D@std@@@0@AAV10@QBDI@Z$2 00400000 f   ImageMappingDemo.obj
 0001:fffff000       __unwindfunclet$??$_Uninitialized_move@PAPAVDisplayableObject@@V?$allocator@PAVDisplayableObject@@@std@@@std@@YAPAPAVDisplayableObject@@QAPAV1@0PAPAV1@AAV?$allocator@PAVDisplayableObject@@@0@@Z$0 00400000 f   ImageMappingDemo.obj
 0001:fffff000       __unwindfunclet$??$_Uninitialized_value_construct_n@V?$allocator@PAVDisplayableObject@@@std@@@std@@YAPAPAVDisplayableObject@@PAPAV1@IAAV?$allocator@PAVDisplayableObject@@@0@@Z$0 00400000 f   ImageMappingDemo.obj
 0001:fffff000       __unwindfunclet$??0?$_Tree_temp_node_alloc@V?$allocator@U?$_Tree_node@U?$pair@$$CBV?$basic_string@DU?$char_traits@D@std@@V?$allocator@D@2@@std@@V?$shared_ptr@VRawImageData@@@2@@std@@PAX@std@@@std@@@std@@QAE@AAV?$allocator@U?$_Tree_node@U?$pair@$$CBV?$basic_string@DU?$char_traits@D@std@@V?$allocator@D@2@@std@@V?$shared_ptr@VRawImageData@@@2@@std@@PAX@std@@@1@@Z$0 00400000 f   ImageMappingDemo.obj
 0001:fffff000       __unwindfunclet$??0?$_Tree_temp_node_alloc@V?$allocator@U?$_Tree_node@U?$pair@$$CBV?$basic_string@DU?$char_traits@D@std@@V?$allocator@D@2@@std@@V?$weak_ptr@VRawImageData@@@2@@std@@PAX@std@@@std@@@std@@QAE@AAV?$allocator@U?$_Tree_node@U?$pair@$$CBV?$basic_string@DU?$char_traits@D@std@@V?$allocator@D@2@@std@@V?$weak_ptr@VRawImageData@@@2@@std@@PAX@std@@@1@@Z$0 00400000 f   ImageMappingDemo.obj
 0001:fffff000       __unwindfunclet$??0?$basic_string@DU?$char_traits@D@std@@V?$allocator@D@2@@std@@QAE@ABV01@@Z$0 00400000 f   ImageMappingDemo.obj
 0001:fffff000       __unwindfunclet$??0?$basic_string@DU?$char_traits@D@std@@V?$allocator@D@2@@std@@QAE@QBD@Z$0 00400000 f   ImageMappingDemo.obj
 0001:fffff000       __unwindfunclet$??0DragableImageObject@@QAE@HHPAVBaseEngine@@V?$basic_string@DU?$char_traits@D@std@@V?$allocator@D@2@@std@@_N2@Z$0 00400000 f   ImageMappingDemo.obj
 0001:fffff000       __unwindfunclet$??0ImageManager@@QAE@XZ$0 00400000 f   ImageMappingDemo.obj
 0001:fffff000       __unwindfunclet$??0RawImageData@@QAE@V?$basic_string@DU?$char_traits@D@std@@V?$allocator@D@2@@std@@@Z$0 00400000 f   ImageMappingDemo.obj
 0001:fffff000       __unwindfunclet$??0sentry@?$basic_ostream@DU?$char_traits@D@std@@@std@@QAE@AAV12@@Z$0 00400000 f   ImageMappingDemo.obj
 0001:fffff000       __unwindfunclet$?_Alloc_sentinel_and_proxy@?$_Tree@V?$_Tmap_traits@V?$basic_string@DU?$char_traits@D@std@@V?$allocator@D@2@@std@@V?$shared_ptr@VRawImageData@@@2@U?$less@V?$basic_string@DU?$char_traits@D@std@@V?$allocator@D@2@@std@@@2@V?$allocator@U?$pair@$$CBV?$basic_string@DU?$char_traits@D@std@@V?$allocator@D@2@@std@@V?$shared_ptr@VRawImageData@@@2@@std@@@2@$0A@@std@@@std@@IAEXXZ$0 00400000 f   ImageMappingDemo.obj
 0001:fffff000       __unwindfunclet$?_Alloc_sentinel_and_proxy@?$_Tree@V?$_Tmap_traits@V?$basic_string@DU?$char_traits@D@std@@V?$allocator@D@2@@std@@V?$weak_ptr@VRawImageData@@@2@U?$less@V?$basic_string@DU?$char_traits@D@std@@V?$allocator@D@2@@std@@@2@V?$allocator@U?$pair@$$CBV?$basic_string@DU?$char_traits@D@std@@V?$allocator@D@2@@std@@V?$weak_ptr@VRawImageData@@@2@@std@@@2@$0A@@std@@@std@@IAEXXZ$0 00400000 f   ImageMappingDemo.obj
 0001:fffff000       __unwindfunclet$?_Orphan_range_locked@?$vector@PAVDisplayableObject@@V?$allocator@PAVDisplayableObject@@@std@@@std@@ABEXPAPAVDisplayableObject@@0@Z$0 00400000 f   ImageMappingDemo.obj
 0001:fffff000       __unwindfunclet$?get@ImageManager@@SAPAV1@XZ$0 00400000 f   ImageMappingDemo.obj
 0001:fffff000       __unwindfunclet$?getImagePtrbyURL@ImageManager@@QAE?AV?$shared_ptr@VRawImageData@@@std@@V?$basic_string@DU?$char_traits@D@std@@V?$allocator@D@2@@3@_N1@Z$0 00400000 f   ImageMappingDemo.obj
 0001:fffff000       __unwindfunclet$?getImagebyURL@ImageManager@@QAE?AVSimpleImage@@V?$basic_string@DU?$char_traits@D@std@@V?$allocator@D@2@@std@@_N1@Z$0 00400000 f   ImageMappingDemo.obj
 0001:fffff000       __unwindfunclet$?loadAsNew@ImageManager@@QAE?AV?$shared_ptr@VRawImageData@@@std@@V?$basic_string@DU?$char_traits@D@std@@V?$allocator@D@2@@3@@Z$0 00400000 f   ImageMappingDemo.obj
 0001:fffff000       __unwindfunclet$?loadImage@RawImageData@@QAE_NV?$basic_string@DU?$char_traits@D@std@@V?$allocator@D@2@@std@@HHHHH_N@Z$0 00400000 f   ImageMappingDemo.obj
 0002:fffb4000       __unwindtable$??$?0U?$pair@V?$basic_string@DU?$char_traits@D@std@@V?$allocator@D@2@@std@@V?$shared_ptr@VRawImageData@@@2@@std@@@?$_Tree_temp_node@V?$allocator@U?$_Tree_node@U?$pair@$$CBV?$basic_string@DU?$char_traits@D@std@@V?$allocator@D@2@@std@@V?$shared_ptr@VRawImageData@@@2@@std@@PAX@std@@@std@@@std@@QAE@AAV?$allocator@U?$_Tree_node@U?$pair@$$CBV?$basic_string@DU?$char_traits@D@std@@V?$allocator@D@2@@std@@V?$shared_ptr@VRawImageData@@@2@@std@@PAX@std@@@1@PAU?$_Tree_node@U?$pair@$$CBV?$basic_string@DU?$char_traits@D@std@@V?$allocator@D@2@@std@@V?$shared_ptr@VRawImageData@@@2@@std@@PAX@1@$$QAU?$pair@V?$basic_string@DU?$char_traits@D@std@@V?$allocator@D@2@@std@@V?$shared_ptr@VRawImageData@@@2@@1@@Z 00400000     ImageMappingDemo.obj
 0002:fffb4000       __unwindtable$??$?0U?$pair@V?$basic_string@DU?$char_traits@D@std@@V?$allocator@D@2@@std@@V?$weak_ptr@VRawImageData@@@2@@std@@@?$_Tree_temp_node@V?$allocator@U?$_Tree_node@U?$pair@$$CBV?$basic_string@DU?$char_traits@D@std@@V?$allocator@D@2@@std@@V?$weak_ptr@VRawImageData@@@2@@std@@PAX@std@@@std@@@std@@QAE@AAV?$allocator@U?$_Tree_node@U?$pair@$$CBV?$basic_string@DU?$char_traits@D@std@@V?$allocator@D@2@@std@@V?$weak_ptr@VRawImageData@@@2@@std@@PAX@std@@@1@PAU?$_Tree_node@U?$pair@$$CBV?$basic_string@DU?$char_traits@D@std@@V?$allocator@D@2@@std@@V?$weak_ptr@VRawImageData@@@2@@std@@PAX@1@$$QAU?$pair@V?$basic_string@DU?$char_traits@D@std@@V?$allocator@D@2@@std@@V?$weak_ptr@VRawImageData@@@2@@1@@Z 00400000     ImageMappingDemo.obj
 0002:fffb4000       __unwindtable$??$?0VRawImageData@@$0A@@?$shared_ptr@VRawImageData@@@std@@QAE@PAVRawImageData@@@Z 00400000     ImageMappingDemo.obj
 0002:fffb4000       __unwindtable$??$_Construct@$00PBD@?$basic_string@DU?$char_traits@D@std@@V?$allocator@D@2@@std@@AAEXQBDI@Z 00400000     ImageMappingDemo.obj
 0002:fffb4000       __unwindtable$??$_Construct@$01PBD@?$basic_string@DU?$char_traits@D@std@@V?$allocator@D@2@@std@@AAEXQBDI@Z 00400000     ImageMappingDemo.obj
 0002:fffb4000       __unwindtable$??$_Uninitialized_move@PAPAVDisplayableObject@@V?$allocator@PAVDisplayableObject@@@std@@@std@@YAPAPAVDisplayableObject@@QAPAV1@0PAPAV1@AAV?$allocator@PAVDisplayableObject@@@0@@Z 00400000     ImageMappingDemo.obj
 0002:fffb4000       __unwindtable$??$_Uninitialized_value_construct_n@V?$allocator@PAVDisplayableObject@@@std@@@std@@YAPAPAVDisplayableObject@@PAPAV1@IAAV?$allocator@PAVDisplayableObject@@@0@@Z 00400000     ImageMappingDemo.obj
 0002:fffb4000       __unwindtable$??0?$_Tree_temp_node_alloc@V?$allocator@U?$_Tree_node@U?$pair@$$CBV?$basic_string@DU?$char_traits@D@std@@V?$allocator@D@2@@std@@V?$shared_ptr@VRawImageData@@@2@@std@@PAX@std@@@std@@@std@@QAE@AAV?$allocator@U?$_Tree_node@U?$pair@$$CBV?$basic_string@DU?$char_traits@D@std@@V?$allocator@D@2@@std@@V?$shared_ptr@VRawImageData@@@2@@std@@PAX@std@@@1@@Z 00400000     ImageMappingDemo.obj
 0002:fffb4000       __unwindtable$??0?$_Tree_temp_node_alloc@V?$allocator@U?$_Tree_node@U?$pair@$$CBV?$basic_string@DU?$char_traits@D@std@@V?$allocator@D@2@@std@@V?$weak_ptr@VRawImageData@@@2@@std@@PAX@std@@@std@@@std@@QAE@AAV?$allocator@U?$_Tree_node@U?$pair@$$CBV?$basic_string@DU?$char_traits@D@std@@V?$allocator@D@2@@std@@V?$weak_ptr@VRawImageData@@@2@@std@@PAX@std@@@1@@Z 00400000     ImageMappingDemo.obj
 0002:fffb4000       __unwindtable$??0?$basic_string@DU?$char_traits@D@std@@V?$allocator@D@2@@std@@QAE@ABV01@@Z 00400000     ImageMappingDemo.obj
 0002:fffb4000       __unwindtable$??0?$basic_string@DU?$char_traits@D@std@@V?$allocator@D@2@@std@@QAE@QBD@Z 00400000     ImageMappingDemo.obj
 0002:fffb4000       __unwindtable$??0DragableImageObject@@QAE@HHPAVBaseEngine@@V?$basic_string@DU?$char_traits@D@std@@V?$allocator@D@2@@std@@_N2@Z 00400000     ImageMappingDemo.obj
 0002:fffb4000       __unwindtable$??0ImageManager@@QAE@XZ 00400000     ImageMappingDemo.obj
 0002:fffb4000       __unwindtable$??0RawImageData@@QAE@V?$basic_string@DU?$char_traits@D@std@@V?$allocator@D@2@@std@@@Z 00400000     ImageMappingDemo.obj
 0002:fffb4000       __unwindtable$??0sentry@?$basic_ostream@DU?$char_traits@D@std@@@std@@QAE@AAV12@@Z 00400000     ImageMappingDemo.obj
 0002:fffb4000       __unwindtable$?_Alloc_sentinel_and_proxy@?$_Tree@V?$_Tmap_traits@V?$basic_string@DU?$char_traits@D@std@@V?$allocator@D@2@@std@@V?$shared_ptr@VRawImageData@@@2@U?$less@V?$basic_string@DU?$char_traits@D@std@@V?$allocator@D@2@@std@@@2@V?$allocator@U?$pair@$$CBV?$basic_string@DU?$char_traits@D@std@@V?$allocator@D@2@@std@@V?$shared_ptr@VRawImageData@@@2@@std@@@2@$0A@@std@@@std@@IAEXXZ 00400000     ImageMappingDemo.obj
 0002:fffb4000       __unwindtable$?_Alloc_sentinel_and_proxy@?$_Tree@V?$_Tmap_traits@V?$basic_string@DU?$char_traits@D@std@@V?$allocator@D@2@@std@@V?$weak_ptr@VRawImageData@@@2@U?$less@V?$basic_string@DU?$char_traits@D@std@@V?$allocator@D@2@@std@@@2@V?$allocator@U?$pair@$$CBV?$basic_string@DU?$char_traits@D@std@@V?$allocator@D@2@@std@@V?$weak_ptr@VRawImageData@@@2@@std@@@2@$0A@@std@@@std@@IAEXXZ 00400000     ImageMappingDemo.obj
 0002:fffb4000       __unwindtable$?_Orphan_range_locked@?$vector@PAVDisplayableObject@@V?$allocator@PAVDisplayableObject@@@std@@@std@@ABEXPAPAVDisplayableObject@@0@Z 00400000     ImageMappingDemo.obj
 0002:fffb4000       __unwindtable$?get@ImageManager@@SAPAV1@XZ 00400000     ImageMappingDemo.obj
 0002:fffb4000       __unwindtable$?getImagebyURL@ImageManager@@QAE?AVSimpleImage@@V?$basic_string@DU?$char_traits@D@std@@V?$allocator@D@2@@std@@_N1@Z 00400000     ImageMappingDemo.obj
 0002:fffb4000       __unwindtable$?loadAsNew@ImageManager@@QAE?AV?$shared_ptr@VRawImageData@@@std@@V?$basic_string@DU?$char_traits@D@std@@V?$allocator@D@2@@3@@Z 00400000     ImageMappingDemo.obj
 0002:fffb4000       __unwindtable$?loadImage@RawImageData@@QAE_NV?$basic_string@DU?$char_traits@D@std@@V?$allocator@D@2@@std@@HHHHH_N@Z 00400000     ImageMappingDemo.obj
 0000:00000000       _volmd                     00400000     ImageMappingDemo.obj
 0000:00000000       _volmd                     00400000     ImageMappingDemo.obj
 0000:00000000       _volmd                     00400000     ImageMappingDemo.obj
 0000:00000000       _volmd                     00400000     ImageMappingDemo.obj
 0000:00000000       _volmd                     00400000     ImageMappingDemo.obj
 0000:00000000       _volmd                     00400000     ImageMappingDemo.obj
 0000:00000000       _volmd                     00400000     ImageMappingDemo.obj
 0000:00000000       _volmd                     00400000     ImageMappingDemo.obj
 0000:00000000       _volmd                     00400000     ImageMappingDemo.obj
 0000:00000000       _volmd                     00400000     ImageMappingDemo.obj
 0000:00000000       _volmd                     00400000     ImageMappingDemo.obj
 0000:00000000       _volmd                     00400000     ImageMappingDemo.obj
 0000:00000000       _volmd                     00400000     ImageMappingDemo.obj
 0000:00000000       _volmd                     00400000     ImageMappingDemo.obj
 0000:00000000       _volmd                     00400000     ImageMappingDemo.obj
 0000:00000000       _volmd                     00400000     ImageMappingDemo.obj
 0000:00000000       _volmd                     00400000     ImageMappingDemo.obj
 0000:00000000       _volmd                     00400000     ImageMappingDemo.obj
 0000:00000000       _volmd                     00400000     ImageMappingDemo.obj
 0000:00000000       _volmd                     00400000     ImageMappingDemo.obj
 0000:00000000       _volmd                     00400000     ImageMappingDemo.obj
 0000:00000000       _volmd                     00400000     ImageMappingDemo.obj
 0000:00000000       _volmd                     00400000     ImageMappingDemo.obj
 0000:00000000       _volmd                     00400000     ImageMappingDemo.obj
 0000:00000000       _volmd                     00400000     ImageMappingDemo.obj
 0000:00000000       _volmd                     00400000     ImageMappingDemo.obj
 0000:00000000       _volmd                     00400000     ImageMappingDemo.obj
 0000:00000000       _volmd                     00400000     ImageMappingDemo.obj
 0000:00000000       _volmd                     00400000     ImageMappingDemo.obj
 0000:00000000       _volmd                     00400000     ImageMappingDemo.obj
 0000:00000000       _volmd                     00400000     ImageMappingDemo.obj
 0000:00000000       _volmd                     00400000     ImageMappingDemo.obj
 0000:00000000       _volmd                     00400000     ImageMappingDemo.obj
 0000:00000000       _volmd                     00400000     ImageMappingDemo.obj
 0000:00000000       _volmd                     00400000     ImageMappingDemo.obj
 0000:00000000       _volmd                     00400000     ImageMappingDemo.obj
 0000:00000000       _volmd                     00400000     ImageMappingDemo.obj
 0000:00000000       _volmd                     00400000     ImageMappingDemo.obj
 0000:00000000       _volmd                     00400000     ImageMappingDemo.obj
 0000:00000000       _volmd                     00400000     ImageMappingDemo.obj
 0000:00000000       _volmd                     00400000     ImageMappingDemo.obj
 0000:00000000       _volmd                     00400000     ImageMappingDemo.obj
 0002:fffb4000       __catchsym$??$_Resize_reallocate@U_Value_init_tag@std@@@?$vector@PAVDisplayableObject@@V?$allocator@PAVDisplayableObject@@@std@@@std@@AAEXIABU_Value_init_tag@1@@Z$2 00400000     MazeDemoMain.obj
 0002:fffb4000       __ehfuncinfo$??$_Deallocate@$07$0A@@std@@YAXPAXI@Z 00400000     MazeDemoMain.obj
 0001:fffff000       __ehhandler$??$_Deallocate@$07$0A@@std@@YAXPAXI@Z 00400000 f   MazeDemoMain.obj
 0001:fffff000       __ehhandler$??$_Resize_reallocate@U_Value_init_tag@std@@@?$vector@PAVDisplayableObject@@V?$allocator@PAVDisplayableObject@@@std@@@std@@AAEXIABU_Value_init_tag@1@@Z 00400000 f   MazeDemoMain.obj
 0001:fffff000       __unwindfunclet$??$_Uninitialized_move@PAPAVDisplayableObject@@V?$allocator@PAVDisplayableObject@@@std@@@std@@YAPAPAVDisplayableObject@@QAPAV1@0PAPAV1@AAV?$allocator@PAVDisplayableObject@@@0@@Z$0 00400000 f   MazeDemoMain.obj
 0001:fffff000       __unwindfunclet$??$_Uninitialized_value_construct_n@V?$allocator@PAVDisplayableObject@@@std@@@std@@YAPAPAVDisplayableObject@@PAPAV1@IAAV?$allocator@PAVDisplayableObject@@@0@@Z$0 00400000 f   MazeDemoMain.obj
 0001:fffff000       __unwindfunclet$?_Orphan_range_locked@?$vector@PAVDisplayableObject@@V?$allocator@PAVDisplayableObject@@@std@@@std@@ABEXPAPAVDisplayableObject@@0@Z$0 00400000 f   MazeDemoMain.obj
 0002:fffb4000       __unwindtable$??$_Uninitialized_move@PAPAVDisplayableObject@@V?$allocator@PAVDisplayableObject@@@std@@@std@@YAPAPAVDisplayableObject@@QAPAV1@0PAPAV1@AAV?$allocator@PAVDisplayableObject@@@0@@Z 00400000     MazeDemoMain.obj
 0002:fffb4000       __unwindtable$??$_Uninitialized_value_construct_n@V?$allocator@PAVDisplayableObject@@@std@@@std@@YAPAPAVDisplayableObject@@PAPAV1@IAAV?$allocator@PAVDisplayableObject@@@0@@Z 00400000     MazeDemoMain.obj
 0002:fffb4000       __unwindtable$?_Orphan_range_locked@?$vector@PAVDisplayableObject@@V?$allocator@PAVDisplayableObject@@@std@@@std@@ABEXPAPAVDisplayableObject@@0@Z 00400000     MazeDemoMain.obj
 0000:00000000       _volmd                     00400000     MazeDemoMain.obj
 0000:00000000       _volmd                     00400000     MazeDemoMain.obj
 0000:00000000       _volmd                     00400000     MazeDemoMain.obj
 0000:00000000       _volmd                     00400000     MazeDemoMain.obj
 0000:00000000       _volmd                     00400000     MazeDemoMain.obj
 0000:00000000       _volmd                     00400000     MazeDemoMain.obj
 0000:00000000       _volmd                     00400000     MazeDemoMain.obj
 0000:00000000       _volmd                     00400000     MazeDemoMain.obj
 0000:00000000       _volmd                     00400000     MazeDemoObject.obj
 0002:fffb4000       __catchsym$??$?6U?$char_traits@D@std@@@std@@YAAAV?$basic_ostream@DU?$char_traits@D@std@@@0@AAV10@PBD@Z$3 00400000     MenuBackdrop.obj
 0002:fffb4000       __catchsym$??$_Insert_string@DU?$char_traits@D@std@@I@std@@YAAAV?$basic_ostream@DU?$char_traits@D@std@@@0@AAV10@QBDI@Z$3 00400000     MenuBackdrop.obj
 0002:fffb4000       __ehfuncinfo$??$_Deallocate@$07$0A@@std@@YAXPAXI@Z 00400000     MenuBackdrop.obj
 0002:fffb4000       __ehfuncinfo$??$_Deallocate_plain@V?$allocator@U_Container_proxy@std@@@std@@@std@@YAXAAV?$allocator@U_Container_proxy@std@@@0@QAU_Container_proxy@0@@Z 00400000     MenuBackdrop.obj
 0002:fffb4000       __ehfuncinfo$??$_Freenode0@V?$allocator@U?$_Tree_node@U?$pair@$$CBV?$basic_string@DU?$char_traits@D@std@@V?$allocator@D@2@@std@@V?$weak_ptr@VRawImageData@@@2@@std@@PAX@std@@@std@@@?$_Tree_node@U?$pair@$$CBV?$basic_string@DU?$char_traits@D@std@@V?$allocator@D@2@@std@@V?$weak_ptr@VRawImageData@@@2@@std@@PAX@std@@SAXAAV?$allocator@U?$_Tree_node@U?$pair@$$CBV?$basic_string@DU?$char_traits@D@std@@V?$allocator@D@2@@std@@V?$weak_ptr@VRawImageData@@@2@@std@@PAX@std@@@1@PAU01@@Z 00400000     MenuBackdrop.obj
 0002:fffb4000       __ehfuncinfo$??$_Freenode@V?$allocator@U?$_Tree_node@U?$pair@$$CBV?$basic_string@DU?$char_traits@D@std@@V?$allocator@D@2@@std@@V?$weak_ptr@VRawImageData@@@2@@std@@PAX@std@@@std@@@?$_Tree_node@U?$pair@$$CBV?$basic_string@DU?$char_traits@D@std@@V?$allocator@D@2@@std@@V?$weak_ptr@VRawImageData@@@2@@std@@PAX@std@@SAXAAV?$allocator@U?$_Tree_node@U?$pair@$$CBV?$basic_string@DU?$char_traits@D@std@@V?$allocator@D@2@@std@@V?$weak_ptr@VRawImageData@@@2@@std@@PAX@std@@@1@PAU01@@Z 00400000     MenuBackdrop.obj
 0002:fffb4000       __ehfuncinfo$??0?$basic_string@DU?$char_traits@D@std@@V?$allocator@D@2@@std@@QAE@$$QAV01@@Z 00400000     MenuBackdrop.obj
 0002:fffb4000       __ehfuncinfo$??1?$_Alloc_construct_ptr@V?$allocator@U?$_Tree_node@U?$pair@$$CBV?$basic_string@DU?$char_traits@D@std@@V?$allocator@D@2@@std@@V?$shared_ptr@VRawImageData@@@2@@std@@PAX@std@@@std@@@std@@QAE@XZ 00400000     MenuBackdrop.obj
 0002:fffb4000       __ehfuncinfo$??1?$_Alloc_construct_ptr@V?$allocator@U?$_Tree_node@U?$pair@$$CBV?$basic_string@DU?$char_traits@D@std@@V?$allocator@D@2@@std@@V?$weak_ptr@VRawImageData@@@2@@std@@PAX@std@@@std@@@std@@QAE@XZ 00400000     MenuBackdrop.obj
 0002:fffb4000       __ehfuncinfo$??1?$_Tree_temp_node@V?$allocator@U?$_Tree_node@U?$pair@$$CBV?$basic_string@DU?$char_traits@D@std@@V?$allocator@D@2@@std@@V?$shared_ptr@VRawImageData@@@2@@std@@PAX@std@@@std@@@std@@QAE@XZ 00400000     MenuBackdrop.obj
 0002:fffb4000       __ehfuncinfo$??1?$_Tree_temp_node@V?$allocator@U?$_Tree_node@U?$pair@$$CBV?$basic_string@DU?$char_traits@D@std@@V?$allocator@D@2@@std@@V?$weak_ptr@VRawImageData@@@2@@std@@PAX@std@@@std@@@std@@QAE@XZ 00400000     MenuBackdrop.obj
 0002:fffb4000       __ehfuncinfo$??1RawImageData@@QAE@XZ 00400000     MenuBackdrop.obj
 0002:fffb4000       __ehfuncinfo$??1_Sentry_base@?$basic_ostream@DU?$char_traits@D@std@@@std@@QAE@XZ 00400000     MenuBackdrop.obj
 0002:fffb4000       __ehfuncinfo$?_Deallocate_for_capacity@?$basic_string@DU?$char_traits@D@std@@V?$allocator@D@2@@std@@CAXAAV?$allocator@D@2@QADI@Z 00400000     MenuBackdrop.obj
 0002:fffb4000       __ehfuncinfo$?getImagePtrbyURL@ImageManager@@QAE?AV?$shared_ptr@VRawImageData@@@std@@V?$basic_string@DU?$char_traits@D@std@@V?$allocator@D@2@@3@_N1@Z 00400000     MenuBackdrop.obj
 0001:fffff000       __ehhandler$??$_Deallocate@$07$0A@@std@@YAXPAXI@Z 00400000 f   MenuBackdrop.obj
 0001:fffff000       __ehhandler$??$_Deallocate_plain@V?$allocator@U_Container_proxy@std@@@std@@@std@@YAXAAV?$allocator@U_Container_proxy@std@@@0@QAU_Container_proxy@0@@Z 00400000 f   MenuBackdrop.obj
 0001:fffff000       __ehhandler$??$_Freenode0@V?$allocator@U?$_Tree_node@U?$pair@$$CBV?$basic_string@DU?$char_traits@D@std@@V?$allocator@D@2@@std@@V?$weak_ptr@VRawImageData@@@2@@std@@PAX@std@@@std@@@?$_Tree_node@U?$pair@$$CBV?$basic_string@DU?$char_traits@D@std@@V?$allocator@D@2@@std@@V?$weak_ptr@VRawImageData@@@2@@std@@PAX@std@@SAXAAV?$allocator@U?$_Tree_node@U?$pair@$$CBV?$basic_string@DU?$char_traits@D@std@@V?$allocator@D@2@@std@@V?$weak_ptr@VRawImageData@@@2@@std@@PAX@std@@@1@PAU01@@Z 00400000 f   MenuBackdrop.obj
 0001:fffff000       __ehhandler$??$_Freenode@V?$allocator@U?$_Tree_node@U?$pair@$$CBV?$basic_string@DU?$char_traits@D@std@@V?$allocator@D@2@@std@@V?$weak_ptr@VRawImageData@@@2@@std@@PAX@std@@@std@@@?$_Tree_node@U?$pair@$$CBV?$basic_string@DU?$char_traits@D@std@@V?$allocator@D@2@@std@@V?$weak_ptr@VRawImageData@@@2@@std@@PAX@std@@SAXAAV?$allocator@U?$_Tree_node@U?$pair@$$CBV?$basic_string@DU?$char_traits@D@std@@V?$allocator@D@2@@std@@V?$weak_ptr@VRawImageData@@@2@@std@@PAX@std@@@1@PAU01@@Z 00400000 f   MenuBackdrop.obj
 0001:fffff000       __ehhandler$??0?$basic_string@DU?$char_traits@D@std@@V?$allocator@D@2@@std@@QAE@$$QAV01@@Z 00400000 f   MenuBackdrop.obj
 0001:fffff000       __ehhandler$??1?$_Alloc_construct_ptr@V?$allocator@U?$_Tree_node@U?$pair@$$CBV?$basic_string@DU?$char_traits@D@std@@V?$allocator@D@2@@std@@V?$shared_ptr@VRawImageData@@@2@@std@@PAX@std@@@std@@@std@@QAE@XZ 00400000 f   MenuBackdrop.obj
 0001:fffff000       __ehhandler$??1?$_Alloc_construct_ptr@V?$allocator@U?$_Tree_node@U?$pair@$$CBV?$basic_string@DU?$char_traits@D@std@@V?$allocator@D@2@@std@@V?$weak_ptr@VRawImageData@@@2@@std@@PAX@std@@@std@@@std@@QAE@XZ 00400000 f   MenuBackdrop.obj
 0001:fffff000       __ehhandler$??1?$_Tree_temp_node@V?$allocator@U?$_Tree_node@U?$pair@$$CBV?$basic_string@DU?$char_traits@D@std@@V?$allocator@D@2@@std@@V?$shared_ptr@VRawImageData@@@2@@std@@PAX@std@@@std@@@std@@QAE@XZ 00400000 f   MenuBackdrop.obj
 0001:fffff000       __ehhandler$??1?$_Tree_temp_node@V?$allocator@U?$_Tree_node@U?$pair@$$CBV?$basic_string@DU?$char_traits@D@std@@V?$allocator@D@2@@std@@V?$weak_ptr@VRawImageData@@@2@@std@@PAX@std@@@std@@@std@@QAE@XZ 00400000 f   MenuBackdrop.obj
 0001:fffff000       __ehhandler$??1RawImageData@@QAE@XZ 00400000 f   MenuBackdrop.obj
 0001:fffff000       __ehhandler$??1_Sentry_base@?$basic_ostream@DU?$char_traits@D@std@@@std@@QAE@XZ 00400000 f   MenuBackdrop.obj
 0001:fffff000       __ehhandler$?_Deallocate_for_capacity@?$basic_string@DU?$char_traits@D@std@@V?$allocator@D@2@@std@@CAXAAV?$allocator@D@2@QADI@Z 00400000 f   MenuBackdrop.obj
 0001:fffff000       __unwindfunclet$??$?0U?$pair@V?$basic_string@DU?$char_traits@D@std@@V?$allocator@D@2@@std@@V?$shared_ptr@VRawImageData@@@2@@std@@@?$_Tree_temp_node@V?$allocator@U?$_Tree_node@U?$pair@$$CBV?$basic_string@DU?$char_traits@D@std@@V?$allocator@D@2@@std@@V?$shared_ptr@VRawImageData@@@2@@std@@PAX@std@@@std@@@std@@QAE@AAV?$allocator@U?$_Tree_node@U?$pair@$$CBV?$basic_string@DU?$char_traits@D@std@@V?$allocator@D@2@@std@@V?$shared_ptr@VRawImageData@@@2@@std@@PAX@std@@@1@PAU?$_Tree_node@U?$pair@$$CBV?$basic_string@DU?$char_traits@D@std@@V?$allocator@D@2@@std@@V?$shared_ptr@VRawImageData@@@2@@std@@PAX@1@$$QAU?$pair@V?$basic_string@DU?$char_traits@D@std@@V?$allocator@D@2@@std@@V?$shared_ptr@VRawImageData@@@2@@1@@Z$0 00400000 f   MenuBackdrop.obj
 0001:fffff000       __unwindfunclet$??$?0U?$pair@V?$basic_string@DU?$char_traits@D@std@@V?$allocator@D@2@@std@@V?$weak_ptr@VRawImageData@@@2@@std@@@?$_Tree_temp_node@V?$allocator@U?$_Tree_node@U?$pair@$$CBV?$basic_string@DU?$char_traits@D@std@@V?$allocator@D@2@@std@@V?$weak_ptr@VRawImageData@@@2@@std@@PAX@std@@@std@@@std@@QAE@AAV?$allocator@U?$_Tree_node@U?$pair@$$CBV?$basic_string@DU?$char_traits@D@std@@V?$allocator@D@2@@std@@V?$weak_ptr@VRawImageData@@@2@@std@@PAX@std@@@1@PAU?$_Tree_node@U?$pair@$$CBV?$basic_string@DU?$char_traits@D@std@@V?$allocator@D@2@@std@@V?$weak_ptr@VRawImageData@@@2@@std@@PAX@1@$$QAU?$pair@V?$basic_string@DU?$char_traits@D@std@@V?$allocator@D@2@@std@@V?$weak_ptr@VRawImageData@@@2@@1@@Z$0 00400000 f   MenuBackdrop.obj
 0001:fffff000       __unwindfunclet$??$?0VRawImageData@@$0A@@?$shared_ptr@VRawImageData@@@std@@QAE@PAVRawImageData@@@Z$0 00400000 f   MenuBackdrop.obj
 0001:fffff000       __unwindfunclet$??$?6U?$char_traits@D@std@@@std@@YAAAV?$basic_ostream@DU?$char_traits@D@std@@@0@AAV10@PBD@Z$2 00400000 f   MenuBackdrop.obj
 0001:fffff000       __unwindfunclet$??$_Construct@$00PBD@?$basic_string@DU?$char_traits@D@std@@V?$allocator@D@2@@std@@AAEXQBDI@Z$0 00400000 f   MenuBackdrop.obj
 0001:fffff000       __unwindfunclet$??$_Construct@$01PBD@?$basic_string@DU?$char_traits@D@std@@V?$allocator@D@2@@std@@AAEXQBDI@Z$0 00400000 f   MenuBackdrop.obj
 0001:fffff000       __unwindfunclet$??$_Insert_string@DU?$char_traits@D@std@@I@std@@YAAAV?$basic_ostream@DU?$char_traits@D@std@@@0@AAV10@QBDI@Z$2 00400000 f   MenuBackdrop.obj
 0001:fffff000       __unwindfunclet$??0?$_Tree_temp_node_alloc@V?$allocator@U?$_Tree_node@U?$pair@$$CBV?$basic_string@DU?$char_traits@D@std@@V?$allocator@D@2@@std@@V?$shared_ptr@VRawImageData@@@2@@std@@PAX@std@@@std@@@std@@QAE@AAV?$allocator@U?$_Tree_node@U?$pair@$$CBV?$basic_string@DU?$char_traits@D@std@@V?$allocator@D@2@@std@@V?$shared_ptr@VRawImageData@@@2@@std@@PAX@std@@@1@@Z$0 00400000 f   MenuBackdrop.obj
 0001:fffff000       __unwindfunclet$??0?$_Tree_temp_node_alloc@V?$allocator@U?$_Tree_node@U?$pair@$$CBV?$basic_string@DU?$char_traits@D@std@@V?$allocator@D@2@@std@@V?$weak_ptr@VRawImageData@@@2@@std@@PAX@std@@@std@@@std@@QAE@AAV?$allocator@U?$_Tree_node@U?$pair@$$CBV?$basic_string@DU?$char_traits@D@std@@V?$allocator@D@2@@std@@V?$weak_ptr@VRawImageData@@@2@@std@@PAX@std@@@1@@Z$0 00400000 f   MenuBackdrop.obj
 0001:fffff000       __unwindfunclet$??0?$basic_string@DU?$char_traits@D@std@@V?$allocator@D@2@@std@@QAE@ABV01@@Z$0 00400000 f   MenuBackdrop.obj
 0001:fffff000       __unwindfunclet$??0?$basic_string@DU?$char_traits@D@std@@V?$allocator@D@2@@std@@QAE@QBD@Z$0 00400000 f   MenuBackdrop.obj
 0001:fffff000       __unwindfunclet$??0ImageManager@@QAE@XZ$0 00400000 f   MenuBackdrop.obj
 0001:fffff000       __unwindfunclet$??0RawImageData@@QAE@V?$basic_string@DU?$char_traits@D@std@@V?$allocator@D@2@@std@@@Z$0 00400000 f   MenuBackdrop.obj
 0001:fffff000       __unwindfunclet$??0sentry@?$basic_ostream@DU?$char_traits@D@std@@@std@@QAE@AAV12@@Z$0 00400000 f   MenuBackdrop.obj
 0001:fffff000       __unwindfunclet$?_Alloc_sentinel_and_proxy@?$_Tree@V?$_Tmap_traits@V?$basic_string@DU?$char_traits@D@std@@V?$allocator@D@2@@std@@V?$shared_ptr@VRawImageData@@@2@U?$less@V?$basic_string@DU?$char_traits@D@std@@V?$allocator@D@2@@std@@@2@V?$allocator@U?$pair@$$CBV?$basic_string@DU?$char_traits@D@std@@V?$allocator@D@2@@std@@V?$shared_ptr@VRawImageData@@@2@@std@@@2@$0A@@std@@@std@@IAEXXZ$0 00400000 f   MenuBackdrop.obj
 0001:fffff000       __unwindfunclet$?_Alloc_sentinel_and_proxy@?$_Tree@V?$_Tmap_traits@V?$basic_string@DU?$char_traits@D@std@@V?$allocator@D@2@@std@@V?$weak_ptr@VRawImageData@@@2@U?$less@V?$basic_string@DU?$char_traits@D@std@@V?$allocator@D@2@@std@@@2@V?$allocator@U?$pair@$$CBV?$basic_string@DU?$char_traits@D@std@@V?$allocator@D@2@@std@@V?$weak_ptr@VRawImageData@@@2@@std@@@2@$0A@@std@@@std@@IAEXXZ$0 00400000 f   MenuBackdrop.obj
 0001:fffff000       __unwindfunclet$?get@ImageManager@@SAPAV1@XZ$0 00400000 f   MenuBackdrop.obj
 0001:fffff000       __unwindfunclet$?getImagePtrbyURL@ImageManager@@QAE?AV?$shared_ptr@VRawImageData@@@std@@V?$basic_string@DU?$char_traits@D@std@@V?$allocator@D@2@@3@_N1@Z$0 00400000 f   MenuBackdrop.obj
 0001:fffff000       __unwindfunclet$?getImagebyURL@ImageManager@@QAE?AVSimpleImage@@V?$basic_string@DU?$char_traits@D@std@@V?$allocator@D@2@@std@@_N1@Z$0 00400000 f   MenuBackdrop.obj
 0001:fffff000       __unwindfunclet$?loadAsNew@ImageManager@@QAE?AV?$shared_ptr@VRawImageData@@@std@@V?$basic_string@DU?$char_traits@D@std@@V?$allocator@D@2@@3@@Z$0 00400000 f   MenuBackdrop.obj
 0001:fffff000       __unwindfunclet$?loadImage@ImageManager@@SA?AVSimpleImage@@V?$basic_string@DU?$char_traits@D@std@@V?$allocator@D@2@@std@@_N@Z$0 00400000 f   MenuBackdrop.obj
 0001:fffff000       __unwindfunclet$?loadImage@RawImageData@@QAE_NV?$basic_string@DU?$char_traits@D@std@@V?$allocator@D@2@@std@@HHHHH_N@Z$0 00400000 f   MenuBackdrop.obj
 0002:fffb4000       __unwindtable$??$?0U?$pair@V?$basic_string@DU?$char_traits@D@std@@V?$allocator@D@2@@std@@V?$shared_ptr@VRawImageData@@@2@@std@@@?$_Tree_temp_node@V?$allocator@U?$_Tree_node@U?$pair@$$CBV?$basic_string@DU?$char_traits@D@std@@V?$allocator@D@2@@std@@V?$shared_ptr@VRawImageData@@@2@@std@@PAX@std@@@std@@@std@@QAE@AAV?$allocator@U?$_Tree_node@U?$pair@$$CBV?$basic_string@DU?$char_traits@D@std@@V?$allocator@D@2@@std@@V?$shared_ptr@VRawImageData@@@2@@std@@PAX@std@@@1@PAU?$_Tree_node@U?$pair@$$CBV?$basic_string@DU?$char_traits@D@std@@V?$allocator@D@2@@std@@V?$shared_ptr@VRawImageData@@@2@@std@@PAX@1@$$QAU?$pair@V?$basic_string@DU?$char_traits@D@std@@V?$allocator@D@2@@std@@V?$shared_ptr@VRawImageData@@@2@@1@@Z 00400000     MenuBackdrop.obj
 0002:fffb4000       __unwindtable$??$?0U?$pair@V?$basic_string@DU?$char_traits@D@std@@V?$allocator@D@2@@std@@V?$weak_ptr@VRawImageData@@@2@@std@@@?$_Tree_temp_node@V?$allocator@U?$_Tree_node@U?$pair@$$CBV?$basic_string@DU?$char_traits@D@std@@V?$allocator@D@2@@std@@V?$weak_ptr@VRawImageData@@@2@@std@@PAX@std@@@std@@@std@@QAE@AAV?$allocator@U?$_Tree_node@U?$pair@$$CBV?$basic_string@DU?$char_traits@D@std@@V?$allocator@D@2@@std@@V?$weak_ptr@VRawImageData@@@2@@std@@PAX@std@@@1@PAU?$_Tree_node@U?$pair@$$CBV?$basic_string@DU?$char_traits@D@std@@V?$allocator@D@2@@std@@V?$weak_ptr@VRawImageData@@@2@@std@@PAX@1@$$QAU?$pair@V?$basic_string@DU?$char_traits@D@std@@V?$allocator@D@2@@std@@V?$weak_ptr@VRawImageData@@@2@@1@@Z 00400000     MenuBackdrop.obj
 0002:fffb4000       __unwindtable$??$?0VRawImageData@@$0A@@?$shared_ptr@VRawImageData@@@std@@QAE@PAVRawImageData@@@Z 00400000     MenuBackdrop.obj
 0002:fffb4000       __unwindtable$??$_Construct@$00PBD@?$basic_string@DU?$char_traits@D@std@@V?$allocator@D@2@@std@@AAEXQBDI@Z 00400000     MenuBackdrop.obj
 0002:fffb4000       __unwindtable$??$_Construct@$01PBD@?$basic_string@DU?$char_traits@D@std@@V?$allocator@D@2@@std@@AAEXQBDI@Z 00400000     MenuBackdrop.obj
 0002:fffb4000       __unwindtable$??0?$_Tree_temp_node_alloc@V?$allocator@U?$_Tree_node@U?$pair@$$CBV?$basic_string@DU?$char_traits@D@std@@V?$allocator@D@2@@std@@V?$shared_ptr@VRawImageData@@@2@@std@@PAX@std@@@std@@@std@@QAE@AAV?$allocator@U?$_Tree_node@U?$pair@$$CBV?$basic_string@DU?$char_traits@D@std@@V?$allocator@D@2@@std@@V?$shared_ptr@VRawImageData@@@2@@std@@PAX@std@@@1@@Z 00400000     MenuBackdrop.obj
 0002:fffb4000       __unwindtable$??0?$_Tree_temp_node_alloc@V?$allocator@U?$_Tree_node@U?$pair@$$CBV?$basic_string@DU?$char_traits@D@std@@V?$allocator@D@2@@std@@V?$weak_ptr@VRawImageData@@@2@@std@@PAX@std@@@std@@@std@@QAE@AAV?$allocator@U?$_Tree_node@U?$pair@$$CBV?$basic_string@DU?$char_traits@D@std@@V?$allocator@D@2@@std@@V?$weak_ptr@VRawImageData@@@2@@std@@PAX@std@@@1@@Z 00400000     MenuBackdrop.obj
 0002:fffb4000       __unwindtable$??0?$basic_string@DU?$char_traits@D@std@@V?$allocator@D@2@@std@@QAE@ABV01@@Z 00400000     MenuBackdrop.obj
 0002:fffb4000       __unwindtable$??0?$basic_string@DU?$char_traits@D@std@@V?$allocator@D@2@@std@@QAE@QBD@Z 00400000     MenuBackdrop.obj
 0002:fffb4000       __unwindtable$??0ImageManager@@QAE@XZ 00400000     MenuBackdrop.obj
 0002:fffb4000       __unwindtable$??0RawImageData@@QAE@V?$basic_string@DU?$char_traits@D@std@@V?$allocator@D@2@@std@@@Z 00400000     MenuBackdrop.obj
 0002:fffb4000       __unwindtable$??0sentry@?$basic_ostream@DU?$char_traits@D@std@@@std@@QAE@AAV12@@Z 00400000     MenuBackdrop.obj
 0002:fffb4000       __unwindtable$?_Alloc_sentinel_and_proxy@?$_Tree@V?$_Tmap_traits@V?$basic_string@DU?$char_traits@D@std@@V?$allocator@D@2@@std@@V?$shared_ptr@VRawImageData@@@2@U?$less@V?$basic_string@DU?$char_traits@D@std@@V?$allocator@D@2@@std@@@2@V?$allocator@U?$pair@$$CBV?$basic_string@DU?$char_traits@D@std@@V?$allocator@D@2@@std@@V?$shared_ptr@VRawImageData@@@2@@std@@@2@$0A@@std@@@std@@IAEXXZ 00400000     MenuBackdrop.obj
 0002:fffb4000       __unwindtable$?_Alloc_sentinel_and_proxy@?$_Tree@V?$_Tmap_traits@V?$basic_string@DU?$char_traits@D@std@@V?$allocator@D@2@@std@@V?$weak_ptr@VRawImageData@@@2@U?$less@V?$basic_string@DU?$char_traits@D@std@@V?$allocator@D@2@@std@@@2@V?$allocator@U?$pair@$$CBV?$basic_string@DU?$char_traits@D@std@@V?$allocator@D@2@@std@@V?$weak_ptr@VRawImageData@@@2@@std@@@2@$0A@@std@@@std@@IAEXXZ 00400000     MenuBackdrop.obj
 0002:fffb4000       __unwindtable$?get@ImageManager@@SAPAV1@XZ 00400000     MenuBackdrop.obj
 0002:fffb4000       __unwindtable$?getImagebyURL@ImageManager@@QAE?AVSimpleImage@@V?$basic_string@DU?$char_traits@D@std@@V?$allocator@D@2@@std@@_N1@Z 00400000     MenuBackdrop.obj
 0002:fffb4000       __unwindtable$?loadAsNew@ImageManager@@QAE?AV?$shared_ptr@VRawImageData@@@std@@V?$basic_string@DU?$char_traits@D@std@@V?$allocator@D@2@@3@@Z 00400000     MenuBackdrop.obj
 0002:fffb4000       __unwindtable$?loadImage@ImageManager@@SA?AVSimpleImage@@V?$basic_string@DU?$char_traits@D@std@@V?$allocator@D@2@@std@@_N@Z 00400000     MenuBackdrop.obj
 0002:fffb4000       __unwindtable$?loadImage@RawImageData@@QAE_NV?$basic_string@DU?$char_traits@D@std@@V?$allocator@D@2@@std@@HHHHH_N@Z 00400000     MenuBackdrop.obj
 0000:00000000       _volmd                     00400000     MenuBackdrop.obj
 0000:00000000       _volmd                     00400000     MenuBackdrop.obj
 0000:00000000       _volmd                     00400000     MenuBackdrop.obj
 0000:00000000       _volmd                     00400000     MenuBackdrop.obj
 0000:00000000       _volmd                     00400000     MenuBackdrop.obj
 0000:00000000       _volmd                     00400000     MenuBackdrop.obj
 0000:00000000       _volmd                     00400000     MenuBackdrop.obj
 0000:00000000       _volmd                     00400000     MenuBackdrop.obj
 0000:00000000       _volmd                     00400000     MenuBackdrop.obj
 0000:00000000       _volmd                     00400000     MenuBackdrop.obj
 0000:00000000       _volmd                     00400000     MenuBackdrop.obj
 0000:00000000       _volmd                     00400000     MenuBackdrop.obj
 0000:00000000       _volmd                     00400000     MenuBackdrop.obj
 0000:00000000       _volmd                     00400000     MenuBackdrop.obj
 0000:00000000       _volmd                     00400000     MenuBackdrop.obj
 0000:00000000       _volmd                     00400000     MenuBackdrop.obj
 0000:00000000       _volmd                     00400000     MenuBackdrop.obj
 0000:00000000       _volmd                     00400000     MenuBackdrop.obj
 0000:00000000       _volmd                     00400000     MenuBackdrop.obj
 0000:00000000       _volmd                     00400000     MenuBackdrop.obj
 0000:00000000       _volmd                     00400000     MenuBackdrop.obj
 0000:00000000       _volmd                     00400000     MenuBackdrop.obj
 0000:00000000       _volmd                     00400000     MenuBackdrop.obj
 0000:00000000       _volmd                     00400000     MenuBackdrop.obj
 0000:00000000       _volmd                     00400000     MenuBackdrop.obj
 0000:00000000       _volmd                     00400000     MenuBackdrop.obj
 0000:00000000       _volmd                     00400000     MenuBackdrop.obj
 0000:00000000       _volmd                     00400000     MenuBackdrop.obj
 0000:00000000       _volmd                     00400000     MenuBackdrop.obj
 0000:00000000       _volmd                     00400000     MenuBackdrop.obj
 0000:00000000       _volmd                     00400000     MenuBackdrop.obj
 0000:00000000       _volmd                     00400000     MenuBackdrop.obj
 0000:00000000       _volmd                     00400000     MenuBackdrop.obj
 0000:00000000       _volmd                     00400000     MenuBackdrop.obj
 0000:00000000       _volmd                     00400000     MenuBackdrop.obj
 0000:00000000       _volmd                     00400000     MenuBackdrop.obj
 0000:00000000       _volmd                     00400000     MenuBackdrop.obj
 0002:fffb4000       __catchsym$??$?6U?$char_traits@D@std@@@std@@YAAAV?$basic_ostream@DU?$char_traits@D@std@@@0@AAV10@PBD@Z$3 00400000     MovingObject.obj
 0002:fffb4000       __catchsym$??$_Emplace_reallocate@ABQAVDisplayableObject@@@?$vector@PAVDisplayableObject@@V?$allocator@PAVDisplayableObject@@@std@@@std@@AAEPAPAVDisplayableObject@@QAPAV2@ABQAV2@@Z$2 00400000     MovingObject.obj
 0002:fffb4000       __catchsym$??$_Insert_string@DU?$char_traits@D@std@@I@std@@YAAAV?$basic_ostream@DU?$char_traits@D@std@@@0@AAV10@QBDI@Z$3 00400000     MovingObject.obj
 0002:fffb4000       __ehfuncinfo$??$_Deallocate@$07$0A@@std@@YAXPAXI@Z 00400000     MovingObject.obj
 0002:fffb4000       __ehfuncinfo$??$_Deallocate_plain@V?$allocator@U_Container_proxy@std@@@std@@@std@@YAXAAV?$allocator@U_Container_proxy@std@@@0@QAU_Container_proxy@0@@Z 00400000     MovingObject.obj
 0002:fffb4000       __ehfuncinfo$??$_Freenode0@V?$allocator@U?$_Tree_node@U?$pair@$$CBV?$basic_string@DU?$char_traits@D@std@@V?$allocator@D@2@@std@@V?$shared_ptr@VRawImageData@@@2@@std@@PAX@std@@@std@@@?$_Tree_node@U?$pair@$$CBV?$basic_string@DU?$char_traits@D@std@@V?$allocator@D@2@@std@@V?$shared_ptr@VRawImageData@@@2@@std@@PAX@std@@SAXAAV?$allocator@U?$_Tree_node@U?$pair@$$CBV?$basic_string@DU?$char_traits@D@std@@V?$allocator@D@2@@std@@V?$shared_ptr@VRawImageData@@@2@@std@@PAX@std@@@1@PAU01@@Z 00400000     MovingObject.obj
 0002:fffb4000       __ehfuncinfo$??$_Freenode0@V?$allocator@U?$_Tree_node@U?$pair@$$CBV?$basic_string@DU?$char_traits@D@std@@V?$allocator@D@2@@std@@V?$weak_ptr@VRawImageData@@@2@@std@@PAX@std@@@std@@@?$_Tree_node@U?$pair@$$CBV?$basic_string@DU?$char_traits@D@std@@V?$allocator@D@2@@std@@V?$weak_ptr@VRawImageData@@@2@@std@@PAX@std@@SAXAAV?$allocator@U?$_Tree_node@U?$pair@$$CBV?$basic_string@DU?$char_traits@D@std@@V?$allocator@D@2@@std@@V?$weak_ptr@VRawImageData@@@2@@std@@PAX@std@@@1@PAU01@@Z 00400000     MovingObject.obj
 0002:fffb4000       __ehfuncinfo$??$_Freenode@V?$allocator@U?$_Tree_node@U?$pair@$$CBV?$basic_string@DU?$char_traits@D@std@@V?$allocator@D@2@@std@@V?$shared_ptr@VRawImageData@@@2@@std@@PAX@std@@@std@@@?$_Tree_node@U?$pair@$$CBV?$basic_string@DU?$char_traits@D@std@@V?$allocator@D@2@@std@@V?$shared_ptr@VRawImageData@@@2@@std@@PAX@std@@SAXAAV?$allocator@U?$_Tree_node@U?$pair@$$CBV?$basic_string@DU?$char_traits@D@std@@V?$allocator@D@2@@std@@V?$shared_ptr@VRawImageData@@@2@@std@@PAX@std@@@1@PAU01@@Z 00400000     MovingObject.obj
 0002:fffb4000       __ehfuncinfo$??$_Freenode@V?$allocator@U?$_Tree_node@U?$pair@$$CBV?$basic_string@DU?$char_traits@D@std@@V?$allocator@D@2@@std@@V?$weak_ptr@VRawImageData@@@2@@std@@PAX@std@@@std@@@?$_Tree_node@U?$pair@$$CBV?$basic_string@DU?$char_traits@D@std@@V?$allocator@D@2@@std@@V?$weak_ptr@VRawImageData@@@2@@std@@PAX@std@@SAXAAV?$allocator@U?$_Tree_node@U?$pair@$$CBV?$basic_string@DU?$char_traits@D@std@@V?$allocator@D@2@@std@@V?$weak_ptr@VRawImageData@@@2@@std@@PAX@std@@@1@PAU01@@Z 00400000     MovingObject.obj
 0002:fffb4000       __ehfuncinfo$??0?$basic_string@DU?$char_traits@D@std@@V?$allocator@D@2@@std@@QAE@$$QAV01@@Z 00400000     MovingObject.obj
 0002:fffb4000       __ehfuncinfo$??0?$basic_string@DU?$char_traits@D@std@@V?$allocator@D@2@@std@@QAE@XZ 00400000     MovingObject.obj
 0002:fffb4000       __ehfuncinfo$??1?$_Alloc_construct_ptr@V?$allocator@U?$_Tree_node@U?$pair@$$CBV?$basic_string@DU?$char_traits@D@std@@V?$allocator@D@2@@std@@V?$shared_ptr@VRawImageData@@@2@@std@@PAX@std@@@std@@@std@@QAE@XZ 00400000     MovingObject.obj
 0002:fffb4000       __ehfuncinfo$??1?$_Alloc_construct_ptr@V?$allocator@U?$_Tree_node@U?$pair@$$CBV?$basic_string@DU?$char_traits@D@std@@V?$allocator@D@2@@std@@V?$weak_ptr@VRawImageData@@@2@@std@@PAX@std@@@std@@@std@@QAE@XZ 00400000     MovingObject.obj
 0002:fffb4000       __ehfuncinfo$??1?$_Tree_temp_node@V?$allocator@U?$_Tree_node@U?$pair@$$CBV?$basic_string@DU?$char_traits@D@std@@V?$allocator@D@2@@std@@V?$shared_ptr@VRawImageData@@@2@@std@@PAX@std@@@std@@@std@@QAE@XZ 00400000     MovingObject.obj
 0002:fffb4000       __ehfuncinfo$??1?$_Tree_temp_node@V?$allocator@U?$_Tree_node@U?$pair@$$CBV?$basic_string@DU?$char_traits@D@std@@V?$allocator@D@2@@std@@V?$weak_ptr@VRawImageData@@@2@@std@@PAX@std@@@std@@@std@@QAE@XZ 00400000     MovingObject.obj
 0002:fffb4000       __ehfuncinfo$??1RawImageData@@QAE@XZ 00400000     MovingObject.obj
 0002:fffb4000       __ehfuncinfo$??1_Sentry_base@?$basic_ostream@DU?$char_traits@D@std@@@std@@QAE@XZ 00400000     MovingObject.obj
 0002:fffb4000       __ehfuncinfo$?_Deallocate_for_capacity@?$basic_string@DU?$char_traits@D@std@@V?$allocator@D@2@@std@@CAXAAV?$allocator@D@2@QADI@Z 00400000     MovingObject.obj
 0002:fffb4000       __ehfuncinfo$?erase@?$vector@PAVDisplayableObject@@V?$allocator@PAVDisplayableObject@@@std@@@std@@QAE?AV?$_Vector_iterator@V?$_Vector_val@U?$_Simple_types@PAVDisplayableObject@@@std@@@std@@@2@V?$_Vector_const_iterator@V?$_Vector_val@U?$_Simple_types@PAVDisplayableObject@@@std@@@std@@@2@@Z 00400000     MovingObject.obj
 0002:fffb4000       __ehfuncinfo$?getImagePtrbyURL@ImageManager@@QAE?AV?$shared_ptr@VRawImageData@@@std@@V?$basic_string@DU?$char_traits@D@std@@V?$allocator@D@2@@3@_N1@Z 00400000     MovingObject.obj
 0001:fffff000       __ehhandler$??$_Deallocate@$07$0A@@std@@YAXPAXI@Z 00400000 f   MovingObject.obj
 0001:fffff000       __ehhandler$??$_Deallocate_plain@V?$allocator@U_Container_proxy@std@@@std@@@std@@YAXAAV?$allocator@U_Container_proxy@std@@@0@QAU_Container_proxy@0@@Z 00400000 f   MovingObject.obj
 0001:fffff000       __ehhandler$??$_Emplace_reallocate@ABQAVDisplayableObject@@@?$vector@PAVDisplayableObject@@V?$allocator@PAVDisplayableObject@@@std@@@std@@AAEPAPAVDisplayableObject@@QAPAV2@ABQAV2@@Z 00400000 f   MovingObject.obj
 0001:fffff000       __ehhandler$??$_Freenode0@V?$allocator@U?$_Tree_node@U?$pair@$$CBV?$basic_string@DU?$char_traits@D@std@@V?$allocator@D@2@@std@@V?$shared_ptr@VRawImageData@@@2@@std@@PAX@std@@@std@@@?$_Tree_node@U?$pair@$$CBV?$basic_string@DU?$char_traits@D@std@@V?$allocator@D@2@@std@@V?$shared_ptr@VRawImageData@@@2@@std@@PAX@std@@SAXAAV?$allocator@U?$_Tree_node@U?$pair@$$CBV?$basic_string@DU?$char_traits@D@std@@V?$allocator@D@2@@std@@V?$shared_ptr@VRawImageData@@@2@@std@@PAX@std@@@1@PAU01@@Z 00400000 f   MovingObject.obj
 0001:fffff000       __ehhandler$??$_Freenode0@V?$allocator@U?$_Tree_node@U?$pair@$$CBV?$basic_string@DU?$char_traits@D@std@@V?$allocator@D@2@@std@@V?$weak_ptr@VRawImageData@@@2@@std@@PAX@std@@@std@@@?$_Tree_node@U?$pair@$$CBV?$basic_string@DU?$char_traits@D@std@@V?$allocator@D@2@@std@@V?$weak_ptr@VRawImageData@@@2@@std@@PAX@std@@SAXAAV?$allocator@U?$_Tree_node@U?$pair@$$CBV?$basic_string@DU?$char_traits@D@std@@V?$allocator@D@2@@std@@V?$weak_ptr@VRawImageData@@@2@@std@@PAX@std@@@1@PAU01@@Z 00400000 f   MovingObject.obj
 0001:fffff000       __ehhandler$??$_Freenode@V?$allocator@U?$_Tree_node@U?$pair@$$CBV?$basic_string@DU?$char_traits@D@std@@V?$allocator@D@2@@std@@V?$shared_ptr@VRawImageData@@@2@@std@@PAX@std@@@std@@@?$_Tree_node@U?$pair@$$CBV?$basic_string@DU?$char_traits@D@std@@V?$allocator@D@2@@std@@V?$shared_ptr@VRawImageData@@@2@@std@@PAX@std@@SAXAAV?$allocator@U?$_Tree_node@U?$pair@$$CBV?$basic_string@DU?$char_traits@D@std@@V?$allocator@D@2@@std@@V?$shared_ptr@VRawImageData@@@2@@std@@PAX@std@@@1@PAU01@@Z 00400000 f   MovingObject.obj
 0001:fffff000       __ehhandler$??$_Freenode@V?$allocator@U?$_Tree_node@U?$pair@$$CBV?$basic_string@DU?$char_traits@D@std@@V?$allocator@D@2@@std@@V?$weak_ptr@VRawImageData@@@2@@std@@PAX@std@@@std@@@?$_Tree_node@U?$pair@$$CBV?$basic_string@DU?$char_traits@D@std@@V?$allocator@D@2@@std@@V?$weak_ptr@VRawImageData@@@2@@std@@PAX@std@@SAXAAV?$allocator@U?$_Tree_node@U?$pair@$$CBV?$basic_string@DU?$char_traits@D@std@@V?$allocator@D@2@@std@@V?$weak_ptr@VRawImageData@@@2@@std@@PAX@std@@@1@PAU01@@Z 00400000 f   MovingObject.obj
 0001:fffff000       __ehhandler$??0?$basic_string@DU?$char_traits@D@std@@V?$allocator@D@2@@std@@QAE@$$QAV01@@Z 00400000 f   MovingObject.obj
 0001:fffff000       __ehhandler$??0?$basic_string@DU?$char_traits@D@std@@V?$allocator@D@2@@std@@QAE@XZ 00400000 f   MovingObject.obj
 0001:fffff000       __ehhandler$??1?$_Alloc_construct_ptr@V?$allocator@U?$_Tree_node@U?$pair@$$CBV?$basic_string@DU?$char_traits@D@std@@V?$allocator@D@2@@std@@V?$shared_ptr@VRawImageData@@@2@@std@@PAX@std@@@std@@@std@@QAE@XZ 00400000 f   MovingObject.obj
 0001:fffff000       __ehhandler$??1?$_Alloc_construct_ptr@V?$allocator@U?$_Tree_node@U?$pair@$$CBV?$basic_string@DU?$char_traits@D@std@@V?$allocator@D@2@@std@@V?$weak_ptr@VRawImageData@@@2@@std@@PAX@std@@@std@@@std@@QAE@XZ 00400000 f   MovingObject.obj
 0001:fffff000       __ehhandler$??1?$_Tree_temp_node@V?$allocator@U?$_Tree_node@U?$pair@$$CBV?$basic_string@DU?$char_traits@D@std@@V?$allocator@D@2@@std@@V?$shared_ptr@VRawImageData@@@2@@std@@PAX@std@@@std@@@std@@QAE@XZ 00400000 f   MovingObject.obj
 0001:fffff000       __ehhandler$??1?$_Tree_temp_node@V?$allocator@U?$_Tree_node@U?$pair@$$CBV?$basic_string@DU?$char_traits@D@std@@V?$allocator@D@2@@std@@V?$weak_ptr@VRawImageData@@@2@@std@@PAX@std@@@std@@@std@@QAE@XZ 00400000 f   MovingObject.obj
 0001:fffff000       __ehhandler$??1RawImageData@@QAE@XZ 00400000 f   MovingObject.obj
 0001:fffff000       __ehhandler$??1_Sentry_base@?$basic_ostream@DU?$char_traits@D@std@@@std@@QAE@XZ 00400000 f   MovingObject.obj
 0001:fffff000       __ehhandler$?_Deallocate_for_capacity@?$basic_string@DU?$char_traits@D@std@@V?$allocator@D@2@@std@@CAXAAV?$allocator@D@2@QADI@Z 00400000 f   MovingObject.obj
 0001:fffff000       __ehhandler$?erase@?$vector@PAVDisplayableObject@@V?$allocator@PAVDisplayableObject@@@std@@@std@@QAE?AV?$_Vector_iterator@V?$_Vector_val@U?$_Simple_types@PAVDisplayableObject@@@std@@@std@@@2@V?$_Vector_const_iterator@V?$_Vector_val@U?$_Simple_types@PAVDisplayableObject@@@std@@@std@@@2@@Z 00400000 f   MovingObject.obj
 0001:fffff000       __unwindfunclet$??$?0U?$pair@V?$basic_string@DU?$char_traits@D@std@@V?$allocator@D@2@@std@@V?$shared_ptr@VRawImageData@@@2@@std@@@?$_Tree_temp_node@V?$allocator@U?$_Tree_node@U?$pair@$$CBV?$basic_string@DU?$char_traits@D@std@@V?$allocator@D@2@@std@@V?$shared_ptr@VRawImageData@@@2@@std@@PAX@std@@@std@@@std@@QAE@AAV?$allocator@U?$_Tree_node@U?$pair@$$CBV?$basic_string@DU?$char_traits@D@std@@V?$allocator@D@2@@std@@V?$shared_ptr@VRawImageData@@@2@@std@@PAX@std@@@1@PAU?$_Tree_node@U?$pair@$$CBV?$basic_string@DU?$char_traits@D@std@@V?$allocator@D@2@@std@@V?$shared_ptr@VRawImageData@@@2@@std@@PAX@1@$$QAU?$pair@V?$basic_string@DU?$char_traits@D@std@@V?$allocator@D@2@@std@@V?$shared_ptr@VRawImageData@@@2@@1@@Z$0 00400000 f   MovingObject.obj
 0001:fffff000       __unwindfunclet$??$?0U?$pair@V?$basic_string@DU?$char_traits@D@std@@V?$allocator@D@2@@std@@V?$weak_ptr@VRawImageData@@@2@@std@@@?$_Tree_temp_node@V?$allocator@U?$_Tree_node@U?$pair@$$CBV?$basic_string@DU?$char_traits@D@std@@V?$allocator@D@2@@std@@V?$weak_ptr@VRawImageData@@@2@@std@@PAX@std@@@std@@@std@@QAE@AAV?$allocator@U?$_Tree_node@U?$pair@$$CBV?$basic_string@DU?$char_traits@D@std@@V?$allocator@D@2@@std@@V?$weak_ptr@VRawImageData@@@2@@std@@PAX@std@@@1@PAU?$_Tree_node@U?$pair@$$CBV?$basic_string@DU?$char_traits@D@std@@V?$allocator@D@2@@std@@V?$weak_ptr@VRawImageData@@@2@@std@@PAX@1@$$QAU?$pair@V?$basic_string@DU?$char_traits@D@std@@V?$allocator@D@2@@std@@V?$weak_ptr@VRawImageData@@@2@@1@@Z$0 00400000 f   MovingObject.obj
 0001:fffff000       __unwindfunclet$??$?0VRawImageData@@$0A@@?$shared_ptr@VRawImageData@@@std@@QAE@PAVRawImageData@@@Z$0 00400000 f   MovingObject.obj
 0001:fffff000       __unwindfunclet$??$?6U?$char_traits@D@std@@@std@@YAAAV?$basic_ostream@DU?$char_traits@D@std@@@0@AAV10@PBD@Z$2 00400000 f   MovingObject.obj
 0001:fffff000       __unwindfunclet$??$_Construct@$00PBD@?$basic_string@DU?$char_traits@D@std@@V?$allocator@D@2@@std@@AAEXQBDI@Z$0 00400000 f   MovingObject.obj
 0001:fffff000       __unwindfunclet$??$_Construct@$01PBD@?$basic_string@DU?$char_traits@D@std@@V?$allocator@D@2@@std@@AAEXQBDI@Z$0 00400000 f   MovingObject.obj
 0001:fffff000       __unwindfunclet$??$_Insert_string@DU?$char_traits@D@std@@I@std@@YAAAV?$basic_ostream@DU?$char_traits@D@std@@@0@AAV10@QBDI@Z$2 00400000 f   MovingObject.obj
 0001:fffff000       __unwindfunclet$??$_Uninitialized_move@PAPAVDisplayableObject@@V?$allocator@PAVDisplayableObject@@@std@@@std@@YAPAPAVDisplayableObject@@QAPAV1@0PAPAV1@AAV?$allocator@PAVDisplayableObject@@@0@@Z$0 00400000 f   MovingObject.obj
 0001:fffff000       __unwindfunclet$??$find@V?$_Vector_iterator@V?$_Vector_val@U?$_Simple_types@PAVDisplayableObject@@@std@@@std@@@std@@PAVDisplayableObject@@@std@@YA?AV?$_Vector_iterator@V?$_Vector_val@U?$_Simple_types@PAVDisplayableObject@@@std@@@std@@@0@V10@V10@ABQAVDisplayableObject@@@Z$0 00400000 f   MovingObject.obj
 0001:fffff000       __unwindfunclet$??0?$_Tree_temp_node_alloc@V?$allocator@U?$_Tree_node@U?$pair@$$CBV?$basic_string@DU?$char_traits@D@std@@V?$allocator@D@2@@std@@V?$shared_ptr@VRawImageData@@@2@@std@@PAX@std@@@std@@@std@@QAE@AAV?$allocator@U?$_Tree_node@U?$pair@$$CBV?$basic_string@DU?$char_traits@D@std@@V?$allocator@D@2@@std@@V?$shared_ptr@VRawImageData@@@2@@std@@PAX@std@@@1@@Z$0 00400000 f   MovingObject.obj
 0001:fffff000       __unwindfunclet$??0?$_Tree_temp_node_alloc@V?$allocator@U?$_Tree_node@U?$pair@$$CBV?$basic_string@DU?$char_traits@D@std@@V?$allocator@D@2@@std@@V?$weak_ptr@VRawImageData@@@2@@std@@PAX@std@@@std@@@std@@QAE@AAV?$allocator@U?$_Tree_node@U?$pair@$$CBV?$basic_string@DU?$char_traits@D@std@@V?$allocator@D@2@@std@@V?$weak_ptr@VRawImageData@@@2@@std@@PAX@std@@@1@@Z$0 00400000 f   MovingObject.obj
 0001:fffff000       __unwindfunclet$??0?$basic_string@DU?$char_traits@D@std@@V?$allocator@D@2@@std@@QAE@ABV01@@Z$0 00400000 f   MovingObject.obj
 0001:fffff000       __unwindfunclet$??0?$basic_string@DU?$char_traits@D@std@@V?$allocator@D@2@@std@@QAE@QBD@Z$0 00400000 f   MovingObject.obj
 0001:fffff000       __unwindfunclet$??0ImageManager@@QAE@XZ$0 00400000 f   MovingObject.obj
 0001:fffff000       __unwindfunclet$??0RawImageData@@QAE@V?$basic_string@DU?$char_traits@D@std@@V?$allocator@D@2@@std@@@Z$0 00400000 f   MovingObject.obj
 0001:fffff000       __unwindfunclet$??0sentry@?$basic_ostream@DU?$char_traits@D@std@@@std@@QAE@AAV12@@Z$0 00400000 f   MovingObject.obj
 0001:fffff000       __unwindfunclet$?_Alloc_sentinel_and_proxy@?$_Tree@V?$_Tmap_traits@V?$basic_string@DU?$char_traits@D@std@@V?$allocator@D@2@@std@@V?$shared_ptr@VRawImageData@@@2@U?$less@V?$basic_string@DU?$char_traits@D@std@@V?$allocator@D@2@@std@@@2@V?$allocator@U?$pair@$$CBV?$basic_string@DU?$char_traits@D@std@@V?$allocator@D@2@@std@@V?$shared_ptr@VRawImageData@@@2@@std@@@2@$0A@@std@@@std@@IAEXXZ$0 00400000 f   MovingObject.obj
 0001:fffff000       __unwindfunclet$?_Alloc_sentinel_and_proxy@?$_Tree@V?$_Tmap_traits@V?$basic_string@DU?$char_traits@D@std@@V?$allocator@D@2@@std@@V?$weak_ptr@VRawImageData@@@2@U?$less@V?$basic_string@DU?$char_traits@D@std@@V?$allocator@D@2@@std@@@2@V?$allocator@U?$pair@$$CBV?$basic_string@DU?$char_traits@D@std@@V?$allocator@D@2@@std@@V?$weak_ptr@VRawImageData@@@2@@std@@@2@$0A@@std@@@std@@IAEXXZ$0 00400000 f   MovingObject.obj
 0001:fffff000       __unwindfunclet$?_Orphan_range_locked@?$vector@PAVDisplayableObject@@V?$allocator@PAVDisplayableObject@@@std@@@std@@ABEXPAPAVDisplayableObject@@0@Z$0 00400000 f   MovingObject.obj
 0001:fffff000       __unwindfunclet$?get@ImageManager@@SAPAV1@XZ$0 00400000 f   MovingObject.obj
 0001:fffff000       __unwindfunclet$?getImagePtrbyURL@ImageManager@@QAE?AV?$shared_ptr@VRawImageData@@@std@@V?$basic_string@DU?$char_traits@D@std@@V?$allocator@D@2@@3@_N1@Z$0 00400000 f   MovingObject.obj
 0001:fffff000       __unwindfunclet$?getImagebyURL@ImageManager@@QAE?AVSimpleImage@@V?$basic_string@DU?$char_traits@D@std@@V?$allocator@D@2@@std@@_N1@Z$0 00400000 f   MovingObject.obj
 0001:fffff000       __unwindfunclet$?loadAsNew@ImageManager@@QAE?AV?$shared_ptr@VRawImageData@@@std@@V?$basic_string@DU?$char_traits@D@std@@V?$allocator@D@2@@3@@Z$0 00400000 f   MovingObject.obj
 0001:fffff000       __unwindfunclet$?loadImage@ImageManager@@SA?AVSimpleImage@@V?$basic_string@DU?$char_traits@D@std@@V?$allocator@D@2@@std@@_N@Z$0 00400000 f   MovingObject.obj
 0001:fffff000       __unwindfunclet$?loadImage@RawImageData@@QAE_NV?$basic_string@DU?$char_traits@D@std@@V?$allocator@D@2@@std@@HHHHH_N@Z$0 00400000 f   MovingObject.obj
 0002:fffb4000       __unwindtable$??$?0U?$pair@V?$basic_string@DU?$char_traits@D@std@@V?$allocator@D@2@@std@@V?$shared_ptr@VRawImageData@@@2@@std@@@?$_Tree_temp_node@V?$allocator@U?$_Tree_node@U?$pair@$$CBV?$basic_string@DU?$char_traits@D@std@@V?$allocator@D@2@@std@@V?$shared_ptr@VRawImageData@@@2@@std@@PAX@std@@@std@@@std@@QAE@AAV?$allocator@U?$_Tree_node@U?$pair@$$CBV?$basic_string@DU?$char_traits@D@std@@V?$allocator@D@2@@std@@V?$shared_ptr@VRawImageData@@@2@@std@@PAX@std@@@1@PAU?$_Tree_node@U?$pair@$$CBV?$basic_string@DU?$char_traits@D@std@@V?$allocator@D@2@@std@@V?$shared_ptr@VRawImageData@@@2@@std@@PAX@1@$$QAU?$pair@V?$basic_string@DU?$char_traits@D@std@@V?$allocator@D@2@@std@@V?$shared_ptr@VRawImageData@@@2@@1@@Z 00400000     MovingObject.obj
 0002:fffb4000       __unwindtable$??$?0U?$pair@V?$basic_string@DU?$char_traits@D@std@@V?$allocator@D@2@@std@@V?$weak_ptr@VRawImageData@@@2@@std@@@?$_Tree_temp_node@V?$allocator@U?$_Tree_node@U?$pair@$$CBV?$basic_string@DU?$char_traits@D@std@@V?$allocator@D@2@@std@@V?$weak_ptr@VRawImageData@@@2@@std@@PAX@std@@@std@@@std@@QAE@AAV?$allocator@U?$_Tree_node@U?$pair@$$CBV?$basic_string@DU?$char_traits@D@std@@V?$allocator@D@2@@std@@V?$weak_ptr@VRawImageData@@@2@@std@@PAX@std@@@1@PAU?$_Tree_node@U?$pair@$$CBV?$basic_string@DU?$char_traits@D@std@@V?$allocator@D@2@@std@@V?$weak_ptr@VRawImageData@@@2@@std@@PAX@1@$$QAU?$pair@V?$basic_string@DU?$char_traits@D@std@@V?$allocator@D@2@@std@@V?$weak_ptr@VRawImageData@@@2@@1@@Z 00400000     MovingObject.obj
 0002:fffb4000       __unwindtable$??$?0VRawImageData@@$0A@@?$shared_ptr@VRawImageData@@@std@@QAE@PAVRawImageData@@@Z 00400000     MovingObject.obj
 0002:fffb4000       __unwindtable$??$_Construct@$00PBD@?$basic_string@DU?$char_traits@D@std@@V?$allocator@D@2@@std@@AAEXQBDI@Z 00400000     MovingObject.obj
 0002:fffb4000       __unwindtable$??$_Construct@$01PBD@?$basic_string@DU?$char_traits@D@std@@V?$allocator@D@2@@std@@AAEXQBDI@Z 00400000     MovingObject.obj
 0002:fffb4000       __unwindtable$??$_Uninitialized_move@PAPAVDisplayableObject@@V?$allocator@PAVDisplayableObject@@@std@@@std@@YAPAPAVDisplayableObject@@QAPAV1@0PAPAV1@AAV?$allocator@PAVDisplayableObject@@@0@@Z 00400000     MovingObject.obj
 0002:fffb4000       __unwindtable$??$find@V?$_Vector_iterator@V?$_Vector_val@U?$_Simple_types@PAVDisplayableObject@@@std@@@std@@@std@@PAVDisplayableObject@@@std@@YA?AV?$_Vector_iterator@V?$_Vector_val@U?$_Simple_types@PAVDisplayableObject@@@std@@@std@@@0@V10@V10@ABQAVDisplayableObject@@@Z 00400000     MovingObject.obj
 0002:fffb4000       __unwindtable$??0?$_Tree_temp_node_alloc@V?$allocator@U?$_Tree_node@U?$pair@$$CBV?$basic_string@DU?$char_traits@D@std@@V?$allocator@D@2@@std@@V?$shared_ptr@VRawImageData@@@2@@std@@PAX@std@@@std@@@std@@QAE@AAV?$allocator@U?$_Tree_node@U?$pair@$$CBV?$basic_string@DU?$char_traits@D@std@@V?$allocator@D@2@@std@@V?$shared_ptr@VRawImageData@@@2@@std@@PAX@std@@@1@@Z 00400000     MovingObject.obj
 0002:fffb4000       __unwindtable$??0?$_Tree_temp_node_alloc@V?$allocator@U?$_Tree_node@U?$pair@$$CBV?$basic_string@DU?$char_traits@D@std@@V?$allocator@D@2@@std@@V?$weak_ptr@VRawImageData@@@2@@std@@PAX@std@@@std@@@std@@QAE@AAV?$allocator@U?$_Tree_node@U?$pair@$$CBV?$basic_string@DU?$char_traits@D@std@@V?$allocator@D@2@@std@@V?$weak_ptr@VRawImageData@@@2@@std@@PAX@std@@@1@@Z 00400000     MovingObject.obj
 0002:fffb4000       __unwindtable$??0?$basic_string@DU?$char_traits@D@std@@V?$allocator@D@2@@std@@QAE@ABV01@@Z 00400000     MovingObject.obj
 0002:fffb4000       __unwindtable$??0?$basic_string@DU?$char_traits@D@std@@V?$allocator@D@2@@std@@QAE@QBD@Z 00400000     MovingObject.obj
 0002:fffb4000       __unwindtable$??0ImageManager@@QAE@XZ 00400000     MovingObject.obj
 0002:fffb4000       __unwindtable$??0RawImageData@@QAE@V?$basic_string@DU?$char_traits@D@std@@V?$allocator@D@2@@std@@@Z 00400000     MovingObject.obj
 0002:fffb4000       __unwindtable$??0sentry@?$basic_ostream@DU?$char_traits@D@std@@@std@@QAE@AAV12@@Z 00400000     MovingObject.obj
 0002:fffb4000       __unwindtable$?_Alloc_sentinel_and_proxy@?$_Tree@V?$_Tmap_traits@V?$basic_string@DU?$char_traits@D@std@@V?$allocator@D@2@@std@@V?$shared_ptr@VRawImageData@@@2@U?$less@V?$basic_string@DU?$char_traits@D@std@@V?$allocator@D@2@@std@@@2@V?$allocator@U?$pair@$$CBV?$basic_string@DU?$char_traits@D@std@@V?$allocator@D@2@@std@@V?$shared_ptr@VRawImageData@@@2@@std@@@2@$0A@@std@@@std@@IAEXXZ 00400000     MovingObject.obj
 0002:fffb4000       __unwindtable$?_Alloc_sentinel_and_proxy@?$_Tree@V?$_Tmap_traits@V?$basic_string@DU?$char_traits@D@std@@V?$allocator@D@2@@std@@V?$weak_ptr@VRawImageData@@@2@U?$less@V?$basic_string@DU?$char_traits@D@std@@V?$allocator@D@2@@std@@@2@V?$allocator@U?$pair@$$CBV?$basic_string@DU?$char_traits@D@std@@V?$allocator@D@2@@std@@V?$weak_ptr@VRawImageData@@@2@@std@@@2@$0A@@std@@@std@@IAEXXZ 00400000     MovingObject.obj
 0002:fffb4000       __unwindtable$?_Orphan_range_locked@?$vector@PAVDisplayableObject@@V?$allocator@PAVDisplayableObject@@@std@@@std@@ABEXPAPAVDisplayableObject@@0@Z 00400000     MovingObject.obj
 0002:fffb4000       __unwindtable$?get@ImageManager@@SAPAV1@XZ 00400000     MovingObject.obj
 0002:fffb4000       __unwindtable$?getImagebyURL@ImageManager@@QAE?AVSimpleImage@@V?$basic_string@DU?$char_traits@D@std@@V?$allocator@D@2@@std@@_N1@Z 00400000     MovingObject.obj
 0002:fffb4000       __unwindtable$?loadAsNew@ImageManager@@QAE?AV?$shared_ptr@VRawImageData@@@std@@V?$basic_string@DU?$char_traits@D@std@@V?$allocator@D@2@@3@@Z 00400000     MovingObject.obj
 0002:fffb4000       __unwindtable$?loadImage@ImageManager@@SA?AVSimpleImage@@V?$basic_string@DU?$char_traits@D@std@@V?$allocator@D@2@@std@@_N@Z 00400000     MovingObject.obj
 0002:fffb4000       __unwindtable$?loadImage@RawImageData@@QAE_NV?$basic_string@DU?$char_traits@D@std@@V?$allocator@D@2@@std@@HHHHH_N@Z 00400000     MovingObject.obj
 0000:00000000       _volmd                     00400000     MovingObject.obj
 0000:00000000       _volmd                     00400000     MovingObject.obj
 0000:00000000       _volmd                     00400000     MovingObject.obj
 0000:00000000       _volmd                     00400000     MovingObject.obj
 0000:00000000       _volmd                     00400000     MovingObject.obj
 0000:00000000       _volmd                     00400000     MovingObject.obj
 0000:00000000       _volmd                     00400000     MovingObject.obj
 0000:00000000       _volmd                     00400000     MovingObject.obj
 0000:00000000       _volmd                     00400000     MovingObject.obj
 0000:00000000       _volmd                     00400000     MovingObject.obj
 0000:00000000       _volmd                     00400000     MovingObject.obj
 0000:00000000       _volmd                     00400000     MovingObject.obj
 0000:00000000       _volmd                     00400000     MovingObject.obj
 0000:00000000       _volmd                     00400000     MovingObject.obj
 0000:00000000       _volmd                     00400000     MovingObject.obj
 0000:00000000       _volmd                     00400000     MovingObject.obj
 0000:00000000       _volmd                     00400000     MovingObject.obj
 0000:00000000       _volmd                     00400000     MovingObject.obj
 0000:00000000       _volmd                     00400000     MovingObject.obj
 0000:00000000       _volmd                     00400000     MovingObject.obj
 0000:00000000       _volmd                     00400000     MovingObject.obj
 0000:00000000       _volmd                     00400000     MovingObject.obj
 0000:00000000       _volmd                     00400000     MovingObject.obj
 0000:00000000       _volmd                     00400000     MovingObject.obj
 0000:00000000       _volmd                     00400000     MovingObject.obj
 0000:00000000       _volmd                     00400000     MovingObject.obj
 0000:00000000       _volmd                     00400000     MovingObject.obj
 0000:00000000       _volmd                     00400000     MovingObject.obj
 0000:00000000       _volmd                     00400000     MovingObject.obj
 0000:00000000       _volmd                     00400000     MovingObject.obj
 0000:00000000       _volmd                     00400000     MovingObject.obj
 0000:00000000       _volmd                     00400000     MovingObject.obj
 0000:00000000       _volmd                     00400000     MovingObject.obj
 0000:00000000       _volmd                     00400000     MovingObject.obj
 0000:00000000       _volmd                     00400000     MovingObject.obj
 0000:00000000       _volmd                     00400000     MovingObject.obj
 0000:00000000       _volmd                     00400000     MovingObject.obj
 0000:00000000       _volmd                     00400000     MovingObject.obj
 0000:00000000       _volmd                     00400000     MovingObject.obj
 0000:00000000       _volmd                     00400000     MovingObject.obj
 0000:00000000       _volmd                     00400000     MovingObject.obj
 0000:00000000       _volmd                     00400000     MovingObject.obj
 0000:00000000       _volmd                     00400000     MovingObject.obj
 0000:00000000       _volmd                     00400000     MovingObject.obj
 0000:00000000       _volmd                     00400000     MovingObject.obj
 0000:00000000       _volmd                     00400000     MovingObject.obj
 0000:00000000       _volmd                     00400000     MovingObject.obj
 0000:00000000       _volmd                     00400000     MovingObject.obj
 0000:00000000       _volmd                     00400000     MovingObject.obj
 0000:00000000       _volmd                     00400000     MovingObject.obj
 0002:fffb4000       __ehfuncinfo$?erase@?$vector@PAVDisplayableObject@@V?$allocator@PAVDisplayableObject@@@std@@@std@@QAE?AV?$_Vector_iterator@V?$_Vector_val@U?$_Simple_types@PAVDisplayableObject@@@std@@@std@@@2@V?$_Vector_const_iterator@V?$_Vector_val@U?$_Simple_types@PAVDisplayableObject@@@std@@@std@@@2@@Z 00400000     Projectile.obj
 0001:fffff000       __ehhandler$?erase@?$vector@PAVDisplayableObject@@V?$allocator@PAVDisplayableObject@@@std@@@std@@QAE?AV?$_Vector_iterator@V?$_Vector_val@U?$_Simple_types@PAVDisplayableObject@@@std@@@std@@@2@V?$_Vector_const_iterator@V?$_Vector_val@U?$_Simple_types@PAVDisplayableObject@@@std@@@std@@@2@@Z 00400000 f   Projectile.obj
 0001:fffff000       __unwindfunclet$??$find@V?$_Vector_iterator@V?$_Vector_val@U?$_Simple_types@PAVDisplayableObject@@@std@@@std@@@std@@PAVDisplayableObject@@@std@@YA?AV?$_Vector_iterator@V?$_Vector_val@U?$_Simple_types@PAVDisplayableObject@@@std@@@std@@@0@V10@V10@ABQAVDisplayableObject@@@Z$0 00400000 f   Projectile.obj
 0001:fffff000       __unwindfunclet$?_Orphan_range_locked@?$vector@PAVDisplayableObject@@V?$allocator@PAVDisplayableObject@@@std@@@std@@ABEXPAPAVDisplayableObject@@0@Z$0 00400000 f   Projectile.obj
 0002:fffb4000       __unwindtable$??$find@V?$_Vector_iterator@V?$_Vector_val@U?$_Simple_types@PAVDisplayableObject@@@std@@@std@@@std@@PAVDisplayableObject@@@std@@YA?AV?$_Vector_iterator@V?$_Vector_val@U?$_Simple_types@PAVDisplayableObject@@@std@@@std@@@0@V10@V10@ABQAVDisplayableObject@@@Z 00400000     Projectile.obj
 0002:fffb4000       __unwindtable$?_Orphan_range_locked@?$vector@PAVDisplayableObject@@V?$allocator@PAVDisplayableObject@@@std@@@std@@ABEXPAPAVDisplayableObject@@0@Z 00400000     Projectile.obj
 0000:00000000       _volmd                     00400000     Projectile.obj
 0000:00000000       _volmd                     00400000     Projectile.obj
 0000:00000000       _volmd                     00400000     Projectile.obj
 0000:00000000       _volmd                     00400000     Projectile.obj
 0002:fffb4000       __catchsym$??$?6U?$char_traits@D@std@@@std@@YAAAV?$basic_ostream@DU?$char_traits@D@std@@@0@AAV10@PBD@Z$3 00400000     SimpleDemo.obj
 0002:fffb4000       __catchsym$??$_Emplace_reallocate@ABQAVDisplayableObject@@@?$vector@PAVDisplayableObject@@V?$allocator@PAVDisplayableObject@@@std@@@std@@AAEPAPAVDisplayableObject@@QAPAV2@ABQAV2@@Z$2 00400000     SimpleDemo.obj
 0002:fffb4000       __catchsym$??$_Resize_reallocate@U_Value_init_tag@std@@@?$vector@PAVDisplayableObject@@V?$allocator@PAVDisplayableObject@@@std@@@std@@AAEXIABU_Value_init_tag@1@@Z$2 00400000     SimpleDemo.obj
 0002:fffb4000       __ehfuncinfo$??$_Deallocate@$07$0A@@std@@YAXPAXI@Z 00400000     SimpleDemo.obj
 0002:fffb4000       __ehfuncinfo$??1_Sentry_base@?$basic_ostream@DU?$char_traits@D@std@@@std@@QAE@XZ 00400000     SimpleDemo.obj
 0001:fffff000       __ehhandler$??$_Deallocate@$07$0A@@std@@YAXPAXI@Z 00400000 f   SimpleDemo.obj
 0001:fffff000       __ehhandler$??$_Emplace_reallocate@ABQAVDisplayableObject@@@?$vector@PAVDisplayableObject@@V?$allocator@PAVDisplayableObject@@@std@@@std@@AAEPAPAVDisplayableObject@@QAPAV2@ABQAV2@@Z 00400000 f   SimpleDemo.obj
 0001:fffff000       __ehhandler$??$_Resize_reallocate@U_Value_init_tag@std@@@?$vector@PAVDisplayableObject@@V?$allocator@PAVDisplayableObject@@@std@@@std@@AAEXIABU_Value_init_tag@1@@Z 00400000 f   SimpleDemo.obj
 0001:fffff000       __ehhandler$??1_Sentry_base@?$basic_ostream@DU?$char_traits@D@std@@@std@@QAE@XZ 00400000 f   SimpleDemo.obj
 0001:fffff000       __unwindfunclet$??$?6U?$char_traits@D@std@@@std@@YAAAV?$basic_ostream@DU?$char_traits@D@std@@@0@AAV10@PBD@Z$2 00400000 f   SimpleDemo.obj
 0001:fffff000       __unwindfunclet$??$_Uninitialized_move@PAPAVDisplayableObject@@V?$allocator@PAVDisplayableObject@@@std@@@std@@YAPAPAVDisplayableObject@@QAPAV1@0PAPAV1@AAV?$allocator@PAVDisplayableObject@@@0@@Z$0 00400000 f   SimpleDemo.obj
 0001:fffff000       __unwindfunclet$??$_Uninitialized_value_construct_n@V?$allocator@PAVDisplayableObject@@@std@@@std@@YAPAPAVDisplayableObject@@PAPAV1@IAAV?$allocator@PAVDisplayableObject@@@0@@Z$0 00400000 f   SimpleDemo.obj
 0001:fffff000       __unwindfunclet$??0sentry@?$basic_ostream@DU?$char_traits@D@std@@@std@@QAE@AAV12@@Z$0 00400000 f   SimpleDemo.obj
 0001:fffff000       __unwindfunclet$?_Orphan_range_locked@?$vector@PAVDisplayableObject@@V?$allocator@PAVDisplayableObject@@@std@@@std@@ABEXPAPAVDisplayableObject@@0@Z$0 00400000 f   SimpleDemo.obj
 0002:fffb4000       __unwindtable$??$_Uninitialized_move@PAPAVDisplayableObject@@V?$allocator@PAVDisplayableObject@@@std@@@std@@YAPAPAVDisplayableObject@@QAPAV1@0PAPAV1@AAV?$allocator@PAVDisplayableObject@@@0@@Z 00400000     SimpleDemo.obj
 0002:fffb4000       __unwindtable$??$_Uninitialized_value_construct_n@V?$allocator@PAVDisplayableObject@@@std@@@std@@YAPAPAVDisplayableObject@@PAPAV1@IAAV?$allocator@PAVDisplayableObject@@@0@@Z 00400000     SimpleDemo.obj
 0002:fffb4000       __unwindtable$??0sentry@?$basic_ostream@DU?$char_traits@D@std@@@std@@QAE@AAV12@@Z 00400000     SimpleDemo.obj
 0002:fffb4000       __unwindtable$?_Orphan_range_locked@?$vector@PAVDisplayableObject@@V?$allocator@PAVDisplayableObject@@@std@@@std@@ABEXPAPAVDisplayableObject@@0@Z 00400000     SimpleDemo.obj
 0000:00000000       _volmd                     00400000     SimpleDemo.obj
 0000:00000000       _volmd                     00400000     SimpleDemo.obj
 0000:00000000       _volmd                     00400000     SimpleDemo.obj
 0000:00000000       _volmd                     00400000     SimpleDemo.obj
 0000:00000000       _volmd                     00400000     SimpleDemo.obj
 0000:00000000       _volmd                     00400000     SimpleDemo.obj
 0000:00000000       _volmd                     00400000     SimpleDemo.obj
 0000:00000000       _volmd                     00400000     SimpleDemo.obj
 0000:00000000       _volmd                     00400000     SimpleDemo.obj
 0000:00000000       _volmd                     00400000     SimpleDemo.obj
 0000:00000000       _volmd                     00400000     SimpleDemo.obj
 0002:fffb4000       __catchsym$??$?6U?$char_traits@D@std@@@std@@YAAAV?$basic_ostream@DU?$char_traits@D@std@@@0@AAV10@PBD@Z$3 00400000     SimpleImage.obj
 0002:fffb4000       __ehfuncinfo$??1_Sentry_base@?$basic_ostream@DU?$char_traits@D@std@@@std@@QAE@XZ 00400000     SimpleImage.obj
 0001:fffff000       __ehhandler$??1_Sentry_base@?$basic_ostream@DU?$char_traits@D@std@@@std@@QAE@XZ 00400000 f   SimpleImage.obj
 0001:fffff000       __unwindfunclet$??$?6U?$char_traits@D@std@@@std@@YAAAV?$basic_ostream@DU?$char_traits@D@std@@@0@AAV10@PBD@Z$2 00400000 f   SimpleImage.obj
 0001:fffff000       __unwindfunclet$??0sentry@?$basic_ostream@DU?$char_traits@D@std@@@std@@QAE@AAV12@@Z$0 00400000 f   SimpleImage.obj
 0002:fffb4000       __unwindtable$??0sentry@?$basic_ostream@DU?$char_traits@D@std@@@std@@QAE@AAV12@@Z 00400000     SimpleImage.obj
 0000:00000000       _volmd                     00400000     SimpleImage.obj
 0000:00000000       _volmd                     00400000     SimpleImage.obj
 0000:00000000       _volmd                     00400000     SimpleImage.obj
 0000:00000000       _volmd                     00400000     SimpleImage.obj
 0002:fffb4000       __catchsym$??$?6U?$char_traits@D@std@@@std@@YAAAV?$basic_ostream@DU?$char_traits@D@std@@@0@AAV10@PBD@Z$3 00400000     StarfieldDemo.obj
 0002:fffb4000       __ehfuncinfo$??1_Sentry_base@?$basic_ostream@DU?$char_traits@D@std@@@std@@QAE@XZ 00400000     StarfieldDemo.obj
 0001:fffff000       __ehhandler$??1_Sentry_base@?$basic_ostream@DU?$char_traits@D@std@@@std@@QAE@XZ 00400000 f   StarfieldDemo.obj
 0001:fffff000       __unwindfunclet$??$?6U?$char_traits@D@std@@@std@@YAAAV?$basic_ostream@DU?$char_traits@D@std@@@0@AAV10@PBD@Z$2 00400000 f   StarfieldDemo.obj
 0001:fffff000       __unwindfunclet$??0sentry@?$basic_ostream@DU?$char_traits@D@std@@@std@@QAE@AAV12@@Z$0 00400000 f   StarfieldDemo.obj
 0002:fffb4000       __unwindtable$??0sentry@?$basic_ostream@DU?$char_traits@D@std@@@std@@QAE@AAV12@@Z 00400000     StarfieldDemo.obj
 0000:00000000       _volmd                     00400000     StarfieldDemo.obj
 0000:00000000       _volmd                     00400000     StarfieldDemo.obj
 0000:00000000       _volmd                     00400000     StarfieldDemo.obj
 0000:00000000       _volmd                     00400000     StarfieldDemo.obj
 0002:fffb4000       __ehfuncinfo$??$_Deallocate@$07$0A@@std@@YAXPAXI@Z 00400000     TextBox.obj
 0002:fffb4000       __ehfuncinfo$??$_Deallocate_plain@V?$allocator@U_Container_proxy@std@@@std@@@std@@YAXAAV?$allocator@U_Container_proxy@std@@@0@QAU_Container_proxy@0@@Z 00400000     TextBox.obj
 0002:fffb4000       __ehfuncinfo$??0?$basic_string@DU?$char_traits@D@std@@V?$allocator@D@2@@std@@QAE@XZ 00400000     TextBox.obj
 0002:fffb4000       __ehfuncinfo$?_Deallocate_for_capacity@?$basic_string@DU?$char_traits@D@std@@V?$allocator@D@2@@std@@CAXAAV?$allocator@D@2@QADI@Z 00400000     TextBox.obj
 0001:fffff000       __ehhandler$??$_Deallocate@$07$0A@@std@@YAXPAXI@Z 00400000 f   TextBox.obj
 0001:fffff000       __ehhandler$??$_Deallocate_plain@V?$allocator@U_Container_proxy@std@@@std@@@std@@YAXAAV?$allocator@U_Container_proxy@std@@@0@QAU_Container_proxy@0@@Z 00400000 f   TextBox.obj
 0001:fffff000       __ehhandler$??0?$basic_string@DU?$char_traits@D@std@@V?$allocator@D@2@@std@@QAE@XZ 00400000 f   TextBox.obj
 0001:fffff000       __ehhandler$?_Deallocate_for_capacity@?$basic_string@DU?$char_traits@D@std@@V?$allocator@D@2@@std@@CAXAAV?$allocator@D@2@QADI@Z 00400000 f   TextBox.obj
 0000:00000000       _volmd                     00400000     TextBox.obj
 0000:00000000       _volmd                     00400000     TextBox.obj
 0000:00000000       _volmd                     00400000     TextBox.obj
 0000:00000000       _volmd                     00400000     TextBox.obj
 0000:00000000       _volmd                     00400000     TextBox.obj
 0002:fffb4000       __catchsym$??$?6U?$char_traits@D@std@@@std@@YAAAV?$basic_ostream@DU?$char_traits@D@std@@@0@AAV10@PBD@Z$3 00400000     ZoomingDemo.obj
 0002:fffb4000       __catchsym$??$_Insert_string@DU?$char_traits@D@std@@I@std@@YAAAV?$basic_ostream@DU?$char_traits@D@std@@@0@AAV10@QBDI@Z$3 00400000     ZoomingDemo.obj
 0002:fffb4000       __catchsym$??$_Resize_reallocate@U_Value_init_tag@std@@@?$vector@PAVDisplayableObject@@V?$allocator@PAVDisplayableObject@@@std@@@std@@AAEXIABU_Value_init_tag@1@@Z$2 00400000     ZoomingDemo.obj
 0002:fffb4000       __ehfuncinfo$??$_Deallocate@$07$0A@@std@@YAXPAXI@Z 00400000     ZoomingDemo.obj
 0002:fffb4000       __ehfuncinfo$??$_Deallocate_plain@V?$allocator@U_Container_proxy@std@@@std@@@std@@YAXAAV?$allocator@U_Container_proxy@std@@@0@QAU_Container_proxy@0@@Z 00400000     ZoomingDemo.obj
 0002:fffb4000       __ehfuncinfo$??$_Freenode0@V?$allocator@U?$_Tree_node@U?$pair@$$CBV?$basic_string@DU?$char_traits@D@std@@V?$allocator@D@2@@std@@V?$weak_ptr@VRawImageData@@@2@@std@@PAX@std@@@std@@@?$_Tree_node@U?$pair@$$CBV?$basic_string@DU?$char_traits@D@std@@V?$allocator@D@2@@std@@V?$weak_ptr@VRawImageData@@@2@@std@@PAX@std@@SAXAAV?$allocator@U?$_Tree_node@U?$pair@$$CBV?$basic_string@DU?$char_traits@D@std@@V?$allocator@D@2@@std@@V?$weak_ptr@VRawImageData@@@2@@std@@PAX@std@@@1@PAU01@@Z 00400000     ZoomingDemo.obj
 0002:fffb4000       __ehfuncinfo$??$_Freenode@V?$allocator@U?$_Tree_node@U?$pair@$$CBV?$basic_string@DU?$char_traits@D@std@@V?$allocator@D@2@@std@@V?$weak_ptr@VRawImageData@@@2@@std@@PAX@std@@@std@@@?$_Tree_node@U?$pair@$$CBV?$basic_string@DU?$char_traits@D@std@@V?$allocator@D@2@@std@@V?$weak_ptr@VRawImageData@@@2@@std@@PAX@std@@SAXAAV?$allocator@U?$_Tree_node@U?$pair@$$CBV?$basic_string@DU?$char_traits@D@std@@V?$allocator@D@2@@std@@V?$weak_ptr@VRawImageData@@@2@@std@@PAX@std@@@1@PAU01@@Z 00400000     ZoomingDemo.obj
 0002:fffb4000       __ehfuncinfo$??0?$basic_string@DU?$char_traits@D@std@@V?$allocator@D@2@@std@@QAE@$$QAV01@@Z 00400000     ZoomingDemo.obj
 0002:fffb4000       __ehfuncinfo$??1?$_Alloc_construct_ptr@V?$allocator@U?$_Tree_node@U?$pair@$$CBV?$basic_string@DU?$char_traits@D@std@@V?$allocator@D@2@@std@@V?$shared_ptr@VRawImageData@@@2@@std@@PAX@std@@@std@@@std@@QAE@XZ 00400000     ZoomingDemo.obj
 0002:fffb4000       __ehfuncinfo$??1?$_Alloc_construct_ptr@V?$allocator@U?$_Tree_node@U?$pair@$$CBV?$basic_string@DU?$char_traits@D@std@@V?$allocator@D@2@@std@@V?$weak_ptr@VRawImageData@@@2@@std@@PAX@std@@@std@@@std@@QAE@XZ 00400000     ZoomingDemo.obj
 0002:fffb4000       __ehfuncinfo$??1?$_Tree_temp_node@V?$allocator@U?$_Tree_node@U?$pair@$$CBV?$basic_string@DU?$char_traits@D@std@@V?$allocator@D@2@@std@@V?$shared_ptr@VRawImageData@@@2@@std@@PAX@std@@@std@@@std@@QAE@XZ 00400000     ZoomingDemo.obj
 0002:fffb4000       __ehfuncinfo$??1?$_Tree_temp_node@V?$allocator@U?$_Tree_node@U?$pair@$$CBV?$basic_string@DU?$char_traits@D@std@@V?$allocator@D@2@@std@@V?$weak_ptr@VRawImageData@@@2@@std@@PAX@std@@@std@@@std@@QAE@XZ 00400000     ZoomingDemo.obj
 0002:fffb4000       __ehfuncinfo$??1RawImageData@@QAE@XZ 00400000     ZoomingDemo.obj
 0002:fffb4000       __ehfuncinfo$??1_Sentry_base@?$basic_ostream@DU?$char_traits@D@std@@@std@@QAE@XZ 00400000     ZoomingDemo.obj
 0002:fffb4000       __ehfuncinfo$?_Deallocate_for_capacity@?$basic_string@DU?$char_traits@D@std@@V?$allocator@D@2@@std@@CAXAAV?$allocator@D@2@QADI@Z 00400000     ZoomingDemo.obj
 0002:fffb4000       __ehfuncinfo$?getImagePtrbyURL@ImageManager@@QAE?AV?$shared_ptr@VRawImageData@@@std@@V?$basic_string@DU?$char_traits@D@std@@V?$allocator@D@2@@3@_N1@Z 00400000     ZoomingDemo.obj
 0001:fffff000       __ehhandler$??$_Deallocate@$07$0A@@std@@YAXPAXI@Z 00400000 f   ZoomingDemo.obj
 0001:fffff000       __ehhandler$??$_Deallocate_plain@V?$allocator@U_Container_proxy@std@@@std@@@std@@YAXAAV?$allocator@U_Container_proxy@std@@@0@QAU_Container_proxy@0@@Z 00400000 f   ZoomingDemo.obj
 0001:fffff000       __ehhandler$??$_Freenode0@V?$allocator@U?$_Tree_node@U?$pair@$$CBV?$basic_string@DU?$char_traits@D@std@@V?$allocator@D@2@@std@@V?$weak_ptr@VRawImageData@@@2@@std@@PAX@std@@@std@@@?$_Tree_node@U?$pair@$$CBV?$basic_string@DU?$char_traits@D@std@@V?$allocator@D@2@@std@@V?$weak_ptr@VRawImageData@@@2@@std@@PAX@std@@SAXAAV?$allocator@U?$_Tree_node@U?$pair@$$CBV?$basic_string@DU?$char_traits@D@std@@V?$allocator@D@2@@std@@V?$weak_ptr@VRawImageData@@@2@@std@@PAX@std@@@1@PAU01@@Z 00400000 f   ZoomingDemo.obj
 0001:fffff000       __ehhandler$??$_Freenode@V?$allocator@U?$_Tree_node@U?$pair@$$CBV?$basic_string@DU?$char_traits@D@std@@V?$allocator@D@2@@std@@V?$weak_ptr@VRawImageData@@@2@@std@@PAX@std@@@std@@@?$_Tree_node@U?$pair@$$CBV?$basic_string@DU?$char_traits@D@std@@V?$allocator@D@2@@std@@V?$weak_ptr@VRawImageData@@@2@@std@@PAX@std@@SAXAAV?$allocator@U?$_Tree_node@U?$pair@$$CBV?$basic_string@DU?$char_traits@D@std@@V?$allocator@D@2@@std@@V?$weak_ptr@VRawImageData@@@2@@std@@PAX@std@@@1@PAU01@@Z 00400000 f   ZoomingDemo.obj
 0001:fffff000       __ehhandler$??$_Resize_reallocate@U_Value_init_tag@std@@@?$vector@PAVDisplayableObject@@V?$allocator@PAVDisplayableObject@@@std@@@std@@AAEXIABU_Value_init_tag@1@@Z 00400000 f   ZoomingDemo.obj
 0001:fffff000       __ehhandler$??0?$basic_string@DU?$char_traits@D@std@@V?$allocator@D@2@@std@@QAE@$$QAV01@@Z 00400000 f   ZoomingDemo.obj
 0001:fffff000       __ehhandler$??1?$_Alloc_construct_ptr@V?$allocator@U?$_Tree_node@U?$pair@$$CBV?$basic_string@DU?$char_traits@D@std@@V?$allocator@D@2@@std@@V?$shared_ptr@VRawImageData@@@2@@std@@PAX@std@@@std@@@std@@QAE@XZ 00400000 f   ZoomingDemo.obj
 0001:fffff000       __ehhandler$??1?$_Alloc_construct_ptr@V?$allocator@U?$_Tree_node@U?$pair@$$CBV?$basic_string@DU?$char_traits@D@std@@V?$allocator@D@2@@std@@V?$weak_ptr@VRawImageData@@@2@@std@@PAX@std@@@std@@@std@@QAE@XZ 00400000 f   ZoomingDemo.obj
 0001:fffff000       __ehhandler$??1?$_Tree_temp_node@V?$allocator@U?$_Tree_node@U?$pair@$$CBV?$basic_string@DU?$char_traits@D@std@@V?$allocator@D@2@@std@@V?$shared_ptr@VRawImageData@@@2@@std@@PAX@std@@@std@@@std@@QAE@XZ 00400000 f   ZoomingDemo.obj
 0001:fffff000       __ehhandler$??1?$_Tree_temp_node@V?$allocator@U?$_Tree_node@U?$pair@$$CBV?$basic_string@DU?$char_traits@D@std@@V?$allocator@D@2@@std@@V?$weak_ptr@VRawImageData@@@2@@std@@PAX@std@@@std@@@std@@QAE@XZ 00400000 f   ZoomingDemo.obj
 0001:fffff000       __ehhandler$??1RawImageData@@QAE@XZ 00400000 f   ZoomingDemo.obj
 0001:fffff000       __ehhandler$??1_Sentry_base@?$basic_ostream@DU?$char_traits@D@std@@@std@@QAE@XZ 00400000 f   ZoomingDemo.obj
 0001:fffff000       __ehhandler$?_Deallocate_for_capacity@?$basic_string@DU?$char_traits@D@std@@V?$allocator@D@2@@std@@CAXAAV?$allocator@D@2@QADI@Z 00400000 f   ZoomingDemo.obj
 0001:fffff000       __unwindfunclet$??$?0U?$pair@V?$basic_string@DU?$char_traits@D@std@@V?$allocator@D@2@@std@@V?$shared_ptr@VRawImageData@@@2@@std@@@?$_Tree_temp_node@V?$allocator@U?$_Tree_node@U?$pair@$$CBV?$basic_string@DU?$char_traits@D@std@@V?$allocator@D@2@@std@@V?$shared_ptr@VRawImageData@@@2@@std@@PAX@std@@@std@@@std@@QAE@AAV?$allocator@U?$_Tree_node@U?$pair@$$CBV?$basic_string@DU?$char_traits@D@std@@V?$allocator@D@2@@std@@V?$shared_ptr@VRawImageData@@@2@@std@@PAX@std@@@1@PAU?$_Tree_node@U?$pair@$$CBV?$basic_string@DU?$char_traits@D@std@@V?$allocator@D@2@@std@@V?$shared_ptr@VRawImageData@@@2@@std@@PAX@1@$$QAU?$pair@V?$basic_string@DU?$char_traits@D@std@@V?$allocator@D@2@@std@@V?$shared_ptr@VRawImageData@@@2@@1@@Z$0 00400000 f   ZoomingDemo.obj
 0001:fffff000       __unwindfunclet$??$?0U?$pair@V?$basic_string@DU?$char_traits@D@std@@V?$allocator@D@2@@std@@V?$weak_ptr@VRawImageData@@@2@@std@@@?$_Tree_temp_node@V?$allocator@U?$_Tree_node@U?$pair@$$CBV?$basic_string@DU?$char_traits@D@std@@V?$allocator@D@2@@std@@V?$weak_ptr@VRawImageData@@@2@@std@@PAX@std@@@std@@@std@@QAE@AAV?$allocator@U?$_Tree_node@U?$pair@$$CBV?$basic_string@DU?$char_traits@D@std@@V?$allocator@D@2@@std@@V?$weak_ptr@VRawImageData@@@2@@std@@PAX@std@@@1@PAU?$_Tree_node@U?$pair@$$CBV?$basic_string@DU?$char_traits@D@std@@V?$allocator@D@2@@std@@V?$weak_ptr@VRawImageData@@@2@@std@@PAX@1@$$QAU?$pair@V?$basic_string@DU?$char_traits@D@std@@V?$allocator@D@2@@std@@V?$weak_ptr@VRawImageData@@@2@@1@@Z$0 00400000 f   ZoomingDemo.obj
 0001:fffff000       __unwindfunclet$??$?0VRawImageData@@$0A@@?$shared_ptr@VRawImageData@@@std@@QAE@PAVRawImageData@@@Z$0 00400000 f   ZoomingDemo.obj
 0001:fffff000       __unwindfunclet$??$?6U?$char_traits@D@std@@@std@@YAAAV?$basic_ostream@DU?$char_traits@D@std@@@0@AAV10@PBD@Z$2 00400000 f   ZoomingDemo.obj
 0001:fffff000       __unwindfunclet$??$_Construct@$00PBD@?$basic_string@DU?$char_traits@D@std@@V?$allocator@D@2@@std@@AAEXQBDI@Z$0 00400000 f   ZoomingDemo.obj
 0001:fffff000       __unwindfunclet$??$_Construct@$01PBD@?$basic_string@DU?$char_traits@D@std@@V?$allocator@D@2@@std@@AAEXQBDI@Z$0 00400000 f   ZoomingDemo.obj
 0001:fffff000       __unwindfunclet$??$_Insert_string@DU?$char_traits@D@std@@I@std@@YAAAV?$basic_ostream@DU?$char_traits@D@std@@@0@AAV10@QBDI@Z$2 00400000 f   ZoomingDemo.obj
 0001:fffff000       __unwindfunclet$??$_Uninitialized_move@PAPAVDisplayableObject@@V?$allocator@PAVDisplayableObject@@@std@@@std@@YAPAPAVDisplayableObject@@QAPAV1@0PAPAV1@AAV?$allocator@PAVDisplayableObject@@@0@@Z$0 00400000 f   ZoomingDemo.obj
 0001:fffff000       __unwindfunclet$??$_Uninitialized_value_construct_n@V?$allocator@PAVDisplayableObject@@@std@@@std@@YAPAPAVDisplayableObject@@PAPAV1@IAAV?$allocator@PAVDisplayableObject@@@0@@Z$0 00400000 f   ZoomingDemo.obj
 0001:fffff000       __unwindfunclet$??0?$_Tree_temp_node_alloc@V?$allocator@U?$_Tree_node@U?$pair@$$CBV?$basic_string@DU?$char_traits@D@std@@V?$allocator@D@2@@std@@V?$shared_ptr@VRawImageData@@@2@@std@@PAX@std@@@std@@@std@@QAE@AAV?$allocator@U?$_Tree_node@U?$pair@$$CBV?$basic_string@DU?$char_traits@D@std@@V?$allocator@D@2@@std@@V?$shared_ptr@VRawImageData@@@2@@std@@PAX@std@@@1@@Z$0 00400000 f   ZoomingDemo.obj
 0001:fffff000       __unwindfunclet$??0?$_Tree_temp_node_alloc@V?$allocator@U?$_Tree_node@U?$pair@$$CBV?$basic_string@DU?$char_traits@D@std@@V?$allocator@D@2@@std@@V?$weak_ptr@VRawImageData@@@2@@std@@PAX@std@@@std@@@std@@QAE@AAV?$allocator@U?$_Tree_node@U?$pair@$$CBV?$basic_string@DU?$char_traits@D@std@@V?$allocator@D@2@@std@@V?$weak_ptr@VRawImageData@@@2@@std@@PAX@std@@@1@@Z$0 00400000 f   ZoomingDemo.obj
 0001:fffff000       __unwindfunclet$??0?$basic_string@DU?$char_traits@D@std@@V?$allocator@D@2@@std@@QAE@ABV01@@Z$0 00400000 f   ZoomingDemo.obj
 0001:fffff000       __unwindfunclet$??0?$basic_string@DU?$char_traits@D@std@@V?$allocator@D@2@@std@@QAE@QBD@Z$0 00400000 f   ZoomingDemo.obj
 0001:fffff000       __unwindfunclet$??0DragableImageObject@@QAE@HHPAVBaseEngine@@V?$basic_string@DU?$char_traits@D@std@@V?$allocator@D@2@@std@@_N2@Z$0 00400000 f   ZoomingDemo.obj
 0001:fffff000       __unwindfunclet$??0DragableObject@@QAE@HHPAVBaseEngine@@HH_N1@Z$0 00400000 f   ZoomingDemo.obj
 0001:fffff000       __unwindfunclet$??0ImageManager@@QAE@XZ$0 00400000 f   ZoomingDemo.obj
 0001:fffff000       __unwindfunclet$??0RawImageData@@QAE@V?$basic_string@DU?$char_traits@D@std@@V?$allocator@D@2@@std@@@Z$0 00400000 f   ZoomingDemo.obj
 0001:fffff000       __unwindfunclet$??0sentry@?$basic_ostream@DU?$char_traits@D@std@@@std@@QAE@AAV12@@Z$0 00400000 f   ZoomingDemo.obj
 0001:fffff000       __unwindfunclet$?_Alloc_sentinel_and_proxy@?$_Tree@V?$_Tmap_traits@V?$basic_string@DU?$char_traits@D@std@@V?$allocator@D@2@@std@@V?$shared_ptr@VRawImageData@@@2@U?$less@V?$basic_string@DU?$char_traits@D@std@@V?$allocator@D@2@@std@@@2@V?$allocator@U?$pair@$$CBV?$basic_string@DU?$char_traits@D@std@@V?$allocator@D@2@@std@@V?$shared_ptr@VRawImageData@@@2@@std@@@2@$0A@@std@@@std@@IAEXXZ$0 00400000 f   ZoomingDemo.obj
 0001:fffff000       __unwindfunclet$?_Alloc_sentinel_and_proxy@?$_Tree@V?$_Tmap_traits@V?$basic_string@DU?$char_traits@D@std@@V?$allocator@D@2@@std@@V?$weak_ptr@VRawImageData@@@2@U?$less@V?$basic_string@DU?$char_traits@D@std@@V?$allocator@D@2@@std@@@2@V?$allocator@U?$pair@$$CBV?$basic_string@DU?$char_traits@D@std@@V?$allocator@D@2@@std@@V?$weak_ptr@VRawImageData@@@2@@std@@@2@$0A@@std@@@std@@IAEXXZ$0 00400000 f   ZoomingDemo.obj
 0001:fffff000       __unwindfunclet$?_Orphan_range_locked@?$vector@PAVDisplayableObject@@V?$allocator@PAVDisplayableObject@@@std@@@std@@ABEXPAPAVDisplayableObject@@0@Z$0 00400000 f   ZoomingDemo.obj
 0001:fffff000       __unwindfunclet$?get@ImageManager@@SAPAV1@XZ$0 00400000 f   ZoomingDemo.obj
 0001:fffff000       __unwindfunclet$?getImagePtrbyURL@ImageManager@@QAE?AV?$shared_ptr@VRawImageData@@@std@@V?$basic_string@DU?$char_traits@D@std@@V?$allocator@D@2@@3@_N1@Z$0 00400000 f   ZoomingDemo.obj
 0001:fffff000       __unwindfunclet$?getImagebyURL@ImageManager@@QAE?AVSimpleImage@@V?$basic_string@DU?$char_traits@D@std@@V?$allocator@D@2@@std@@_N1@Z$0 00400000 f   ZoomingDemo.obj
 0001:fffff000       __unwindfunclet$?loadAsNew@ImageManager@@QAE?AV?$shared_ptr@VRawImageData@@@std@@V?$basic_string@DU?$char_traits@D@std@@V?$allocator@D@2@@3@@Z$0 00400000 f   ZoomingDemo.obj
 0001:fffff000       __unwindfunclet$?loadImage@RawImageData@@QAE_NV?$basic_string@DU?$char_traits@D@std@@V?$allocator@D@2@@std@@HHHHH_N@Z$0 00400000 f   ZoomingDemo.obj
 0002:fffb4000       __unwindtable$??$?0U?$pair@V?$basic_string@DU?$char_traits@D@std@@V?$allocator@D@2@@std@@V?$shared_ptr@VRawImageData@@@2@@std@@@?$_Tree_temp_node@V?$allocator@U?$_Tree_node@U?$pair@$$CBV?$basic_string@DU?$char_traits@D@std@@V?$allocator@D@2@@std@@V?$shared_ptr@VRawImageData@@@2@@std@@PAX@std@@@std@@@std@@QAE@AAV?$allocator@U?$_Tree_node@U?$pair@$$CBV?$basic_string@DU?$char_traits@D@std@@V?$allocator@D@2@@std@@V?$shared_ptr@VRawImageData@@@2@@std@@PAX@std@@@1@PAU?$_Tree_node@U?$pair@$$CBV?$basic_string@DU?$char_traits@D@std@@V?$allocator@D@2@@std@@V?$shared_ptr@VRawImageData@@@2@@std@@PAX@1@$$QAU?$pair@V?$basic_string@DU?$char_traits@D@std@@V?$allocator@D@2@@std@@V?$shared_ptr@VRawImageData@@@2@@1@@Z 00400000     ZoomingDemo.obj
 0002:fffb4000       __unwindtable$??$?0U?$pair@V?$basic_string@DU?$char_traits@D@std@@V?$allocator@D@2@@std@@V?$weak_ptr@VRawImageData@@@2@@std@@@?$_Tree_temp_node@V?$allocator@U?$_Tree_node@U?$pair@$$CBV?$basic_string@DU?$char_traits@D@std@@V?$allocator@D@2@@std@@V?$weak_ptr@VRawImageData@@@2@@std@@PAX@std@@@std@@@std@@QAE@AAV?$allocator@U?$_Tree_node@U?$pair@$$CBV?$basic_string@DU?$char_traits@D@std@@V?$allocator@D@2@@std@@V?$weak_ptr@VRawImageData@@@2@@std@@PAX@std@@@1@PAU?$_Tree_node@U?$pair@$$CBV?$basic_string@DU?$char_traits@D@std@@V?$allocator@D@2@@std@@V?$weak_ptr@VRawImageData@@@2@@std@@PAX@1@$$QAU?$pair@V?$basic_string@DU?$char_traits@D@std@@V?$allocator@D@2@@std@@V?$weak_ptr@VRawImageData@@@2@@1@@Z 00400000     ZoomingDemo.obj
 0002:fffb4000       __unwindtable$??$?0VRawImageData@@$0A@@?$shared_ptr@VRawImageData@@@std@@QAE@PAVRawImageData@@@Z 00400000     ZoomingDemo.obj
 0002:fffb4000       __unwindtable$??$_Construct@$00PBD@?$basic_string@DU?$char_traits@D@std@@V?$allocator@D@2@@std@@AAEXQBDI@Z 00400000     ZoomingDemo.obj
 0002:fffb4000       __unwindtable$??$_Construct@$01PBD@?$basic_string@DU?$char_traits@D@std@@V?$allocator@D@2@@std@@AAEXQBDI@Z 00400000     ZoomingDemo.obj
 0002:fffb4000       __unwindtable$??$_Uninitialized_move@PAPAVDisplayableObject@@V?$allocator@PAVDisplayableObject@@@std@@@std@@YAPAPAVDisplayableObject@@QAPAV1@0PAPAV1@AAV?$allocator@PAVDisplayableObject@@@0@@Z 00400000     ZoomingDemo.obj
 0002:fffb4000       __unwindtable$??$_Uninitialized_value_construct_n@V?$allocator@PAVDisplayableObject@@@std@@@std@@YAPAPAVDisplayableObject@@PAPAV1@IAAV?$allocator@PAVDisplayableObject@@@0@@Z 00400000     ZoomingDemo.obj
 0002:fffb4000       __unwindtable$??0?$_Tree_temp_node_alloc@V?$allocator@U?$_Tree_node@U?$pair@$$CBV?$basic_string@DU?$char_traits@D@std@@V?$allocator@D@2@@std@@V?$shared_ptr@VRawImageData@@@2@@std@@PAX@std@@@std@@@std@@QAE@AAV?$allocator@U?$_Tree_node@U?$pair@$$CBV?$basic_string@DU?$char_traits@D@std@@V?$allocator@D@2@@std@@V?$shared_ptr@VRawImageData@@@2@@std@@PAX@std@@@1@@Z 00400000     ZoomingDemo.obj
 0002:fffb4000       __unwindtable$??0?$_Tree_temp_node_alloc@V?$allocator@U?$_Tree_node@U?$pair@$$CBV?$basic_string@DU?$char_traits@D@std@@V?$allocator@D@2@@std@@V?$weak_ptr@VRawImageData@@@2@@std@@PAX@std@@@std@@@std@@QAE@AAV?$allocator@U?$_Tree_node@U?$pair@$$CBV?$basic_string@DU?$char_traits@D@std@@V?$allocator@D@2@@std@@V?$weak_ptr@VRawImageData@@@2@@std@@PAX@std@@@1@@Z 00400000     ZoomingDemo.obj
 0002:fffb4000       __unwindtable$??0?$basic_string@DU?$char_traits@D@std@@V?$allocator@D@2@@std@@QAE@ABV01@@Z 00400000     ZoomingDemo.obj
 0002:fffb4000       __unwindtable$??0?$basic_string@DU?$char_traits@D@std@@V?$allocator@D@2@@std@@QAE@QBD@Z 00400000     ZoomingDemo.obj
 0002:fffb4000       __unwindtable$??0DragableImageObject@@QAE@HHPAVBaseEngine@@V?$basic_string@DU?$char_traits@D@std@@V?$allocator@D@2@@std@@_N2@Z 00400000     ZoomingDemo.obj
 0002:fffb4000       __unwindtable$??0DragableObject@@QAE@HHPAVBaseEngine@@HH_N1@Z 00400000     ZoomingDemo.obj
 0002:fffb4000       __unwindtable$??0ImageManager@@QAE@XZ 00400000     ZoomingDemo.obj
 0002:fffb4000       __unwindtable$??0RawImageData@@QAE@V?$basic_string@DU?$char_traits@D@std@@V?$allocator@D@2@@std@@@Z 00400000     ZoomingDemo.obj
 0002:fffb4000       __unwindtable$??0sentry@?$basic_ostream@DU?$char_traits@D@std@@@std@@QAE@AAV12@@Z 00400000     ZoomingDemo.obj
